---
triple:          'arm64-apple-darwin'
binary-path:     'bin/app'
relocations:
  - { offsetInCU: 0x26, offset: 0x26, size: 0x8, addend: 0x0, symName: __ZN3App3RunEv, symObjAddr: 0x0, symBinAddr: 0x100002454, symSize: 0x6FC }
  - { offsetInCU: 0x39, offset: 0x39, size: 0x8, addend: 0x0, symName: __ZN3App10s_instanceE, symObjAddr: 0x184C0, symBinAddr: 0x10060E620, symSize: 0x0 }
  - { offsetInCU: 0x4882, offset: 0x4882, size: 0x8, addend: 0x0, symName: __ZNSt3__1neB8ue170006IPP5LayerEEbRKNS_11__wrap_iterIT_EES8_, symObjAddr: 0xCBC, symBinAddr: 0x100003110, symSize: 0x34 }
  - { offsetInCU: 0x48C5, offset: 0x48C5, size: 0x8, addend: 0x0, symName: __ZNSt3__1eqB8ue170006IPP5LayerEEbRKNS_11__wrap_iterIT_EES8_, symObjAddr: 0x1810, symBinAddr: 0x100003C64, symSize: 0x48 }
  - { offsetInCU: 0x7605, offset: 0x7605, size: 0x8, addend: 0x0, symName: __ZN3App3RunEv, symObjAddr: 0x0, symBinAddr: 0x100002454, symSize: 0x6FC }
  - { offsetInCU: 0x76DD, offset: 0x76DD, size: 0x8, addend: 0x0, symName: __ZNKSt3__110shared_ptrI6WindowEptB8ue170006Ev, symObjAddr: 0x6FC, symBinAddr: 0x100002B50, symSize: 0x60 }
  - { offsetInCU: 0x7701, offset: 0x7701, size: 0x8, addend: 0x0, symName: __ZNK6Window9IsRunningEv, symObjAddr: 0x75C, symBinAddr: 0x100002BB0, symSize: 0x8C }
  - { offsetInCU: 0x7725, offset: 0x7725, size: 0x8, addend: 0x0, symName: __ZNKSt3__110unique_ptrI10LayerStackNS_14default_deleteIS1_EEE3getB8ue170006Ev, symObjAddr: 0x7E8, symBinAddr: 0x100002C3C, symSize: 0x6C }
  - { offsetInCU: 0x7749, offset: 0x7749, size: 0x8, addend: 0x0, symName: __ZN10LayerStack5beginEv, symObjAddr: 0x854, symBinAddr: 0x100002CA8, symSize: 0x234 }
  - { offsetInCU: 0x776E, offset: 0x776E, size: 0x8, addend: 0x0, symName: __ZN10LayerStack3endEv, symObjAddr: 0xA88, symBinAddr: 0x100002EDC, symSize: 0x234 }
  - { offsetInCU: 0x7793, offset: 0x7793, size: 0x8, addend: 0x0, symName: __ZNKSt3__111__wrap_iterIPP5LayerEdeB8ue170006Ev, symObjAddr: 0xCF0, symBinAddr: 0x100003144, symSize: 0x60 }
  - { offsetInCU: 0x77B7, offset: 0x77B7, size: 0x8, addend: 0x0, symName: __ZNSt3__111__wrap_iterIPP5LayerEppB8ue170006Ev, symObjAddr: 0xD50, symBinAddr: 0x1000031A4, symSize: 0x68 }
  - { offsetInCU: 0x77DB, offset: 0x77DB, size: 0x8, addend: 0x0, symName: __ZNKSt3__110unique_ptrI10LayerStackNS_14default_deleteIS1_EEEptB8ue170006Ev, symObjAddr: 0xDB8, symBinAddr: 0x10000320C, symSize: 0x6C }
  - { offsetInCU: 0x77FF, offset: 0x77FF, size: 0x8, addend: 0x0, symName: __ZNK10LayerStack10GetOverlayEv, symObjAddr: 0xE24, symBinAddr: 0x100003278, symSize: 0x64 }
  - { offsetInCU: 0x78AA, offset: 0x78AA, size: 0x8, addend: 0x0, symName: __ZN2WR4Core4Time6UpdateEv, symObjAddr: 0xE88, symBinAddr: 0x1000032DC, symSize: 0x1AC }
  - { offsetInCU: 0x78BD, offset: 0x78BD, size: 0x8, addend: 0x0, symName: __ZN3App9PushLayerEP5Layer, symObjAddr: 0x1034, symBinAddr: 0x100003488, symSize: 0x34 }
  - { offsetInCU: 0x78F1, offset: 0x78F1, size: 0x8, addend: 0x0, symName: __ZN3App11PushOverlayEP5Layer, symObjAddr: 0x1068, symBinAddr: 0x1000034BC, symSize: 0x34 }
  - { offsetInCU: 0x7925, offset: 0x7925, size: 0x8, addend: 0x0, symName: __ZNSt3__16vectorIP5LayerNS_9allocatorIS2_EEE5beginB8ue170006Ev, symObjAddr: 0x109C, symBinAddr: 0x1000034F0, symSize: 0x268 }
  - { offsetInCU: 0x794C, offset: 0x794C, size: 0x8, addend: 0x0, symName: __ZNSt3__16vectorIP5LayerNS_9allocatorIS2_EEE11__make_iterB8ue170006EPS2_, symObjAddr: 0x1304, symBinAddr: 0x100003758, symSize: 0x1FC }
  - { offsetInCU: 0x7981, offset: 0x7981, size: 0x8, addend: 0x0, symName: __ZNSt3__111__wrap_iterIPP5LayerEC1B8ue170006ES3_, symObjAddr: 0x1500, symBinAddr: 0x100003954, symSize: 0x34 }
  - { offsetInCU: 0x79B7, offset: 0x79B7, size: 0x8, addend: 0x0, symName: __ZNSt3__111__wrap_iterIPP5LayerEC2B8ue170006ES3_, symObjAddr: 0x1534, symBinAddr: 0x100003988, symSize: 0x70 }
  - { offsetInCU: 0x79ED, offset: 0x79ED, size: 0x8, addend: 0x0, symName: __ZNSt3__16vectorIP5LayerNS_9allocatorIS2_EEE3endB8ue170006Ev, symObjAddr: 0x15A4, symBinAddr: 0x1000039F8, symSize: 0x26C }
  - { offsetInCU: 0x7A14, offset: 0x7A14, size: 0x8, addend: 0x0, symName: __ZNKSt3__111__wrap_iterIPP5LayerE4baseB8ue170006Ev, symObjAddr: 0x1858, symBinAddr: 0x100003CAC, symSize: 0x60 }
  - { offsetInCU: 0x7A38, offset: 0x7A38, size: 0x8, addend: 0x0, symName: __ZN2WR4Core4Time14GetElapsedTimeEv, symObjAddr: 0x18B8, symBinAddr: 0x100003D0C, symSize: 0x18 }
  - { offsetInCU: 0x7A4B, offset: 0x7A4B, size: 0x8, addend: 0x0, symName: __ZNKSt3__117__compressed_pairIP10LayerStackNS_14default_deleteIS1_EEE5firstB8ue170006Ev, symObjAddr: 0x18D0, symBinAddr: 0x100003D24, symSize: 0x24 }
  - { offsetInCU: 0x7A6F, offset: 0x7A6F, size: 0x8, addend: 0x0, symName: __ZNKSt3__122__compressed_pair_elemIP10LayerStackLi0ELb0EE5__getB8ue170006Ev, symObjAddr: 0x18F4, symBinAddr: 0x100003D48, symSize: 0x14 }
  - { offsetInCU: 0x3B, offset: 0x7B00, size: 0x8, addend: 0x0, symName: ___func__._ZN3glm16perspectiveRH_NOIfEENS_3matILi4ELi4ET_LNS_9qualifierE0EEES2_S2_S2_S2_, symObjAddr: 0x1E220, symBinAddr: 0x1004F05A0, symSize: 0x0 }
  - { offsetInCU: 0x6B, offset: 0x7B30, size: 0x8, addend: 0x0, symName: _.str, symObjAddr: 0x1E260, symBinAddr: 0x1004F05E0, symSize: 0x0 }
  - { offsetInCU: 0x88, offset: 0x7B4D, size: 0x8, addend: 0x0, symName: _.str.1, symObjAddr: 0x1E2A0, symBinAddr: 0x1004F0620, symSize: 0x0 }
  - { offsetInCU: 0xA6, offset: 0x7B6B, size: 0x8, addend: 0x0, symName: ___func__._ZN3glm3matILi4ELi4EfLNS_9qualifierE0EEixEi, symObjAddr: 0x1E320, symBinAddr: 0x1004F06A0, symSize: 0x0 }
  - { offsetInCU: 0xC4, offset: 0x7B89, size: 0x8, addend: 0x0, symName: _.str.2, symObjAddr: 0x1E340, symBinAddr: 0x1004F06C0, symSize: 0x0 }
  - { offsetInCU: 0xE2, offset: 0x7BA7, size: 0x8, addend: 0x0, symName: _.str.3, symObjAddr: 0x1E360, symBinAddr: 0x1004F06E0, symSize: 0x0 }
  - { offsetInCU: 0x100, offset: 0x7BC5, size: 0x8, addend: 0x0, symName: _.str.4, symObjAddr: 0x1E3A0, symBinAddr: 0x1004F0720, symSize: 0x0 }
  - { offsetInCU: 0x11E, offset: 0x7BE3, size: 0x8, addend: 0x0, symName: _.str.5, symObjAddr: 0x1E3C0, symBinAddr: 0x1004F0740, symSize: 0x0 }
  - { offsetInCU: 0x13C, offset: 0x7C01, size: 0x8, addend: 0x0, symName: _.str.6, symObjAddr: 0x1E400, symBinAddr: 0x1004F0780, symSize: 0x0 }
  - { offsetInCU: 0x1B24, offset: 0x95E9, size: 0x8, addend: 0x0, symName: __ZN3glmmlIfLNS_9qualifierE0EEENS_3vecILi3ET_XT0_EEERKS4_S3_, symObjAddr: 0x25A0, symBinAddr: 0x100006394, symSize: 0x3F0 }
  - { offsetInCU: 0x1B76, offset: 0x963B, size: 0x8, addend: 0x0, symName: __ZN3glm11perspectiveIfEENS_3matILi4ELi4ET_LNS_9qualifierE0EEES2_S2_S2_S2_, symObjAddr: 0x4628, symBinAddr: 0x10000841C, symSize: 0x3C }
  - { offsetInCU: 0x1BDA, offset: 0x969F, size: 0x8, addend: 0x0, symName: __ZN3glm7radiansIfEET_S1_, symObjAddr: 0x4664, symBinAddr: 0x100008458, symSize: 0x24 }
  - { offsetInCU: 0x1C0F, offset: 0x96D4, size: 0x8, addend: 0x0, symName: __ZN3glm6lookAtIfLNS_9qualifierE0EEENS_3matILi4ELi4ET_XT0_EEERKNS_3vecILi3ES3_XT0_EEES8_S8_, symObjAddr: 0x4AB4, symBinAddr: 0x1000088A8, symSize: 0x34 }
  - { offsetInCU: 0x1C6A, offset: 0x972F, size: 0x8, addend: 0x0, symName: __ZN3glmplIfLNS_9qualifierE0EEENS_3vecILi3ET_XT0_EEERKS4_S6_, symObjAddr: 0x4AE8, symBinAddr: 0x1000088DC, symSize: 0x530 }
  - { offsetInCU: 0x1CBC, offset: 0x9781, size: 0x8, addend: 0x0, symName: __ZN3glm7inverseILi4ELi4EfLNS_9qualifierE0EEENS_3matIXT_EXT0_ET1_XT2_EEERKS4_, symObjAddr: 0x5018, symBinAddr: 0x100008E0C, symSize: 0x24 }
  - { offsetInCU: 0x1D11, offset: 0x97D6, size: 0x8, addend: 0x0, symName: __ZN3glmmiIfLNS_9qualifierE0EEENS_3vecILi2ET_XT0_EEERKS4_S3_, symObjAddr: 0x5118, symBinAddr: 0x100008F0C, symSize: 0x36C }
  - { offsetInCU: 0x1D63, offset: 0x9828, size: 0x8, addend: 0x0, symName: __ZN3glmmlIfLNS_9qualifierE0EEENS_3vecILi2ET_XT0_EEERKS4_S3_, symObjAddr: 0x5484, symBinAddr: 0x100009278, symSize: 0x36C }
  - { offsetInCU: 0x1DB5, offset: 0x987A, size: 0x8, addend: 0x0, symName: __ZN3glmmlIfLNS_9qualifierE0EEENS_3matILi4ELi4ET_XT0_EE8col_typeERKS4_RKNS4_8row_typeE, symObjAddr: 0x57F0, symBinAddr: 0x1000095E4, symSize: 0x11B8 }
  - { offsetInCU: 0x1EE0, offset: 0x99A5, size: 0x8, addend: 0x0, symName: __ZN3glm9normalizeILi3EfLNS_9qualifierE0EEENS_3vecIXT_ET0_XT1_EEERKS4_, symObjAddr: 0x69F4, symBinAddr: 0x10000A7E8, symSize: 0x3C8 }
  - { offsetInCU: 0x1F2A, offset: 0x99EF, size: 0x8, addend: 0x0, symName: __ZN3glmdvIfLNS_9qualifierE0EEENS_3vecILi3ET_XT0_EEERKS4_S3_, symObjAddr: 0x6DBC, symBinAddr: 0x10000ABB0, symSize: 0x3F0 }
  - { offsetInCU: 0x1F7C, offset: 0x9A41, size: 0x8, addend: 0x0, symName: __ZN3glm16perspectiveRH_NOIfEENS_3matILi4ELi4ET_LNS_9qualifierE0EEES2_S2_S2_S2_, symObjAddr: 0x9878, symBinAddr: 0x10000D66C, symSize: 0x38C }
  - { offsetInCU: 0x1FF8, offset: 0x9ABD, size: 0x8, addend: 0x0, symName: __ZN3glm3absIfEET_S1_, symObjAddr: 0x9C04, symBinAddr: 0x10000D9F8, symSize: 0x24 }
  - { offsetInCU: 0x223F, offset: 0x9D04, size: 0x8, addend: 0x0, symName: __ZN3glm8lookAtRHIfLNS_9qualifierE0EEENS_3matILi4ELi4ET_XT0_EEERKNS_3vecILi3ES3_XT0_EEES8_S8_, symObjAddr: 0x9E58, symBinAddr: 0x10000DC4C, symSize: 0x1414 }
  - { offsetInCU: 0x22E3, offset: 0x9DA8, size: 0x8, addend: 0x0, symName: __ZN3glmmiIfLNS_9qualifierE0EEENS_3vecILi3ET_XT0_EEERKS4_S6_, symObjAddr: 0xB26C, symBinAddr: 0x10000F060, symSize: 0x530 }
  - { offsetInCU: 0x2335, offset: 0x9DFA, size: 0x8, addend: 0x0, symName: __ZN3glm5crossIfLNS_9qualifierE0EEENS_3vecILi3ET_XT0_EEERKS4_S6_, symObjAddr: 0xB79C, symBinAddr: 0x10000F590, symSize: 0x3D0 }
  - { offsetInCU: 0x2384, offset: 0x9E49, size: 0x8, addend: 0x0, symName: __ZN3glm3dotILi3EfLNS_9qualifierE0EEET0_RKNS_3vecIXT_ES2_XT1_EEES6_, symObjAddr: 0xBB6C, symBinAddr: 0x10000F960, symSize: 0x2C }
  - { offsetInCU: 0x23DB, offset: 0x9EA0, size: 0x8, addend: 0x0, symName: __ZN3glmmlIfLNS_9qualifierE0EEENS_3vecILi3ET_XT0_EEERKS4_S6_, symObjAddr: 0xC7BC, symBinAddr: 0x1000105B0, symSize: 0x530 }
  - { offsetInCU: 0x242D, offset: 0x9EF2, size: 0x8, addend: 0x0, symName: __ZN3glmplIfLNS_9qualifierE0EEENS_3vecILi4ET_XT0_EEERKS4_S6_, symObjAddr: 0x12F88, symBinAddr: 0x100016D7C, symSize: 0x318 }
  - { offsetInCU: 0x247F, offset: 0x9F44, size: 0x8, addend: 0x0, symName: __ZN3glmmiIfLNS_9qualifierE0EEENS_3vecILi4ET_XT0_EEERKS4_S6_, symObjAddr: 0x132A0, symBinAddr: 0x100017094, symSize: 0x318 }
  - { offsetInCU: 0x24D1, offset: 0x9F96, size: 0x8, addend: 0x0, symName: __ZN3glmmlIfLNS_9qualifierE0EEENS_3vecILi4ET_XT0_EEERKS4_S6_, symObjAddr: 0x135B8, symBinAddr: 0x1000173AC, symSize: 0x318 }
  - { offsetInCU: 0x2523, offset: 0x9FE8, size: 0x8, addend: 0x0, symName: __ZN3glmmlIfLNS_9qualifierE0EEENS_3matILi4ELi4ET_XT0_EEERKS4_RKS3_, symObjAddr: 0x1391C, symBinAddr: 0x100017710, symSize: 0x960 }
  - { offsetInCU: 0x2575, offset: 0xA03A, size: 0x8, addend: 0x0, symName: __ZN3glmmlIfLNS_9qualifierE0EEENS_3vecILi4ET_XT0_EEERKS4_RKS3_, symObjAddr: 0x162E0, symBinAddr: 0x10001A0D4, symSize: 0x37C }
  - { offsetInCU: 0x25C7, offset: 0xA08C, size: 0x8, addend: 0x0, symName: __ZN3glm11inversesqrtIfEET_S1_, symObjAddr: 0x1DF6C, symBinAddr: 0x100021D60, symSize: 0x30 }
  - { offsetInCU: 0x69D4, offset: 0xE499, size: 0x8, addend: 0x0, symName: __ZNSt3__112__to_addressB8ue170006IN3glm3vecILi3EfLNS1_9qualifierE0EEEEEPT_S6_, symObjAddr: 0x94D4, symBinAddr: 0x10000D2C8, symSize: 0x14 }
  - { offsetInCU: 0x6A09, offset: 0xE4CE, size: 0x8, addend: 0x0, symName: __ZNSt3__119__libcpp_deallocateB8ue170006EPvmm, symObjAddr: 0x96B8, symBinAddr: 0x10000D4AC, symSize: 0x60 }
  - { offsetInCU: 0x6A6F, offset: 0xE534, size: 0x8, addend: 0x0, symName: __ZNSt3__124__is_overaligned_for_newB8ue170006Em, symObjAddr: 0x9718, symBinAddr: 0x10000D50C, symSize: 0x20 }
  - { offsetInCU: 0x6A9E, offset: 0xE563, size: 0x8, addend: 0x0, symName: __ZNSt3__127__do_deallocate_handle_sizeB8ue170006IJSt11align_val_tEEEvPvmDpT_, symObjAddr: 0x9738, symBinAddr: 0x10000D52C, symSize: 0x30 }
  - { offsetInCU: 0x6AF4, offset: 0xE5B9, size: 0x8, addend: 0x0, symName: __ZNSt3__127__do_deallocate_handle_sizeB8ue170006IJEEEvPvmDpT_, symObjAddr: 0x9768, symBinAddr: 0x10000D55C, symSize: 0x28 }
  - { offsetInCU: 0x6B33, offset: 0xE5F8, size: 0x8, addend: 0x0, symName: __ZNSt3__124__libcpp_operator_deleteB8ue170006IJPvSt11align_val_tEEEvDpT_, symObjAddr: 0x9790, symBinAddr: 0x10000D584, symSize: 0x2C }
  - { offsetInCU: 0x6B80, offset: 0xE645, size: 0x8, addend: 0x0, symName: __ZNSt3__124__libcpp_operator_deleteB8ue170006IJPvEEEvDpT_, symObjAddr: 0x97BC, symBinAddr: 0x10000D5B0, symSize: 0x24 }
  - { offsetInCU: 0x6FC5, offset: 0xEA8A, size: 0x8, addend: 0x0, symName: __ZNSt3__13maxB8ue170006ImEERKT_S3_S3_, symObjAddr: 0x18C30, symBinAddr: 0x10001CA24, symSize: 0x2C }
  - { offsetInCU: 0x7008, offset: 0xEACD, size: 0x8, addend: 0x0, symName: __ZNSt3__13minB8ue170006ImEERKT_S3_S3_, symObjAddr: 0x18C5C, symBinAddr: 0x10001CA50, symSize: 0x2C }
  - { offsetInCU: 0x723E, offset: 0xED03, size: 0x8, addend: 0x0, symName: __ZNSt3__13minB8ue170006ImNS_6__lessIvvEEEERKT_S5_S5_T0_, symObjAddr: 0x18CE8, symBinAddr: 0x10001CADC, symSize: 0x1E8 }
  - { offsetInCU: 0x72E5, offset: 0xEDAA, size: 0x8, addend: 0x0, symName: __ZNSt3__120__throw_length_errorB8ue170006EPKc, symObjAddr: 0x18FE4, symBinAddr: 0x10001CDD8, symSize: 0x68 }
  - { offsetInCU: 0x7310, offset: 0xEDD5, size: 0x8, addend: 0x0, symName: __ZNSt3__13maxB8ue170006ImNS_6__lessIvvEEEERKT_S5_S5_T0_, symObjAddr: 0x1910C, symBinAddr: 0x10001CF00, symSize: 0x1E8 }
  - { offsetInCU: 0x7370, offset: 0xEE35, size: 0x8, addend: 0x0, symName: __ZNSt3__119__allocate_at_leastB8ue170006INS_9allocatorIN3glm3vecILi3EfLNS2_9qualifierE0EEEEEEENS_19__allocation_resultINS_16allocator_traitsIT_E7pointerEEERS9_m, symObjAddr: 0x19860, symBinAddr: 0x10001D654, symSize: 0x28C }
  - { offsetInCU: 0x73B5, offset: 0xEE7A, size: 0x8, addend: 0x0, symName: __ZNSt3__117__libcpp_allocateB8ue170006Emm, symObjAddr: 0x19C8C, symBinAddr: 0x10001DA80, symSize: 0x60 }
  - { offsetInCU: 0x740F, offset: 0xEED4, size: 0x8, addend: 0x0, symName: __ZNSt3__121__libcpp_operator_newB8ue170006IJmSt11align_val_tEEEPvDpT_, symObjAddr: 0x19CEC, symBinAddr: 0x10001DAE0, symSize: 0x2C }
  - { offsetInCU: 0x745F, offset: 0xEF24, size: 0x8, addend: 0x0, symName: __ZNSt3__121__libcpp_operator_newB8ue170006IJmEEEPvDpT_, symObjAddr: 0x19D18, symBinAddr: 0x10001DB0C, symSize: 0x24 }
  - { offsetInCU: 0x749A, offset: 0xEF5F, size: 0x8, addend: 0x0, symName: __ZNSt3__142__uninitialized_allocator_move_if_noexceptB8ue170006INS_9allocatorIN3glm3vecILi3EfLNS2_9qualifierE0EEEEENS_16reverse_iteratorIPS5_EES9_S5_vEET1_RT_T0_SD_SA_, symObjAddr: 0x1A0BC, symBinAddr: 0x10001DEB0, symSize: 0x4A8 }
  - { offsetInCU: 0x7525, offset: 0xEFEA, size: 0x8, addend: 0x0, symName: __ZNSt3__14swapB8ue170006IPN3glm3vecILi3EfLNS1_9qualifierE0EEEEENS_9enable_ifIXaasr21is_move_constructibleIT_EE5valuesr18is_move_assignableIS7_EE5valueEvE4typeERS7_SA_, symObjAddr: 0x1A5FC, symBinAddr: 0x10001E3F0, symSize: 0x134 }
  - { offsetInCU: 0x7576, offset: 0xF03B, size: 0x8, addend: 0x0, symName: __ZNSt3__14moveB8ue170006INS_16reverse_iteratorIPN3glm3vecILi3EfLNS2_9qualifierE0EEEEES7_EET0_T_S9_S8_, symObjAddr: 0x1A80C, symBinAddr: 0x10001E600, symSize: 0x4B0 }
  - { offsetInCU: 0x75DD, offset: 0xF0A2, size: 0x8, addend: 0x0, symName: __ZNSt3__16__moveB8ue170006INS_17_ClassicAlgPolicyENS_16reverse_iteratorIPN3glm3vecILi3EfLNS3_9qualifierE0EEEEES8_S8_EENS_4pairIT0_T2_EESA_T1_SB_, symObjAddr: 0x1ACBC, symBinAddr: 0x10001EAB0, symSize: 0x424 }
  - { offsetInCU: 0x7655, offset: 0xF11A, size: 0x8, addend: 0x0, symName: __ZNSt3__123__dispatch_copy_or_moveB8ue170006INS_17_ClassicAlgPolicyENS_11__move_loopIS1_EENS_14__move_trivialENS_16reverse_iteratorIPN3glm3vecILi3EfLNS6_9qualifierE0EEEEESB_SB_EENS_4pairIT2_T4_EESD_T3_SE_, symObjAddr: 0x1B0E0, symBinAddr: 0x10001EED4, symSize: 0x424 }
  - { offsetInCU: 0x76DF, offset: 0xF1A4, size: 0x8, addend: 0x0, symName: __ZNSt3__121__unwrap_and_dispatchB8ue170006INS_10__overloadINS_11__move_loopINS_17_ClassicAlgPolicyEEENS_14__move_trivialEEENS_16reverse_iteratorIPN3glm3vecILi3EfLNS8_9qualifierE0EEEEESD_SD_Li0EEENS_4pairIT0_T2_EESF_T1_SG_, symObjAddr: 0x1B504, symBinAddr: 0x10001F2F8, symSize: 0x880 }
  - { offsetInCU: 0x7784, offset: 0xF249, size: 0x8, addend: 0x0, symName: __ZNSt3__114__unwrap_rangeB8ue170006INS_16reverse_iteratorIPN3glm3vecILi3EfLNS2_9qualifierE0EEEEES7_EENS_4pairIT0_S9_EET_SB_, symObjAddr: 0x1BD84, symBinAddr: 0x10001FB78, symSize: 0x448 }
  - { offsetInCU: 0x7907, offset: 0xF3CC, size: 0x8, addend: 0x0, symName: __ZNSt3__113__unwrap_iterB8ue170006INS_16reverse_iteratorIPN3glm3vecILi3EfLNS2_9qualifierE0EEEEENS_18__unwrap_iter_implIS7_Lb0EEELi0EEEDTclsrT0_8__unwrapclsr3stdE7declvalIT_EEEESB_, symObjAddr: 0x1C510, symBinAddr: 0x100020304, symSize: 0x2EC }
  - { offsetInCU: 0x7950, offset: 0xF415, size: 0x8, addend: 0x0, symName: __ZNSt3__19make_pairB8ue170006INS_16reverse_iteratorIPN3glm3vecILi3EfLNS2_9qualifierE0EEEEES7_EENS_4pairINS_18__unwrap_ref_decayIT_E4typeENS9_IT0_E4typeEEEOSA_OSD_, symObjAddr: 0x1C7FC, symBinAddr: 0x1000205F0, symSize: 0x38 }
  - { offsetInCU: 0x799F, offset: 0xF464, size: 0x8, addend: 0x0, symName: __ZNSt3__114__rewrap_rangeB8ue170006INS_16reverse_iteratorIPN3glm3vecILi3EfLNS2_9qualifierE0EEEEES7_EET_S8_T0_, symObjAddr: 0x1C834, symBinAddr: 0x100020628, symSize: 0x3D4 }
  - { offsetInCU: 0x79F3, offset: 0xF4B8, size: 0x8, addend: 0x0, symName: __ZNSt3__113__rewrap_iterB8ue170006INS_16reverse_iteratorIPN3glm3vecILi3EfLNS2_9qualifierE0EEEEES7_NS_18__unwrap_iter_implIS7_Lb0EEEEET_SA_T0_, symObjAddr: 0x1CC08, symBinAddr: 0x1000209FC, symSize: 0x3E8 }
  - { offsetInCU: 0x7A50, offset: 0xF515, size: 0x8, addend: 0x0, symName: __ZNSt3__1neB8ue170006IPN3glm3vecILi3EfLNS1_9qualifierE0EEES5_EEbRKNS_16reverse_iteratorIT_EERKNS6_IT0_EE, symObjAddr: 0x1CFF0, symBinAddr: 0x100020DE4, symSize: 0x48 }
  - { offsetInCU: 0x7D53, offset: 0xF818, size: 0x8, addend: 0x0, symName: __ZSt28__throw_bad_array_new_lengthB8ue170006v, symObjAddr: 0x19C54, symBinAddr: 0x10001DA48, symSize: 0x38 }
  - { offsetInCU: 0x82D4, offset: 0xFD99, size: 0x8, addend: 0x0, symName: __ZNSt3__16vectorIN3glm3vecILi3EfLNS1_9qualifierE0EEENS_9allocatorIS4_EEE26__swap_out_circular_bufferERNS_14__split_bufferIS4_RS6_EE, symObjAddr: 0x17C54, symBinAddr: 0x10001BA48, symSize: 0x56C }
  - { offsetInCU: 0xA343, offset: 0x11E08, size: 0x8, addend: 0x0, symName: __ZN17PerspectiveCameraC2Efff, symObjAddr: 0x0, symBinAddr: 0x100003DF4, symSize: 0x970 }
  - { offsetInCU: 0xA39C, offset: 0x11E61, size: 0x8, addend: 0x0, symName: __ZN3glm3matILi4ELi4EfLNS_9qualifierE0EEC1ERKf, symObjAddr: 0x970, symBinAddr: 0x100004764, symSize: 0x34 }
  - { offsetInCU: 0xA3D4, offset: 0x11E99, size: 0x8, addend: 0x0, symName: __ZN3glm3vecILi3EfLNS_9qualifierE0EEC1Efff, symObjAddr: 0x9A4, symBinAddr: 0x100004798, symSize: 0x44 }
  - { offsetInCU: 0xA429, offset: 0x11EEE, size: 0x8, addend: 0x0, symName: __ZNSt3__16vectorIN3glm3vecILi3EfLNS1_9qualifierE0EEENS_9allocatorIS4_EEEC1B8ue170006Ev, symObjAddr: 0x9E8, symBinAddr: 0x1000047DC, symSize: 0x2C }
  - { offsetInCU: 0xA451, offset: 0x11F16, size: 0x8, addend: 0x0, symName: __ZN3glm3vecILi2EfLNS_9qualifierE0EEC1Eff, symObjAddr: 0xA14, symBinAddr: 0x100004808, symSize: 0x3C }
  - { offsetInCU: 0xA498, offset: 0x11F5D, size: 0x8, addend: 0x0, symName: __ZNSt3__16vectorIN3glm3vecILi3EfLNS1_9qualifierE0EEENS_9allocatorIS4_EEED1B8ue170006Ev, symObjAddr: 0xA50, symBinAddr: 0x100004844, symSize: 0x2C }
  - { offsetInCU: 0xA4C0, offset: 0x11F85, size: 0x8, addend: 0x0, symName: __ZN17PerspectiveCameraC1Efff, symObjAddr: 0xA7C, symBinAddr: 0x100004870, symSize: 0x44 }
  - { offsetInCU: 0xA515, offset: 0x11FDA, size: 0x8, addend: 0x0, symName: __ZN17PerspectiveCamera6UpdateEv, symObjAddr: 0xAC0, symBinAddr: 0x1000048B4, symSize: 0x1AE0 }
  - { offsetInCU: 0xA53C, offset: 0x12001, size: 0x8, addend: 0x0, symName: __ZN2WR4Core4Time12GetDeltaTimeEv, symObjAddr: 0x2990, symBinAddr: 0x100006784, symSize: 0xC }
  - { offsetInCU: 0xA550, offset: 0x12015, size: 0x8, addend: 0x0, symName: __ZN3glm3vecILi3EfLNS_9qualifierE0EEpLIfEERS2_RKNS0_ILi3ET_LS1_0EEE, symObjAddr: 0x299C, symBinAddr: 0x100006790, symSize: 0x2C0 }
  - { offsetInCU: 0xA58D, offset: 0x12052, size: 0x8, addend: 0x0, symName: __ZN3glm3vecILi3EfLNS_9qualifierE0EEmIIfEERS2_RKNS0_ILi3ET_LS1_0EEE, symObjAddr: 0x2C5C, symBinAddr: 0x100006A50, symSize: 0x2C0 }
  - { offsetInCU: 0xA5CC, offset: 0x12091, size: 0x8, addend: 0x0, symName: __ZN17PerspectiveCamera6ResizeEjj, symObjAddr: 0x2F1C, symBinAddr: 0x100006D10, symSize: 0x224 }
  - { offsetInCU: 0xA60E, offset: 0x120D3, size: 0x8, addend: 0x0, symName: __ZN17PerspectiveCamera21RecalculateProjectionEv, symObjAddr: 0x3140, symBinAddr: 0x100006F34, symSize: 0x424 }
  - { offsetInCU: 0xA635, offset: 0x120FA, size: 0x8, addend: 0x0, symName: __ZN17PerspectiveCamera24RecalculateRayDirectionsEv, symObjAddr: 0x3564, symBinAddr: 0x100007358, symSize: 0x1038 }
  - { offsetInCU: 0xA6D5, offset: 0x1219A, size: 0x8, addend: 0x0, symName: __ZN17PerspectiveCamera16GetRotationSpeedEv, symObjAddr: 0x459C, symBinAddr: 0x100008390, symSize: 0x8C }
  - { offsetInCU: 0xA6FB, offset: 0x121C0, size: 0x8, addend: 0x0, symName: __ZN17PerspectiveCamera15RecalculateViewEv, symObjAddr: 0x4688, symBinAddr: 0x10000847C, symSize: 0x42C }
  - { offsetInCU: 0xA721, offset: 0x121E6, size: 0x8, addend: 0x0, symName: __ZNSt3__16vectorIN3glm3vecILi3EfLNS1_9qualifierE0EEENS_9allocatorIS4_EEE6resizeEm, symObjAddr: 0x503C, symBinAddr: 0x100008E30, symSize: 0xDC }
  - { offsetInCU: 0xA766, offset: 0x1222B, size: 0x8, addend: 0x0, symName: __ZN3glm3vecILi4EfLNS_9qualifierE0EEC1IffiiEET_T0_T1_T2_, symObjAddr: 0x69A8, symBinAddr: 0x10000A79C, symSize: 0x4C }
  - { offsetInCU: 0xA7ED, offset: 0x122B2, size: 0x8, addend: 0x0, symName: __ZN3glm3vecILi3EfLNS_9qualifierE0EEC1IfLS1_0EEERKNS0_ILi4ET_XT0_EEE, symObjAddr: 0x71AC, symBinAddr: 0x10000AFA0, symSize: 0x34 }
  - { offsetInCU: 0xA839, offset: 0x122FE, size: 0x8, addend: 0x0, symName: __ZN3glm3vecILi4EfLNS_9qualifierE0EEC1IfiLS1_0EEERKNS0_ILi3ET_XT1_EEET0_, symObjAddr: 0x71E0, symBinAddr: 0x10000AFD4, symSize: 0x3C }
  - { offsetInCU: 0xA89C, offset: 0x12361, size: 0x8, addend: 0x0, symName: __ZNSt3__16vectorIN3glm3vecILi3EfLNS1_9qualifierE0EEENS_9allocatorIS4_EEEixB8ue170006Em, symObjAddr: 0x721C, symBinAddr: 0x10000B010, symSize: 0x74 }
  - { offsetInCU: 0xA8D2, offset: 0x12397, size: 0x8, addend: 0x0, symName: __ZN3glm3matILi4ELi4EfLNS_9qualifierE0EEC2ERKf, symObjAddr: 0x7290, symBinAddr: 0x10000B084, symSize: 0x23C }
  - { offsetInCU: 0xA90A, offset: 0x123CF, size: 0x8, addend: 0x0, symName: __ZN3glm3vecILi4EfLNS_9qualifierE0EEC1IfiiiEET_T0_T1_T2_, symObjAddr: 0x74CC, symBinAddr: 0x10000B2C0, symSize: 0x4C }
  - { offsetInCU: 0xA991, offset: 0x12456, size: 0x8, addend: 0x0, symName: __ZN3glm3vecILi4EfLNS_9qualifierE0EEC1IifiiEET_T0_T1_T2_, symObjAddr: 0x7518, symBinAddr: 0x10000B30C, symSize: 0x4C }
  - { offsetInCU: 0xAA18, offset: 0x124DD, size: 0x8, addend: 0x0, symName: __ZN3glm3vecILi4EfLNS_9qualifierE0EEC1IiifiEET_T0_T1_T2_, symObjAddr: 0x7564, symBinAddr: 0x10000B358, symSize: 0x4C }
  - { offsetInCU: 0xAA9F, offset: 0x12564, size: 0x8, addend: 0x0, symName: __ZN3glm3vecILi4EfLNS_9qualifierE0EEC1IiiifEET_T0_T1_T2_, symObjAddr: 0x75B0, symBinAddr: 0x10000B3A4, symSize: 0x4C }
  - { offsetInCU: 0xAB26, offset: 0x125EB, size: 0x8, addend: 0x0, symName: __ZN3glm3vecILi4EfLNS_9qualifierE0EEC2IfiiiEET_T0_T1_T2_, symObjAddr: 0x75FC, symBinAddr: 0x10000B3F0, symSize: 0x1F8 }
  - { offsetInCU: 0xABAD, offset: 0x12672, size: 0x8, addend: 0x0, symName: __ZN3glm3vecILi4EfLNS_9qualifierE0EEC2IifiiEET_T0_T1_T2_, symObjAddr: 0x77F4, symBinAddr: 0x10000B5E8, symSize: 0x1F8 }
  - { offsetInCU: 0xAC34, offset: 0x126F9, size: 0x8, addend: 0x0, symName: __ZN3glm3vecILi4EfLNS_9qualifierE0EEC2IiifiEET_T0_T1_T2_, symObjAddr: 0x79EC, symBinAddr: 0x10000B7E0, symSize: 0x1F8 }
  - { offsetInCU: 0xACBB, offset: 0x12780, size: 0x8, addend: 0x0, symName: __ZN3glm3vecILi4EfLNS_9qualifierE0EEC2IiiifEET_T0_T1_T2_, symObjAddr: 0x7BE4, symBinAddr: 0x10000B9D8, symSize: 0x1F8 }
  - { offsetInCU: 0xAD42, offset: 0x12807, size: 0x8, addend: 0x0, symName: __ZN3glm3vecILi3EfLNS_9qualifierE0EEC2Efff, symObjAddr: 0x7DDC, symBinAddr: 0x10000BBD0, symSize: 0x17C }
  - { offsetInCU: 0xAD97, offset: 0x1285C, size: 0x8, addend: 0x0, symName: __ZN3glm3vecILi2EfLNS_9qualifierE0EEC2Eff, symObjAddr: 0x7F58, symBinAddr: 0x10000BD4C, symSize: 0x10C }
  - { offsetInCU: 0xADDE, offset: 0x128A3, size: 0x8, addend: 0x0, symName: __ZN3glm3vecILi4EfLNS_9qualifierE0EEC2IffiiEET_T0_T1_T2_, symObjAddr: 0x8064, symBinAddr: 0x10000BE58, symSize: 0x1F4 }
  - { offsetInCU: 0xAE65, offset: 0x1292A, size: 0x8, addend: 0x0, symName: __ZN3glm3vecILi3EfLNS_9qualifierE0EEC2IfLS1_0EEERKNS0_ILi4ET_XT0_EEE, symObjAddr: 0x8258, symBinAddr: 0x10000C04C, symSize: 0x2B0 }
  - { offsetInCU: 0xAEB1, offset: 0x12976, size: 0x8, addend: 0x0, symName: __ZN3glm3vecILi4EfLNS_9qualifierE0EEC2IfiLS1_0EEERKNS0_ILi3ET_XT1_EEET0_, symObjAddr: 0x8508, symBinAddr: 0x10000C2FC, symSize: 0x324 }
  - { offsetInCU: 0xAF15, offset: 0x129DA, size: 0x8, addend: 0x0, symName: __ZNSt3__16vectorIN3glm3vecILi3EfLNS1_9qualifierE0EEENS_9allocatorIS4_EEEC2B8ue170006Ev, symObjAddr: 0x882C, symBinAddr: 0x10000C620, symSize: 0x2E8 }
  - { offsetInCU: 0xAF48, offset: 0x12A0D, size: 0x8, addend: 0x0, symName: __ZNSt3__117__compressed_pairIPN3glm3vecILi3EfLNS1_9qualifierE0EEENS_9allocatorIS4_EEEC1B8ue170006IDnNS_18__default_init_tagEEEOT_OT0_, symObjAddr: 0x8B14, symBinAddr: 0x10000C908, symSize: 0x3C }
  - { offsetInCU: 0xAF9E, offset: 0x12A63, size: 0x8, addend: 0x0, symName: __ZNSt3__117__compressed_pairIPN3glm3vecILi3EfLNS1_9qualifierE0EEENS_9allocatorIS4_EEEC2B8ue170006IDnNS_18__default_init_tagEEEOT_OT0_, symObjAddr: 0x8B5C, symBinAddr: 0x10000C950, symSize: 0x40 }
  - { offsetInCU: 0xAFF4, offset: 0x12AB9, size: 0x8, addend: 0x0, symName: __ZNSt3__122__compressed_pair_elemIPN3glm3vecILi3EfLNS1_9qualifierE0EEELi0ELb0EEC2B8ue170006IDnvEEOT_, symObjAddr: 0x8B9C, symBinAddr: 0x10000C990, symSize: 0x64 }
  - { offsetInCU: 0xB034, offset: 0x12AF9, size: 0x8, addend: 0x0, symName: __ZNSt3__122__compressed_pair_elemINS_9allocatorIN3glm3vecILi3EfLNS2_9qualifierE0EEEEELi1ELb1EEC2B8ue170006ENS_18__default_init_tagE, symObjAddr: 0x8C00, symBinAddr: 0x10000C9F4, symSize: 0x2C }
  - { offsetInCU: 0xB067, offset: 0x12B2C, size: 0x8, addend: 0x0, symName: __ZNSt3__19allocatorIN3glm3vecILi3EfLNS1_9qualifierE0EEEEC2B8ue170006Ev, symObjAddr: 0x8C2C, symBinAddr: 0x10000CA20, symSize: 0x2C }
  - { offsetInCU: 0xB08F, offset: 0x12B54, size: 0x8, addend: 0x0, symName: __ZNSt3__116__non_trivial_ifILb1ENS_9allocatorIN3glm3vecILi3EfLNS2_9qualifierE0EEEEEEC2B8ue170006Ev, symObjAddr: 0x8C58, symBinAddr: 0x10000CA4C, symSize: 0x14 }
  - { offsetInCU: 0xB0B8, offset: 0x12B7D, size: 0x8, addend: 0x0, symName: __ZNSt3__16vectorIN3glm3vecILi3EfLNS1_9qualifierE0EEENS_9allocatorIS4_EEED2B8ue170006Ev, symObjAddr: 0x8C6C, symBinAddr: 0x10000CA60, symSize: 0x1F8 }
  - { offsetInCU: 0xB0E1, offset: 0x12BA6, size: 0x8, addend: 0x0, symName: __ZNSt3__16vectorIN3glm3vecILi3EfLNS1_9qualifierE0EEENS_9allocatorIS4_EEE16__destroy_vectorC1B8ue170006ERS7_, symObjAddr: 0x8E64, symBinAddr: 0x10000CC58, symSize: 0x34 }
  - { offsetInCU: 0xB118, offset: 0x12BDD, size: 0x8, addend: 0x0, symName: __ZNSt3__16vectorIN3glm3vecILi3EfLNS1_9qualifierE0EEENS_9allocatorIS4_EEE16__destroy_vectorclB8ue170006Ev, symObjAddr: 0x8E98, symBinAddr: 0x10000CC8C, symSize: 0x228 }
  - { offsetInCU: 0xB13C, offset: 0x12C01, size: 0x8, addend: 0x0, symName: __ZNSt3__16vectorIN3glm3vecILi3EfLNS1_9qualifierE0EEENS_9allocatorIS4_EEE16__destroy_vectorC2B8ue170006ERS7_, symObjAddr: 0x90C0, symBinAddr: 0x10000CEB4, symSize: 0x70 }
  - { offsetInCU: 0xB173, offset: 0x12C38, size: 0x8, addend: 0x0, symName: __ZNSt3__16vectorIN3glm3vecILi3EfLNS1_9qualifierE0EEENS_9allocatorIS4_EEE7__clearB8ue170006Ev, symObjAddr: 0x9130, symBinAddr: 0x10000CF24, symSize: 0x64 }
  - { offsetInCU: 0xB197, offset: 0x12C5C, size: 0x8, addend: 0x0, symName: __ZNKSt3__16vectorIN3glm3vecILi3EfLNS1_9qualifierE0EEENS_9allocatorIS4_EEE17__annotate_deleteB8ue170006Ev, symObjAddr: 0x9194, symBinAddr: 0x10000CF88, symSize: 0xE8 }
  - { offsetInCU: 0xB1BB, offset: 0x12C80, size: 0x8, addend: 0x0, symName: __ZNSt3__116allocator_traitsINS_9allocatorIN3glm3vecILi3EfLNS2_9qualifierE0EEEEEE10deallocateB8ue170006ERS6_PS5_m, symObjAddr: 0x927C, symBinAddr: 0x10000D070, symSize: 0x34 }
  - { offsetInCU: 0xB1FD, offset: 0x12CC2, size: 0x8, addend: 0x0, symName: __ZNSt3__16vectorIN3glm3vecILi3EfLNS1_9qualifierE0EEENS_9allocatorIS4_EEE7__allocB8ue170006Ev, symObjAddr: 0x92B0, symBinAddr: 0x10000D0A4, symSize: 0x28 }
  - { offsetInCU: 0xB221, offset: 0x12CE6, size: 0x8, addend: 0x0, symName: __ZNKSt3__16vectorIN3glm3vecILi3EfLNS1_9qualifierE0EEENS_9allocatorIS4_EEE8capacityB8ue170006Ev, symObjAddr: 0x92D8, symBinAddr: 0x10000D0CC, symSize: 0xBC }
  - { offsetInCU: 0xB245, offset: 0x12D0A, size: 0x8, addend: 0x0, symName: __ZNSt3__16vectorIN3glm3vecILi3EfLNS1_9qualifierE0EEENS_9allocatorIS4_EEE22__base_destruct_at_endB8ue170006EPS4_, symObjAddr: 0x9394, symBinAddr: 0x10000D188, symSize: 0x114 }
  - { offsetInCU: 0xB287, offset: 0x12D4C, size: 0x8, addend: 0x0, symName: __ZNSt3__116allocator_traitsINS_9allocatorIN3glm3vecILi3EfLNS2_9qualifierE0EEEEEE7destroyB8ue170006IS5_vEEvRS6_PT_, symObjAddr: 0x94A8, symBinAddr: 0x10000D29C, symSize: 0x2C }
  - { offsetInCU: 0xB2C4, offset: 0x12D89, size: 0x8, addend: 0x0, symName: __ZNSt3__19allocatorIN3glm3vecILi3EfLNS1_9qualifierE0EEEE7destroyB8ue170006EPS4_, symObjAddr: 0x94E8, symBinAddr: 0x10000D2DC, symSize: 0x14 }
  - { offsetInCU: 0xB2F6, offset: 0x12DBB, size: 0x8, addend: 0x0, symName: __ZNKSt3__16vectorIN3glm3vecILi3EfLNS1_9qualifierE0EEENS_9allocatorIS4_EEE31__annotate_contiguous_containerEPKvS9_S9_S9_, symObjAddr: 0x94FC, symBinAddr: 0x10000D2F0, symSize: 0x58 }
  - { offsetInCU: 0xB356, offset: 0x12E1B, size: 0x8, addend: 0x0, symName: __ZNKSt3__16vectorIN3glm3vecILi3EfLNS1_9qualifierE0EEENS_9allocatorIS4_EEE4dataB8ue170006Ev, symObjAddr: 0x9554, symBinAddr: 0x10000D348, symSize: 0x64 }
  - { offsetInCU: 0xB37A, offset: 0x12E3F, size: 0x8, addend: 0x0, symName: __ZNKSt3__16vectorIN3glm3vecILi3EfLNS1_9qualifierE0EEENS_9allocatorIS4_EEE4sizeB8ue170006Ev, symObjAddr: 0x95B8, symBinAddr: 0x10000D3AC, symSize: 0xB0 }
  - { offsetInCU: 0xB39E, offset: 0x12E63, size: 0x8, addend: 0x0, symName: __ZNSt3__19allocatorIN3glm3vecILi3EfLNS1_9qualifierE0EEEE10deallocateB8ue170006EPS4_m, symObjAddr: 0x9668, symBinAddr: 0x10000D45C, symSize: 0x50 }
  - { offsetInCU: 0xB3DE, offset: 0x12EA3, size: 0x8, addend: 0x0, symName: __ZNSt3__117__compressed_pairIPN3glm3vecILi3EfLNS1_9qualifierE0EEENS_9allocatorIS4_EEE6secondB8ue170006Ev, symObjAddr: 0x97E0, symBinAddr: 0x10000D5D4, symSize: 0x24 }
  - { offsetInCU: 0xB402, offset: 0x12EC7, size: 0x8, addend: 0x0, symName: __ZNSt3__122__compressed_pair_elemINS_9allocatorIN3glm3vecILi3EfLNS2_9qualifierE0EEEEELi1ELb1EE5__getB8ue170006Ev, symObjAddr: 0x9804, symBinAddr: 0x10000D5F8, symSize: 0x14 }
  - { offsetInCU: 0xB426, offset: 0x12EEB, size: 0x8, addend: 0x0, symName: __ZNKSt3__16vectorIN3glm3vecILi3EfLNS1_9qualifierE0EEENS_9allocatorIS4_EEE9__end_capB8ue170006Ev, symObjAddr: 0x9818, symBinAddr: 0x10000D60C, symSize: 0x28 }
  - { offsetInCU: 0xB44A, offset: 0x12F0F, size: 0x8, addend: 0x0, symName: __ZNKSt3__117__compressed_pairIPN3glm3vecILi3EfLNS1_9qualifierE0EEENS_9allocatorIS4_EEE5firstB8ue170006Ev, symObjAddr: 0x9840, symBinAddr: 0x10000D634, symSize: 0x24 }
  - { offsetInCU: 0xB46E, offset: 0x12F33, size: 0x8, addend: 0x0, symName: __ZNKSt3__122__compressed_pair_elemIPN3glm3vecILi3EfLNS1_9qualifierE0EEELi0ELb0EE5__getB8ue170006Ev, symObjAddr: 0x9864, symBinAddr: 0x10000D658, symSize: 0x14 }
  - { offsetInCU: 0xB492, offset: 0x12F57, size: 0x8, addend: 0x0, symName: __ZNSt3__114numeric_limitsIfE7epsilonB8ue170006Ev, symObjAddr: 0x9C28, symBinAddr: 0x10000DA1C, symSize: 0x14 }
  - { offsetInCU: 0xB4A4, offset: 0x12F69, size: 0x8, addend: 0x0, symName: __Z3tanB8ue170006f, symObjAddr: 0x9C3C, symBinAddr: 0x10000DA30, symSize: 0x24 }
  - { offsetInCU: 0xB4D3, offset: 0x12F98, size: 0x8, addend: 0x0, symName: __ZN3glm3matILi4ELi4EfLNS_9qualifierE0EEixEi, symObjAddr: 0x9C60, symBinAddr: 0x10000DA54, symSize: 0x7C }
  - { offsetInCU: 0xB509, offset: 0x12FCE, size: 0x8, addend: 0x0, symName: __ZN3glm3vecILi4EfLNS_9qualifierE0EEixEi, symObjAddr: 0x9CDC, symBinAddr: 0x10000DAD0, symSize: 0x110 }
  - { offsetInCU: 0xB53F, offset: 0x13004, size: 0x8, addend: 0x0, symName: __ZN3glm6detail11compute_absIfLb1EE4callEf, symObjAddr: 0x9DFC, symBinAddr: 0x10000DBF0, symSize: 0x44 }
  - { offsetInCU: 0xB562, offset: 0x13027, size: 0x8, addend: 0x0, symName: __ZNSt3__123__libcpp_numeric_limitsIfLb1EE7epsilonB8ue170006Ev, symObjAddr: 0x9E40, symBinAddr: 0x10000DC34, symSize: 0x8 }
  - { offsetInCU: 0xB576, offset: 0x1303B, size: 0x8, addend: 0x0, symName: __ZN3glm3matILi4ELi4EfLNS_9qualifierE0EE6lengthEv, symObjAddr: 0x9E48, symBinAddr: 0x10000DC3C, symSize: 0x8 }
  - { offsetInCU: 0xB58A, offset: 0x1304F, size: 0x8, addend: 0x0, symName: __ZN3glm3vecILi4EfLNS_9qualifierE0EE6lengthEv, symObjAddr: 0x9E50, symBinAddr: 0x10000DC44, symSize: 0x8 }
  - { offsetInCU: 0xB59E, offset: 0x13063, size: 0x8, addend: 0x0, symName: __ZN3glm6detail13compute_crossIfLNS_9qualifierE0ELb0EE4callERKNS_3vecILi3EfLS2_0EEES7_, symObjAddr: 0xBB98, symBinAddr: 0x10000F98C, symSize: 0x7D4 }
  - { offsetInCU: 0xB5D1, offset: 0x13096, size: 0x8, addend: 0x0, symName: __ZN3glm6detail11compute_dotINS_3vecILi3EfLNS_9qualifierE0EEEfLb0EE4callERKS4_S7_, symObjAddr: 0xC36C, symBinAddr: 0x100010160, symSize: 0x450 }
  - { offsetInCU: 0xB616, offset: 0x130DB, size: 0x8, addend: 0x0, symName: __ZN3glm6detail15compute_inverseILi4ELi4EfLNS_9qualifierE0ELb0EE4callERKNS_3matILi4ELi4EfLS2_0EEE, symObjAddr: 0xCCEC, symBinAddr: 0x100010AE0, symSize: 0x60B4 }
  - { offsetInCU: 0xB8F8, offset: 0x133BD, size: 0x8, addend: 0x0, symName: __ZNK3glm3matILi4ELi4EfLNS_9qualifierE0EEixEi, symObjAddr: 0x12DA0, symBinAddr: 0x100016B94, symSize: 0x7C }
  - { offsetInCU: 0xB92E, offset: 0x133F3, size: 0x8, addend: 0x0, symName: __ZNK3glm3vecILi4EfLNS_9qualifierE0EEixEi, symObjAddr: 0x12E1C, symBinAddr: 0x100016C10, symSize: 0x110 }
  - { offsetInCU: 0xB964, offset: 0x13429, size: 0x8, addend: 0x0, symName: __ZN3glm3vecILi4EfLNS_9qualifierE0EEC1Effff, symObjAddr: 0x12F3C, symBinAddr: 0x100016D30, symSize: 0x4C }
  - { offsetInCU: 0xB9C7, offset: 0x1348C, size: 0x8, addend: 0x0, symName: __ZN3glm3matILi4ELi4EfLNS_9qualifierE0EEC1ERKNS_3vecILi4EfLS1_0EEES6_S6_S6_, symObjAddr: 0x138D0, symBinAddr: 0x1000176C4, symSize: 0x4C }
  - { offsetInCU: 0xBA2A, offset: 0x134EF, size: 0x8, addend: 0x0, symName: __ZN3glm3vecILi4EfLNS_9qualifierE0EEC2Effff, symObjAddr: 0x1427C, symBinAddr: 0x100018070, symSize: 0x1EC }
  - { offsetInCU: 0xBA8D, offset: 0x13552, size: 0x8, addend: 0x0, symName: __ZN3glm3vecILi4EfLNS_9qualifierE0EEpLIfEERS2_RKNS0_ILi4ET_LS1_0EEE, symObjAddr: 0x14468, symBinAddr: 0x10001825C, symSize: 0x3DC }
  - { offsetInCU: 0xBACF, offset: 0x13594, size: 0x8, addend: 0x0, symName: __ZN3glm6detail16compute_vec4_addIfLNS_9qualifierE0ELb0EE4callERKNS_3vecILi4EfLS2_0EEES7_, symObjAddr: 0x14844, symBinAddr: 0x100018638, symSize: 0x620 }
  - { offsetInCU: 0xBB02, offset: 0x135C7, size: 0x8, addend: 0x0, symName: __ZN3glm3vecILi4EfLNS_9qualifierE0EEmIIfEERS2_RKNS0_ILi4ET_LS1_0EEE, symObjAddr: 0x14E64, symBinAddr: 0x100018C58, symSize: 0x3DC }
  - { offsetInCU: 0xBB44, offset: 0x13609, size: 0x8, addend: 0x0, symName: __ZN3glm6detail16compute_vec4_subIfLNS_9qualifierE0ELb0EE4callERKNS_3vecILi4EfLS2_0EEES7_, symObjAddr: 0x15240, symBinAddr: 0x100019034, symSize: 0x620 }
  - { offsetInCU: 0xBB77, offset: 0x1363C, size: 0x8, addend: 0x0, symName: __ZN3glm3vecILi4EfLNS_9qualifierE0EEmLIfEERS2_RKNS0_ILi4ET_LS1_0EEE, symObjAddr: 0x15860, symBinAddr: 0x100019654, symSize: 0x3DC }
  - { offsetInCU: 0xBBB9, offset: 0x1367E, size: 0x8, addend: 0x0, symName: __ZN3glm6detail16compute_vec4_mulIfLNS_9qualifierE0ELb0EE4callERKNS_3vecILi4EfLS2_0EEES7_, symObjAddr: 0x15C3C, symBinAddr: 0x100019A30, symSize: 0x620 }
  - { offsetInCU: 0xBBEC, offset: 0x136B1, size: 0x8, addend: 0x0, symName: __ZN3glm3matILi4ELi4EfLNS_9qualifierE0EEC2ERKNS_3vecILi4EfLS1_0EEES6_S6_S6_, symObjAddr: 0x1625C, symBinAddr: 0x10001A050, symSize: 0x84 }
  - { offsetInCU: 0xBC4F, offset: 0x13714, size: 0x8, addend: 0x0, symName: __ZN3glm3vecILi4EfLNS_9qualifierE0EEmLIfEERS2_T_, symObjAddr: 0x1665C, symBinAddr: 0x10001A450, symSize: 0x3D8 }
  - { offsetInCU: 0xBC91, offset: 0x13756, size: 0x8, addend: 0x0, symName: __ZN3glm3vecILi4EfLNS_9qualifierE0EEC1Ef, symObjAddr: 0x16A34, symBinAddr: 0x10001A828, symSize: 0x34 }
  - { offsetInCU: 0xBCCA, offset: 0x1378F, size: 0x8, addend: 0x0, symName: __ZN3glm3vecILi4EfLNS_9qualifierE0EEC2Ef, symObjAddr: 0x16A68, symBinAddr: 0x10001A85C, symSize: 0x1E0 }
  - { offsetInCU: 0xBD02, offset: 0x137C7, size: 0x8, addend: 0x0, symName: __ZNSt3__16vectorIN3glm3vecILi3EfLNS1_9qualifierE0EEENS_9allocatorIS4_EEE8__appendEm, symObjAddr: 0x16C48, symBinAddr: 0x10001AA3C, symSize: 0x3F0 }
  - { offsetInCU: 0xBD64, offset: 0x13829, size: 0x8, addend: 0x0, symName: __ZNSt3__16vectorIN3glm3vecILi3EfLNS1_9qualifierE0EEENS_9allocatorIS4_EEE17__destruct_at_endB8ue170006EPS4_, symObjAddr: 0x17038, symBinAddr: 0x10001AE2C, symSize: 0x4C }
  - { offsetInCU: 0xBDA6, offset: 0x1386B, size: 0x8, addend: 0x0, symName: __ZNSt3__16vectorIN3glm3vecILi3EfLNS1_9qualifierE0EEENS_9allocatorIS4_EEE9__end_capB8ue170006Ev, symObjAddr: 0x17084, symBinAddr: 0x10001AE78, symSize: 0x28 }
  - { offsetInCU: 0xBDC9, offset: 0x1388E, size: 0x8, addend: 0x0, symName: __ZNSt3__16vectorIN3glm3vecILi3EfLNS1_9qualifierE0EEENS_9allocatorIS4_EEE18__construct_at_endEm, symObjAddr: 0x170AC, symBinAddr: 0x10001AEA0, symSize: 0x3E4 }
  - { offsetInCU: 0xBE41, offset: 0x13906, size: 0x8, addend: 0x0, symName: __ZNKSt3__16vectorIN3glm3vecILi3EfLNS1_9qualifierE0EEENS_9allocatorIS4_EEE11__recommendB8ue170006Em, symObjAddr: 0x17490, symBinAddr: 0x10001B284, symSize: 0x384 }
  - { offsetInCU: 0xBE9C, offset: 0x13961, size: 0x8, addend: 0x0, symName: __ZNSt3__114__split_bufferIN3glm3vecILi3EfLNS1_9qualifierE0EEERNS_9allocatorIS4_EEEC1EmmS7_, symObjAddr: 0x17814, symBinAddr: 0x10001B608, symSize: 0x44 }
  - { offsetInCU: 0xBEF0, offset: 0x139B5, size: 0x8, addend: 0x0, symName: __ZNSt3__114__split_bufferIN3glm3vecILi3EfLNS1_9qualifierE0EEERNS_9allocatorIS4_EEE18__construct_at_endEm, symObjAddr: 0x17858, symBinAddr: 0x10001B64C, symSize: 0x3FC }
  - { offsetInCU: 0xBF3A, offset: 0x139FF, size: 0x8, addend: 0x0, symName: __ZNSt3__114__split_bufferIN3glm3vecILi3EfLNS1_9qualifierE0EEERNS_9allocatorIS4_EEED1Ev, symObjAddr: 0x181C0, symBinAddr: 0x10001BFB4, symSize: 0x2C }
  - { offsetInCU: 0xBF65, offset: 0x13A2A, size: 0x8, addend: 0x0, symName: __ZNSt3__117__compressed_pairIPN3glm3vecILi3EfLNS1_9qualifierE0EEENS_9allocatorIS4_EEE5firstB8ue170006Ev, symObjAddr: 0x181EC, symBinAddr: 0x10001BFE0, symSize: 0x24 }
  - { offsetInCU: 0xBF89, offset: 0x13A4E, size: 0x8, addend: 0x0, symName: __ZNSt3__122__compressed_pair_elemIPN3glm3vecILi3EfLNS1_9qualifierE0EEELi0ELb0EE5__getB8ue170006Ev, symObjAddr: 0x18210, symBinAddr: 0x10001C004, symSize: 0x14 }
  - { offsetInCU: 0xBFC6, offset: 0x13A8B, size: 0x8, addend: 0x0, symName: __ZNSt3__16vectorIN3glm3vecILi3EfLNS1_9qualifierE0EEENS_9allocatorIS4_EEE21_ConstructTransactionC1B8ue170006ERS7_m, symObjAddr: 0x18224, symBinAddr: 0x10001C018, symSize: 0x3C }
  - { offsetInCU: 0xC00C, offset: 0x13AD1, size: 0x8, addend: 0x0, symName: __ZNSt3__116allocator_traitsINS_9allocatorIN3glm3vecILi3EfLNS2_9qualifierE0EEEEEE9constructB8ue170006IS5_JEvEEvRS6_PT_DpOT0_, symObjAddr: 0x18260, symBinAddr: 0x10001C054, symSize: 0x2C }
  - { offsetInCU: 0xC04E, offset: 0x13B13, size: 0x8, addend: 0x0, symName: __ZNSt3__16vectorIN3glm3vecILi3EfLNS1_9qualifierE0EEENS_9allocatorIS4_EEE21_ConstructTransactionD1B8ue170006Ev, symObjAddr: 0x1828C, symBinAddr: 0x10001C080, symSize: 0x2C }
  - { offsetInCU: 0xC076, offset: 0x13B3B, size: 0x8, addend: 0x0, symName: __ZNSt3__16vectorIN3glm3vecILi3EfLNS1_9qualifierE0EEENS_9allocatorIS4_EEE21_ConstructTransactionC2B8ue170006ERS7_m, symObjAddr: 0x182B8, symBinAddr: 0x10001C0AC, symSize: 0x1D8 }
  - { offsetInCU: 0xC0BC, offset: 0x13B81, size: 0x8, addend: 0x0, symName: __ZNKSt3__16vectorIN3glm3vecILi3EfLNS1_9qualifierE0EEENS_9allocatorIS4_EEE19__annotate_increaseB8ue170006Em, symObjAddr: 0x18490, symBinAddr: 0x10001C284, symSize: 0xF8 }
  - { offsetInCU: 0xC0EF, offset: 0x13BB4, size: 0x8, addend: 0x0, symName: __ZNSt3__19allocatorIN3glm3vecILi3EfLNS1_9qualifierE0EEEE9constructB8ue170006IS4_JEEEvPT_DpOT0_, symObjAddr: 0x18588, symBinAddr: 0x10001C37C, symSize: 0x30 }
  - { offsetInCU: 0xC12F, offset: 0x13BF4, size: 0x8, addend: 0x0, symName: __ZNSt3__16vectorIN3glm3vecILi3EfLNS1_9qualifierE0EEENS_9allocatorIS4_EEE21_ConstructTransactionD2B8ue170006Ev, symObjAddr: 0x185B8, symBinAddr: 0x10001C3AC, symSize: 0x278 }
  - { offsetInCU: 0xC157, offset: 0x13C1C, size: 0x8, addend: 0x0, symName: __ZNKSt3__16vectorIN3glm3vecILi3EfLNS1_9qualifierE0EEENS_9allocatorIS4_EEE17__annotate_shrinkB8ue170006Em, symObjAddr: 0x18830, symBinAddr: 0x10001C624, symSize: 0xE4 }
  - { offsetInCU: 0xC189, offset: 0x13C4E, size: 0x8, addend: 0x0, symName: __ZNKSt3__16vectorIN3glm3vecILi3EfLNS1_9qualifierE0EEENS_9allocatorIS4_EEE8max_sizeEv, symObjAddr: 0x18914, symBinAddr: 0x10001C708, symSize: 0x2FC }
  - { offsetInCU: 0xC1B1, offset: 0x13C76, size: 0x8, addend: 0x0, symName: __ZNKSt3__16vectorIN3glm3vecILi3EfLNS1_9qualifierE0EEENS_9allocatorIS4_EEE20__throw_length_errorB8ue170006Ev, symObjAddr: 0x18C10, symBinAddr: 0x10001CA04, symSize: 0x20 }
  - { offsetInCU: 0xC1DF, offset: 0x13CA4, size: 0x8, addend: 0x0, symName: __ZNSt3__116allocator_traitsINS_9allocatorIN3glm3vecILi3EfLNS2_9qualifierE0EEEEEE8max_sizeB8ue170006IS6_vEEmRKS6_, symObjAddr: 0x18C88, symBinAddr: 0x10001CA7C, symSize: 0x24 }
  - { offsetInCU: 0xC20D, offset: 0x13CD2, size: 0x8, addend: 0x0, symName: __ZNKSt3__16vectorIN3glm3vecILi3EfLNS1_9qualifierE0EEENS_9allocatorIS4_EEE7__allocB8ue170006Ev, symObjAddr: 0x18CAC, symBinAddr: 0x10001CAA0, symSize: 0x28 }
  - { offsetInCU: 0xC231, offset: 0x13CF6, size: 0x8, addend: 0x0, symName: __ZNSt3__114numeric_limitsIlE3maxB8ue170006Ev, symObjAddr: 0x18CD4, symBinAddr: 0x10001CAC8, symSize: 0x14 }
  - { offsetInCU: 0xC258, offset: 0x13D1D, size: 0x8, addend: 0x0, symName: __ZNKSt3__16__lessIvvEclB8ue170006ImmEEbRKT_RKT0_, symObjAddr: 0x18ED0, symBinAddr: 0x10001CCC4, symSize: 0xBC }
  - { offsetInCU: 0xC2AA, offset: 0x13D6F, size: 0x8, addend: 0x0, symName: __ZNKSt3__19allocatorIN3glm3vecILi3EfLNS1_9qualifierE0EEEE8max_sizeB8ue170006Ev, symObjAddr: 0x18F8C, symBinAddr: 0x10001CD80, symSize: 0x18 }
  - { offsetInCU: 0xC2CE, offset: 0x13D93, size: 0x8, addend: 0x0, symName: __ZNKSt3__117__compressed_pairIPN3glm3vecILi3EfLNS1_9qualifierE0EEENS_9allocatorIS4_EEE6secondB8ue170006Ev, symObjAddr: 0x18FA4, symBinAddr: 0x10001CD98, symSize: 0x24 }
  - { offsetInCU: 0xC2F2, offset: 0x13DB7, size: 0x8, addend: 0x0, symName: __ZNKSt3__122__compressed_pair_elemINS_9allocatorIN3glm3vecILi3EfLNS2_9qualifierE0EEEEELi1ELb1EE5__getB8ue170006Ev, symObjAddr: 0x18FC8, symBinAddr: 0x10001CDBC, symSize: 0x14 }
  - { offsetInCU: 0xC316, offset: 0x13DDB, size: 0x8, addend: 0x0, symName: __ZNSt3__123__libcpp_numeric_limitsIlLb1EE3maxB8ue170006Ev, symObjAddr: 0x18FDC, symBinAddr: 0x10001CDD0, symSize: 0x8 }
  - { offsetInCU: 0xC32A, offset: 0x13DEF, size: 0x8, addend: 0x0, symName: __ZNSt12length_errorC1B8ue170006EPKc, symObjAddr: 0x1904C, symBinAddr: 0x10001CE40, symSize: 0x34 }
  - { offsetInCU: 0xC360, offset: 0x13E25, size: 0x8, addend: 0x0, symName: __ZNSt12length_errorC2B8ue170006EPKc, symObjAddr: 0x19080, symBinAddr: 0x10001CE74, symSize: 0x8C }
  - { offsetInCU: 0xC396, offset: 0x13E5B, size: 0x8, addend: 0x0, symName: __ZNSt3__114__split_bufferIN3glm3vecILi3EfLNS1_9qualifierE0EEERNS_9allocatorIS4_EEEC2EmmS7_, symObjAddr: 0x192F4, symBinAddr: 0x10001D0E8, symSize: 0x530 }
  - { offsetInCU: 0xC410, offset: 0x13ED5, size: 0x8, addend: 0x0, symName: __ZNSt3__117__compressed_pairIPN3glm3vecILi3EfLNS1_9qualifierE0EEERNS_9allocatorIS4_EEEC1B8ue170006IDnS8_EEOT_OT0_, symObjAddr: 0x19824, symBinAddr: 0x10001D618, symSize: 0x3C }
  - { offsetInCU: 0xC466, offset: 0x13F2B, size: 0x8, addend: 0x0, symName: __ZNSt3__114__split_bufferIN3glm3vecILi3EfLNS1_9qualifierE0EEERNS_9allocatorIS4_EEE7__allocB8ue170006Ev, symObjAddr: 0x19AEC, symBinAddr: 0x10001D8E0, symSize: 0x28 }
  - { offsetInCU: 0xC48A, offset: 0x13F4F, size: 0x8, addend: 0x0, symName: __ZNSt3__114__split_bufferIN3glm3vecILi3EfLNS1_9qualifierE0EEERNS_9allocatorIS4_EEE9__end_capB8ue170006Ev, symObjAddr: 0x19B14, symBinAddr: 0x10001D908, symSize: 0x28 }
  - { offsetInCU: 0xC4AE, offset: 0x13F73, size: 0x8, addend: 0x0, symName: __ZNSt3__117__compressed_pairIPN3glm3vecILi3EfLNS1_9qualifierE0EEERNS_9allocatorIS4_EEEC2B8ue170006IDnS8_EEOT_OT0_, symObjAddr: 0x19B3C, symBinAddr: 0x10001D930, symSize: 0x48 }
  - { offsetInCU: 0xC504, offset: 0x13FC9, size: 0x8, addend: 0x0, symName: __ZNSt3__122__compressed_pair_elemIRNS_9allocatorIN3glm3vecILi3EfLNS2_9qualifierE0EEEEELi1ELb0EEC2B8ue170006IS7_vEEOT_, symObjAddr: 0x19B84, symBinAddr: 0x10001D978, symSize: 0x70 }
  - { offsetInCU: 0xC544, offset: 0x14009, size: 0x8, addend: 0x0, symName: __ZNSt3__19allocatorIN3glm3vecILi3EfLNS1_9qualifierE0EEEE8allocateB8ue170006Em, symObjAddr: 0x19BF4, symBinAddr: 0x10001D9E8, symSize: 0x60 }
  - { offsetInCU: 0xC576, offset: 0x1403B, size: 0x8, addend: 0x0, symName: __ZNSt3__117__compressed_pairIPN3glm3vecILi3EfLNS1_9qualifierE0EEERNS_9allocatorIS4_EEE6secondB8ue170006Ev, symObjAddr: 0x19D3C, symBinAddr: 0x10001DB30, symSize: 0x28 }
  - { offsetInCU: 0xC59A, offset: 0x1405F, size: 0x8, addend: 0x0, symName: __ZNSt3__122__compressed_pair_elemIRNS_9allocatorIN3glm3vecILi3EfLNS2_9qualifierE0EEEEELi1ELb0EE5__getB8ue170006Ev, symObjAddr: 0x19D64, symBinAddr: 0x10001DB58, symSize: 0x60 }
  - { offsetInCU: 0xC5BE, offset: 0x14083, size: 0x8, addend: 0x0, symName: __ZNSt3__117__compressed_pairIPN3glm3vecILi3EfLNS1_9qualifierE0EEERNS_9allocatorIS4_EEE5firstB8ue170006Ev, symObjAddr: 0x19DC4, symBinAddr: 0x10001DBB8, symSize: 0x24 }
  - { offsetInCU: 0xC5EC, offset: 0x140B1, size: 0x8, addend: 0x0, symName: __ZNSt3__114__split_bufferIN3glm3vecILi3EfLNS1_9qualifierE0EEERNS_9allocatorIS4_EEE21_ConstructTransactionC1B8ue170006EPPS4_m, symObjAddr: 0x19DE8, symBinAddr: 0x10001DBDC, symSize: 0x3C }
  - { offsetInCU: 0xC630, offset: 0x140F5, size: 0x8, addend: 0x0, symName: __ZNSt3__114__split_bufferIN3glm3vecILi3EfLNS1_9qualifierE0EEERNS_9allocatorIS4_EEE21_ConstructTransactionD1B8ue170006Ev, symObjAddr: 0x19E24, symBinAddr: 0x10001DC18, symSize: 0x2C }
  - { offsetInCU: 0xC658, offset: 0x1411D, size: 0x8, addend: 0x0, symName: __ZNSt3__114__split_bufferIN3glm3vecILi3EfLNS1_9qualifierE0EEERNS_9allocatorIS4_EEE21_ConstructTransactionC2B8ue170006EPPS4_m, symObjAddr: 0x19E50, symBinAddr: 0x10001DC44, symSize: 0x18C }
  - { offsetInCU: 0xC69C, offset: 0x14161, size: 0x8, addend: 0x0, symName: __ZNSt3__114__split_bufferIN3glm3vecILi3EfLNS1_9qualifierE0EEERNS_9allocatorIS4_EEE21_ConstructTransactionD2B8ue170006Ev, symObjAddr: 0x19FDC, symBinAddr: 0x10001DDD0, symSize: 0xE0 }
  - { offsetInCU: 0xC6C4, offset: 0x14189, size: 0x8, addend: 0x0, symName: __ZNSt3__116reverse_iteratorIPN3glm3vecILi3EfLNS1_9qualifierE0EEEEC1B8ue170006ES5_, symObjAddr: 0x1A564, symBinAddr: 0x10001E358, symSize: 0x34 }
  - { offsetInCU: 0xC6FA, offset: 0x141BF, size: 0x8, addend: 0x0, symName: __ZNKSt3__116reverse_iteratorIPN3glm3vecILi3EfLNS1_9qualifierE0EEEE4baseB8ue170006Ev, symObjAddr: 0x1A598, symBinAddr: 0x10001E38C, symSize: 0x64 }
  - { offsetInCU: 0xC71E, offset: 0x141E3, size: 0x8, addend: 0x0, symName: __ZNKSt3__16vectorIN3glm3vecILi3EfLNS1_9qualifierE0EEENS_9allocatorIS4_EEE14__annotate_newB8ue170006Em, symObjAddr: 0x1A730, symBinAddr: 0x10001E524, symSize: 0xDC }
  - { offsetInCU: 0xC774, offset: 0x14239, size: 0x8, addend: 0x0, symName: __ZNKSt3__111__move_loopINS_17_ClassicAlgPolicyEEclB8ue170006INS_16reverse_iteratorIPN3glm3vecILi3EfLNS5_9qualifierE0EEEEESA_SA_EENS_4pairIT_T1_EESC_T0_SD_, symObjAddr: 0x1C1CC, symBinAddr: 0x10001FFC0, symSize: 0x344 }
  - { offsetInCU: 0xC7EF, offset: 0x142B4, size: 0x8, addend: 0x0, symName: __ZNSt3__18_IterOpsINS_17_ClassicAlgPolicyEE11__iter_moveB8ue170006IRNS_16reverse_iteratorIPN3glm3vecILi3EfLNS5_9qualifierE0EEEEEEENS_9enable_ifIXsr12is_referenceIDTdeclsr3stdE7declvalIRT_EEEEE5valueEDTclsr3stdE4movedeclsr3stdE7declvalISE_EEEEE4typeEOSD_, symObjAddr: 0x1D038, symBinAddr: 0x100020E2C, symSize: 0x28 }
  - { offsetInCU: 0xC81B, offset: 0x142E0, size: 0x8, addend: 0x0, symName: __ZNKSt3__116reverse_iteratorIPN3glm3vecILi3EfLNS1_9qualifierE0EEEEdeB8ue170006Ev, symObjAddr: 0x1D060, symBinAddr: 0x100020E54, symSize: 0x74 }
  - { offsetInCU: 0xC84D, offset: 0x14312, size: 0x8, addend: 0x0, symName: __ZNSt3__116reverse_iteratorIPN3glm3vecILi3EfLNS1_9qualifierE0EEEEppB8ue170006Ev, symObjAddr: 0x1D0D4, symBinAddr: 0x100020EC8, symSize: 0x6C }
  - { offsetInCU: 0xC871, offset: 0x14336, size: 0x8, addend: 0x0, symName: __ZNSt3__18_IterOpsINS_17_ClassicAlgPolicyEE25__validate_iter_referenceB8ue170006IRNS_16reverse_iteratorIPN3glm3vecILi3EfLNS5_9qualifierE0EEEEEEEvv, symObjAddr: 0x1D140, symBinAddr: 0x100020F34, symSize: 0x4 }
  - { offsetInCU: 0xC88F, offset: 0x14354, size: 0x8, addend: 0x0, symName: __ZNSt3__118__unwrap_iter_implINS_16reverse_iteratorIPN3glm3vecILi3EfLNS2_9qualifierE0EEEEELb0EE8__unwrapB8ue170006ES7_, symObjAddr: 0x1D144, symBinAddr: 0x100020F38, symSize: 0x274 }
  - { offsetInCU: 0xC8BB, offset: 0x14380, size: 0x8, addend: 0x0, symName: __ZNSt3__14pairINS_16reverse_iteratorIPN3glm3vecILi3EfLNS2_9qualifierE0EEEEES7_EC1B8ue170006IS7_S7_LPv0EEEOT_OT0_, symObjAddr: 0x1D3B8, symBinAddr: 0x1000211AC, symSize: 0x3C }
  - { offsetInCU: 0xC917, offset: 0x143DC, size: 0x8, addend: 0x0, symName: __ZNSt3__14pairINS_16reverse_iteratorIPN3glm3vecILi3EfLNS2_9qualifierE0EEEEES7_EC2B8ue170006IS7_S7_LPv0EEEOT_OT0_, symObjAddr: 0x1D3F4, symBinAddr: 0x1000211E8, symSize: 0x54 }
  - { offsetInCU: 0xC973, offset: 0x14438, size: 0x8, addend: 0x0, symName: __ZNSt3__118__unwrap_iter_implINS_16reverse_iteratorIPN3glm3vecILi3EfLNS2_9qualifierE0EEEEELb0EE8__rewrapB8ue170006ES7_S7_, symObjAddr: 0x1D448, symBinAddr: 0x10002123C, symSize: 0x2E0 }
  - { offsetInCU: 0xC9A9, offset: 0x1446E, size: 0x8, addend: 0x0, symName: __ZNSt3__116reverse_iteratorIPN3glm3vecILi3EfLNS1_9qualifierE0EEEEC2B8ue170006ES5_, symObjAddr: 0x1D728, symBinAddr: 0x10002151C, symSize: 0xB8 }
  - { offsetInCU: 0xC9DF, offset: 0x144A4, size: 0x8, addend: 0x0, symName: __ZNSt3__114__split_bufferIN3glm3vecILi3EfLNS1_9qualifierE0EEERNS_9allocatorIS4_EEED2Ev, symObjAddr: 0x1D7E0, symBinAddr: 0x1000215D4, symSize: 0x104 }
  - { offsetInCU: 0xCA0A, offset: 0x144CF, size: 0x8, addend: 0x0, symName: __ZNSt3__114__split_bufferIN3glm3vecILi3EfLNS1_9qualifierE0EEERNS_9allocatorIS4_EEE5clearB8ue170006Ev, symObjAddr: 0x1D8E4, symBinAddr: 0x1000216D8, symSize: 0x68 }
  - { offsetInCU: 0xCA2E, offset: 0x144F3, size: 0x8, addend: 0x0, symName: __ZNKSt3__114__split_bufferIN3glm3vecILi3EfLNS1_9qualifierE0EEERNS_9allocatorIS4_EEE8capacityB8ue170006Ev, symObjAddr: 0x1D94C, symBinAddr: 0x100021740, symSize: 0xBC }
  - { offsetInCU: 0xCA52, offset: 0x14517, size: 0x8, addend: 0x0, symName: __ZNSt3__114__split_bufferIN3glm3vecILi3EfLNS1_9qualifierE0EEERNS_9allocatorIS4_EEE17__destruct_at_endB8ue170006EPS4_, symObjAddr: 0x1DA08, symBinAddr: 0x1000217FC, symSize: 0x2C }
  - { offsetInCU: 0xCA83, offset: 0x14548, size: 0x8, addend: 0x0, symName: __ZNSt3__114__split_bufferIN3glm3vecILi3EfLNS1_9qualifierE0EEERNS_9allocatorIS4_EEE17__destruct_at_endB8ue170006EPS4_NS_17integral_constantIbLb0EEE, symObjAddr: 0x1DA34, symBinAddr: 0x100021828, symSize: 0x10C }
  - { offsetInCU: 0xCAC3, offset: 0x14588, size: 0x8, addend: 0x0, symName: __ZNKSt3__114__split_bufferIN3glm3vecILi3EfLNS1_9qualifierE0EEERNS_9allocatorIS4_EEE9__end_capB8ue170006Ev, symObjAddr: 0x1DB40, symBinAddr: 0x100021934, symSize: 0x28 }
  - { offsetInCU: 0xCAE7, offset: 0x145AC, size: 0x8, addend: 0x0, symName: __ZNKSt3__117__compressed_pairIPN3glm3vecILi3EfLNS1_9qualifierE0EEERNS_9allocatorIS4_EEE5firstB8ue170006Ev, symObjAddr: 0x1DB68, symBinAddr: 0x10002195C, symSize: 0x24 }
  - { offsetInCU: 0xCB0B, offset: 0x145D0, size: 0x8, addend: 0x0, symName: __ZN3glm6detail17compute_normalizeILi3EfLNS_9qualifierE0ELb0EE4callERKNS_3vecILi3EfLS2_0EEE, symObjAddr: 0x1DB8C, symBinAddr: 0x100021980, symSize: 0x3E0 }
  - { offsetInCU: 0xCB2E, offset: 0x145F3, size: 0x8, addend: 0x0, symName: __Z4sqrtB8ue170006f, symObjAddr: 0x1DF9C, symBinAddr: 0x100021D90, symSize: 0x18 }
  - { offsetInCU: 0x39, offset: 0x146F6, size: 0x8, addend: 0x0, symName: __ZN2WR4Core4Time14m_currentFrameE, symObjAddr: 0x3AD80, symBinAddr: 0x10060E660, symSize: 0x0 }
  - { offsetInCU: 0x58, offset: 0x14715, size: 0x8, addend: 0x0, symName: __ZN2WR4Core4Time15m_previousFrameE, symObjAddr: 0x3ADA0, symBinAddr: 0x10060E680, symSize: 0x0 }
  - { offsetInCU: 0x6B, offset: 0x14728, size: 0x8, addend: 0x0, symName: __ZN2WR4Core4Time11m_deltaTimeE, symObjAddr: 0x3ADC0, symBinAddr: 0x10060E6A0, symSize: 0x0 }
  - { offsetInCU: 0x84, offset: 0x14741, size: 0x8, addend: 0x0, symName: _square_vertices, symObjAddr: 0x3ADE0, symBinAddr: 0x10060E6C0, symSize: 0x0 }
  - { offsetInCU: 0x33DC, offset: 0x17A99, size: 0x8, addend: 0x0, symName: __ZNSt3__122__make_exception_guardB8ue170006INS_6vectorIfNS_9allocatorIfEEE16__destroy_vectorEEENS_28__exception_guard_exceptionsIT_EES7_, symObjAddr: 0x15F4, symBinAddr: 0x10002312C, symSize: 0x278 }
  - { offsetInCU: 0x3415, offset: 0x17AD2, size: 0x8, addend: 0x0, symName: __ZNSt3__119__allocate_at_leastB8ue170006INS_9allocatorIfEEEENS_19__allocation_resultINS_16allocator_traitsIT_E7pointerEEERS5_m, symObjAddr: 0x2B9C, symBinAddr: 0x1000246D4, symSize: 0x28C }
  - { offsetInCU: 0x345A, offset: 0x17B17, size: 0x8, addend: 0x0, symName: __ZNSt3__112__to_addressB8ue170006IfEEPT_S2_, symObjAddr: 0x373C, symBinAddr: 0x100024D4C, symSize: 0x14 }
  - { offsetInCU: 0x348F, offset: 0x17B4C, size: 0x8, addend: 0x0, symName: __ZNSt3__130__uninitialized_allocator_copyB8ue170006INS_9allocatorIfEEPKfS4_PfEET2_RT_T0_T1_S6_, symObjAddr: 0x37EC, symBinAddr: 0x100024DFC, symSize: 0x2DC }
  - { offsetInCU: 0x3535, offset: 0x17BF2, size: 0x8, addend: 0x0, symName: __ZNSt3__114__unwrap_rangeB8ue170006IPKfS2_EENS_4pairIT0_S4_EET_S6_, symObjAddr: 0x3D9C, symBinAddr: 0x1000253AC, symSize: 0x350 }
  - { offsetInCU: 0x3583, offset: 0x17C40, size: 0x8, addend: 0x0, symName: __ZNSt3__135__uninitialized_allocator_copy_implB8ue170006INS_9allocatorIfEEKfffLPv0EEEPT2_RT_PT0_SA_S6_, symObjAddr: 0x40EC, symBinAddr: 0x1000256FC, symSize: 0x38 }
  - { offsetInCU: 0x3605, offset: 0x17CC2, size: 0x8, addend: 0x0, symName: __ZNSt3__113__unwrap_iterB8ue170006IPfNS_18__unwrap_iter_implIS1_Lb1EEELi0EEEDTclsrT0_8__unwrapclsr3stdE7declvalIT_EEEES5_, symObjAddr: 0x4124, symBinAddr: 0x100025734, symSize: 0x24 }
  - { offsetInCU: 0x364A, offset: 0x17D07, size: 0x8, addend: 0x0, symName: __ZNSt3__113__rewrap_iterB8ue170006IPfS1_NS_18__unwrap_iter_implIS1_Lb1EEEEET_S4_T0_, symObjAddr: 0x4148, symBinAddr: 0x100025758, symSize: 0x48 }
  - { offsetInCU: 0x369F, offset: 0x17D5C, size: 0x8, addend: 0x0, symName: __ZNSt3__19make_pairB8ue170006IPKfS2_EENS_4pairINS_18__unwrap_ref_decayIT_E4typeENS4_IT0_E4typeEEEOS5_OS8_, symObjAddr: 0x4190, symBinAddr: 0x1000257A0, symSize: 0x20C }
  - { offsetInCU: 0x36F0, offset: 0x17DAD, size: 0x8, addend: 0x0, symName: __ZNSt3__113__unwrap_iterB8ue170006IPKfNS_18__unwrap_iter_implIS2_Lb1EEELi0EEEDTclsrT0_8__unwrapclsr3stdE7declvalIT_EEEES6_, symObjAddr: 0x439C, symBinAddr: 0x1000259AC, symSize: 0x24 }
  - { offsetInCU: 0x385C, offset: 0x17F19, size: 0x8, addend: 0x0, symName: __ZNSt3__112__to_addressB8ue170006IKfEEPT_S3_, symObjAddr: 0x4558, symBinAddr: 0x100025B68, symSize: 0x14 }
  - { offsetInCU: 0x3891, offset: 0x17F4E, size: 0x8, addend: 0x0, symName: __ZNSt3__14copyB8ue170006IPKfPfEET0_T_S5_S4_, symObjAddr: 0x456C, symBinAddr: 0x100025B7C, symSize: 0x26C }
  - { offsetInCU: 0x38EE, offset: 0x17FAB, size: 0x8, addend: 0x0, symName: __ZNSt3__16__copyB8ue170006INS_17_ClassicAlgPolicyEPKfS3_PfEENS_4pairIT0_T2_EES6_T1_S7_, symObjAddr: 0x47D8, symBinAddr: 0x100025DE8, symSize: 0x22C }
  - { offsetInCU: 0x395D, offset: 0x1801A, size: 0x8, addend: 0x0, symName: __ZNSt3__123__dispatch_copy_or_moveB8ue170006INS_17_ClassicAlgPolicyENS_11__copy_loopIS1_EENS_14__copy_trivialEPKfS6_PfEENS_4pairIT2_T4_EES9_T3_SA_, symObjAddr: 0x4A04, symBinAddr: 0x100026014, symSize: 0x22C }
  - { offsetInCU: 0x39DE, offset: 0x1809B, size: 0x8, addend: 0x0, symName: __ZNSt3__121__unwrap_and_dispatchB8ue170006INS_10__overloadINS_11__copy_loopINS_17_ClassicAlgPolicyEEENS_14__copy_trivialEEEPKfS8_PfLi0EEENS_4pairIT0_T2_EESB_T1_SC_, symObjAddr: 0x4C30, symBinAddr: 0x100026240, symSize: 0x5A4 }
  - { offsetInCU: 0x3BC2, offset: 0x1827F, size: 0x8, addend: 0x0, symName: __ZNSt3__19make_pairB8ue170006IPKfPfEENS_4pairINS_18__unwrap_ref_decayIT_E4typeENS5_IT0_E4typeEEEOS6_OS9_, symObjAddr: 0x5404, symBinAddr: 0x100026A14, symSize: 0x20C }
  - { offsetInCU: 0x3C13, offset: 0x182D0, size: 0x8, addend: 0x0, symName: __ZNSt3__114__rewrap_rangeB8ue170006IPKfS2_EET_S3_T0_, symObjAddr: 0x5610, symBinAddr: 0x100026C20, symSize: 0x2C }
  - { offsetInCU: 0x3C5F, offset: 0x1831C, size: 0x8, addend: 0x0, symName: __ZNSt3__119__copy_trivial_implB8ue170006IKffEENS_4pairIPT_PT0_EES4_S4_S6_, symObjAddr: 0x563C, symBinAddr: 0x100026C4C, symSize: 0x3B4 }
  - { offsetInCU: 0x3CCE, offset: 0x1838B, size: 0x8, addend: 0x0, symName: __ZNSt3__119__constexpr_memmoveB8ue170006IfKfLi0EEEPT_S3_PT0_NS_15__element_countE, symObjAddr: 0x59F0, symBinAddr: 0x100027000, symSize: 0x64 }
  - { offsetInCU: 0x3D3D, offset: 0x183FA, size: 0x8, addend: 0x0, symName: __ZNSt3__19make_pairB8ue170006IRPKfPfEENS_4pairINS_18__unwrap_ref_decayIT_E4typeENS6_IT0_E4typeEEEOS7_OSA_, symObjAddr: 0x5A54, symBinAddr: 0x100027064, symSize: 0x20C }
  - { offsetInCU: 0x3D8E, offset: 0x1844B, size: 0x8, addend: 0x0, symName: __ZNSt3__113__rewrap_iterB8ue170006IPKfS2_NS_18__unwrap_iter_implIS2_Lb1EEEEET_S5_T0_, symObjAddr: 0x5F48, symBinAddr: 0x100027558, symSize: 0x48 }
  - { offsetInCU: 0x3E36, offset: 0x184F3, size: 0x8, addend: 0x0, symName: __ZNSt3__112__to_addressB8ue170006I6VertexEEPT_S3_, symObjAddr: 0x78F8, symBinAddr: 0x100028E00, symSize: 0x14 }
  - { offsetInCU: 0x3E6B, offset: 0x18528, size: 0x8, addend: 0x0, symName: __ZNSt3__119__allocate_at_leastB8ue170006INS_9allocatorI6VertexEEEENS_19__allocation_resultINS_16allocator_traitsIT_E7pointerEEERS6_m, symObjAddr: 0x9E38, symBinAddr: 0x10002B12C, symSize: 0x28C }
  - { offsetInCU: 0x3EB0, offset: 0x1856D, size: 0x8, addend: 0x0, symName: __ZNSt3__142__uninitialized_allocator_move_if_noexceptB8ue170006INS_9allocatorI6VertexEENS_16reverse_iteratorIPS2_EES6_S2_vEET1_RT_T0_SA_S7_, symObjAddr: 0xA2D4, symBinAddr: 0x10002B5C8, symSize: 0x4A8 }
  - { offsetInCU: 0x3F3B, offset: 0x185F8, size: 0x8, addend: 0x0, symName: __ZNSt3__14swapB8ue170006IP6VertexEENS_9enable_ifIXaasr21is_move_constructibleIT_EE5valuesr18is_move_assignableIS4_EE5valueEvE4typeERS4_S7_, symObjAddr: 0xA814, symBinAddr: 0x10002BB08, symSize: 0x134 }
  - { offsetInCU: 0x3F8C, offset: 0x18649, size: 0x8, addend: 0x0, symName: __ZNSt3__14moveB8ue170006INS_16reverse_iteratorIP6VertexEES4_EET0_T_S6_S5_, symObjAddr: 0xAA08, symBinAddr: 0x10002BCFC, symSize: 0x4B0 }
  - { offsetInCU: 0x3FF3, offset: 0x186B0, size: 0x8, addend: 0x0, symName: __ZNSt3__16__moveB8ue170006INS_17_ClassicAlgPolicyENS_16reverse_iteratorIP6VertexEES5_S5_EENS_4pairIT0_T2_EES7_T1_S8_, symObjAddr: 0xAEB8, symBinAddr: 0x10002C1AC, symSize: 0x424 }
  - { offsetInCU: 0x406B, offset: 0x18728, size: 0x8, addend: 0x0, symName: __ZNSt3__123__dispatch_copy_or_moveB8ue170006INS_17_ClassicAlgPolicyENS_11__move_loopIS1_EENS_14__move_trivialENS_16reverse_iteratorIP6VertexEES8_S8_EENS_4pairIT2_T4_EESA_T3_SB_, symObjAddr: 0xB2DC, symBinAddr: 0x10002C5D0, symSize: 0x424 }
  - { offsetInCU: 0x40F5, offset: 0x187B2, size: 0x8, addend: 0x0, symName: __ZNSt3__121__unwrap_and_dispatchB8ue170006INS_10__overloadINS_11__move_loopINS_17_ClassicAlgPolicyEEENS_14__move_trivialEEENS_16reverse_iteratorIP6VertexEESA_SA_Li0EEENS_4pairIT0_T2_EESC_T1_SD_, symObjAddr: 0xB700, symBinAddr: 0x10002C9F4, symSize: 0x880 }
  - { offsetInCU: 0x419A, offset: 0x18857, size: 0x8, addend: 0x0, symName: __ZNSt3__114__unwrap_rangeB8ue170006INS_16reverse_iteratorIP6VertexEES4_EENS_4pairIT0_S6_EET_S8_, symObjAddr: 0xBF80, symBinAddr: 0x10002D274, symSize: 0x448 }
  - { offsetInCU: 0x4314, offset: 0x189D1, size: 0x8, addend: 0x0, symName: __ZNSt3__113__unwrap_iterB8ue170006INS_16reverse_iteratorIP6VertexEENS_18__unwrap_iter_implIS4_Lb0EEELi0EEEDTclsrT0_8__unwrapclsr3stdE7declvalIT_EEEES8_, symObjAddr: 0xC70C, symBinAddr: 0x10002DA00, symSize: 0x2EC }
  - { offsetInCU: 0x435D, offset: 0x18A1A, size: 0x8, addend: 0x0, symName: __ZNSt3__19make_pairB8ue170006INS_16reverse_iteratorIP6VertexEES4_EENS_4pairINS_18__unwrap_ref_decayIT_E4typeENS6_IT0_E4typeEEEOS7_OSA_, symObjAddr: 0xC9F8, symBinAddr: 0x10002DCEC, symSize: 0x38 }
  - { offsetInCU: 0x43AC, offset: 0x18A69, size: 0x8, addend: 0x0, symName: __ZNSt3__114__rewrap_rangeB8ue170006INS_16reverse_iteratorIP6VertexEES4_EET_S5_T0_, symObjAddr: 0xCA30, symBinAddr: 0x10002DD24, symSize: 0x3D4 }
  - { offsetInCU: 0x4400, offset: 0x18ABD, size: 0x8, addend: 0x0, symName: __ZNSt3__113__rewrap_iterB8ue170006INS_16reverse_iteratorIP6VertexEES4_NS_18__unwrap_iter_implIS4_Lb0EEEEET_S7_T0_, symObjAddr: 0xCE04, symBinAddr: 0x10002E0F8, symSize: 0x3E8 }
  - { offsetInCU: 0x445D, offset: 0x18B1A, size: 0x8, addend: 0x0, symName: __ZNSt3__1neB8ue170006IP6VertexS2_EEbRKNS_16reverse_iteratorIT_EERKNS3_IT0_EE, symObjAddr: 0xD1EC, symBinAddr: 0x10002E4E0, symSize: 0x48 }
  - { offsetInCU: 0x4843, offset: 0x18F00, size: 0x8, addend: 0x0, symName: _cube_vertices, symObjAddr: 0x3AE20, symBinAddr: 0x10060E700, symSize: 0x0 }
  - { offsetInCU: 0x4859, offset: 0x18F16, size: 0x8, addend: 0x0, symName: _square_indices, symObjAddr: 0xEDC0, symBinAddr: 0x1005958E0, symSize: 0x0 }
  - { offsetInCU: 0x4886, offset: 0x18F43, size: 0x8, addend: 0x0, symName: _.str, symObjAddr: 0xEE00, symBinAddr: 0x1004F07A0, symSize: 0x0 }
  - { offsetInCU: 0x4AA4, offset: 0x19161, size: 0x8, addend: 0x0, symName: __ZNSt3__16vectorI6VertexNS_9allocatorIS1_EEE26__swap_out_circular_bufferERNS_14__split_bufferIS1_RS3_EE, symObjAddr: 0x8D7C, symBinAddr: 0x10002A284, symSize: 0x56C }
  - { offsetInCU: 0x689F, offset: 0x1AF5C, size: 0x8, addend: 0x0, symName: __ZNSt3__16vectorIfNS_9allocatorIfEEEC1B8ue170006ESt16initializer_listIfE, symObjAddr: 0x0, symBinAddr: 0x100021E40, symSize: 0x248 }
  - { offsetInCU: 0x68DF, offset: 0x1AF9C, size: 0x8, addend: 0x0, symName: __ZNSt3__16vectorIfNS_9allocatorIfEEED1B8ue170006Ev, symObjAddr: 0x248, symBinAddr: 0x100022088, symSize: 0x2C }
  - { offsetInCU: 0x6906, offset: 0x1AFC3, size: 0x8, addend: 0x0, symName: __Z19MakeVertexFromFloatNSt3__16vectorIfNS_9allocatorIfEEEE, symObjAddr: 0x274, symBinAddr: 0x1000220B4, symSize: 0x8C0 }
  - { offsetInCU: 0x697B, offset: 0x1B038, size: 0x8, addend: 0x0, symName: __ZNSt3__16vectorI6VertexNS_9allocatorIS1_EEEC1B8ue170006Ev, symObjAddr: 0xB34, symBinAddr: 0x100022974, symSize: 0x2C }
  - { offsetInCU: 0x69A3, offset: 0x1B060, size: 0x8, addend: 0x0, symName: __ZNKSt3__16vectorIfNS_9allocatorIfEEE4sizeB8ue170006Ev, symObjAddr: 0xB60, symBinAddr: 0x1000229A0, symSize: 0xB0 }
  - { offsetInCU: 0x69C6, offset: 0x1B083, size: 0x8, addend: 0x0, symName: __ZNSt3__16vectorIfNS_9allocatorIfEEEixB8ue170006Em, symObjAddr: 0xC10, symBinAddr: 0x100022A50, symSize: 0x6C }
  - { offsetInCU: 0x69FB, offset: 0x1B0B8, size: 0x8, addend: 0x0, symName: __ZNSt3__16vectorI6VertexNS_9allocatorIS1_EEE9push_backB8ue170006ERKS1_, symObjAddr: 0xCFC, symBinAddr: 0x100022ABC, symSize: 0xE0 }
  - { offsetInCU: 0x6A31, offset: 0x1B0EE, size: 0x8, addend: 0x0, symName: __ZNSt3__16vectorI6VertexNS_9allocatorIS1_EEED1B8ue170006Ev, symObjAddr: 0xDDC, symBinAddr: 0x100022B9C, symSize: 0x2C }
  - { offsetInCU: 0x6A58, offset: 0x1B115, size: 0x8, addend: 0x0, symName: __ZNSt3__16vectorIfNS_9allocatorIfEEEC2B8ue170006ESt16initializer_listIfE, symObjAddr: 0x1090, symBinAddr: 0x100022BC8, symSize: 0x528 }
  - { offsetInCU: 0x6ABC, offset: 0x1B179, size: 0x8, addend: 0x0, symName: __ZNSt3__117__compressed_pairIPfNS_9allocatorIfEEEC1B8ue170006IDnNS_18__default_init_tagEEEOT_OT0_, symObjAddr: 0x15B8, symBinAddr: 0x1000230F0, symSize: 0x3C }
  - { offsetInCU: 0x6B12, offset: 0x1B1CF, size: 0x8, addend: 0x0, symName: __ZNSt3__16vectorIfNS_9allocatorIfEEE16__destroy_vectorC1B8ue170006ERS3_, symObjAddr: 0x186C, symBinAddr: 0x1000233A4, symSize: 0x34 }
  - { offsetInCU: 0x6B49, offset: 0x1B206, size: 0x8, addend: 0x0, symName: __ZNKSt16initializer_listIfE4sizeB8ue170006Ev, symObjAddr: 0x18A0, symBinAddr: 0x1000233D8, symSize: 0x64 }
  - { offsetInCU: 0x6B6D, offset: 0x1B22A, size: 0x8, addend: 0x0, symName: __ZNSt3__16vectorIfNS_9allocatorIfEEE11__vallocateB8ue170006Em, symObjAddr: 0x1904, symBinAddr: 0x10002343C, symSize: 0x420 }
  - { offsetInCU: 0x6BB4, offset: 0x1B271, size: 0x8, addend: 0x0, symName: __ZNSt3__16vectorIfNS_9allocatorIfEEE18__construct_at_endIPKfS6_EEvT_T0_m, symObjAddr: 0x1D24, symBinAddr: 0x10002385C, symSize: 0x380 }
  - { offsetInCU: 0x6C31, offset: 0x1B2EE, size: 0x8, addend: 0x0, symName: __ZNKSt16initializer_listIfE5beginB8ue170006Ev, symObjAddr: 0x20A4, symBinAddr: 0x100023BDC, symSize: 0x60 }
  - { offsetInCU: 0x6C55, offset: 0x1B312, size: 0x8, addend: 0x0, symName: __ZNKSt16initializer_listIfE3endB8ue170006Ev, symObjAddr: 0x2104, symBinAddr: 0x100023C3C, symSize: 0xA8 }
  - { offsetInCU: 0x6C79, offset: 0x1B336, size: 0x8, addend: 0x0, symName: __ZNSt3__128__exception_guard_exceptionsINS_6vectorIfNS_9allocatorIfEEE16__destroy_vectorEE10__completeB8ue170006Ev, symObjAddr: 0x21AC, symBinAddr: 0x100023CE4, symSize: 0x8C }
  - { offsetInCU: 0x6C9D, offset: 0x1B35A, size: 0x8, addend: 0x0, symName: __ZNSt3__128__exception_guard_exceptionsINS_6vectorIfNS_9allocatorIfEEE16__destroy_vectorEED1B8ue170006Ev, symObjAddr: 0x2238, symBinAddr: 0x100023D70, symSize: 0x2C }
  - { offsetInCU: 0x6CC5, offset: 0x1B382, size: 0x8, addend: 0x0, symName: __ZNSt3__117__compressed_pairIPfNS_9allocatorIfEEEC2B8ue170006IDnNS_18__default_init_tagEEEOT_OT0_, symObjAddr: 0x2264, symBinAddr: 0x100023D9C, symSize: 0x40 }
  - { offsetInCU: 0x6D1B, offset: 0x1B3D8, size: 0x8, addend: 0x0, symName: __ZNSt3__122__compressed_pair_elemIPfLi0ELb0EEC2B8ue170006IDnvEEOT_, symObjAddr: 0x22A4, symBinAddr: 0x100023DDC, symSize: 0x64 }
  - { offsetInCU: 0x6D5B, offset: 0x1B418, size: 0x8, addend: 0x0, symName: __ZNSt3__122__compressed_pair_elemINS_9allocatorIfEELi1ELb1EEC2B8ue170006ENS_18__default_init_tagE, symObjAddr: 0x2308, symBinAddr: 0x100023E40, symSize: 0x2C }
  - { offsetInCU: 0x6D8E, offset: 0x1B44B, size: 0x8, addend: 0x0, symName: __ZNSt3__19allocatorIfEC2B8ue170006Ev, symObjAddr: 0x2334, symBinAddr: 0x100023E6C, symSize: 0x2C }
  - { offsetInCU: 0x6DB6, offset: 0x1B473, size: 0x8, addend: 0x0, symName: __ZNSt3__116__non_trivial_ifILb1ENS_9allocatorIfEEEC2B8ue170006Ev, symObjAddr: 0x2360, symBinAddr: 0x100023E98, symSize: 0x14 }
  - { offsetInCU: 0x6DDF, offset: 0x1B49C, size: 0x8, addend: 0x0, symName: __ZNSt3__128__exception_guard_exceptionsINS_6vectorIfNS_9allocatorIfEEE16__destroy_vectorEEC1B8ue170006ES5_, symObjAddr: 0x2374, symBinAddr: 0x100023EAC, symSize: 0x238 }
  - { offsetInCU: 0x6E1A, offset: 0x1B4D7, size: 0x8, addend: 0x0, symName: __ZNSt3__128__exception_guard_exceptionsINS_6vectorIfNS_9allocatorIfEEE16__destroy_vectorEEC2B8ue170006ES5_, symObjAddr: 0x25AC, symBinAddr: 0x1000240E4, symSize: 0x264 }
  - { offsetInCU: 0x6E55, offset: 0x1B512, size: 0x8, addend: 0x0, symName: __ZNSt3__16vectorIfNS_9allocatorIfEEE16__destroy_vectorC2B8ue170006ERS3_, symObjAddr: 0x2810, symBinAddr: 0x100024348, symSize: 0x70 }
  - { offsetInCU: 0x6E8B, offset: 0x1B548, size: 0x8, addend: 0x0, symName: __ZNKSt3__16vectorIfNS_9allocatorIfEEE8max_sizeEv, symObjAddr: 0x2880, symBinAddr: 0x1000243B8, symSize: 0x2FC }
  - { offsetInCU: 0x6EB3, offset: 0x1B570, size: 0x8, addend: 0x0, symName: __ZNKSt3__16vectorIfNS_9allocatorIfEEE20__throw_length_errorB8ue170006Ev, symObjAddr: 0x2B7C, symBinAddr: 0x1000246B4, symSize: 0x20 }
  - { offsetInCU: 0x6ED7, offset: 0x1B594, size: 0x8, addend: 0x0, symName: __ZNSt3__16vectorIfNS_9allocatorIfEEE7__allocB8ue170006Ev, symObjAddr: 0x2E28, symBinAddr: 0x100024960, symSize: 0x28 }
  - { offsetInCU: 0x6EFB, offset: 0x1B5B8, size: 0x8, addend: 0x0, symName: __ZNSt3__16vectorIfNS_9allocatorIfEEE9__end_capB8ue170006Ev, symObjAddr: 0x2E50, symBinAddr: 0x100024988, symSize: 0x28 }
  - { offsetInCU: 0x6F1F, offset: 0x1B5DC, size: 0x8, addend: 0x0, symName: __ZNKSt3__16vectorIfNS_9allocatorIfEEE14__annotate_newB8ue170006Em, symObjAddr: 0x2E78, symBinAddr: 0x1000249B0, symSize: 0xC0 }
  - { offsetInCU: 0x6F5C, offset: 0x1B619, size: 0x8, addend: 0x0, symName: __ZNSt3__116allocator_traitsINS_9allocatorIfEEE8max_sizeB8ue170006IS2_vEEmRKS2_, symObjAddr: 0x2F64, symBinAddr: 0x100024A70, symSize: 0x24 }
  - { offsetInCU: 0x6F8A, offset: 0x1B647, size: 0x8, addend: 0x0, symName: __ZNKSt3__16vectorIfNS_9allocatorIfEEE7__allocB8ue170006Ev, symObjAddr: 0x2F88, symBinAddr: 0x100024A94, symSize: 0x28 }
  - { offsetInCU: 0x6FAE, offset: 0x1B66B, size: 0x8, addend: 0x0, symName: __ZNKSt3__19allocatorIfE8max_sizeB8ue170006Ev, symObjAddr: 0x3274, symBinAddr: 0x100024ABC, symSize: 0x14 }
  - { offsetInCU: 0x6FD2, offset: 0x1B68F, size: 0x8, addend: 0x0, symName: __ZNKSt3__117__compressed_pairIPfNS_9allocatorIfEEE6secondB8ue170006Ev, symObjAddr: 0x3288, symBinAddr: 0x100024AD0, symSize: 0x24 }
  - { offsetInCU: 0x6FF6, offset: 0x1B6B3, size: 0x8, addend: 0x0, symName: __ZNKSt3__122__compressed_pair_elemINS_9allocatorIfEELi1ELb1EE5__getB8ue170006Ev, symObjAddr: 0x32AC, symBinAddr: 0x100024AF4, symSize: 0x14 }
  - { offsetInCU: 0x701A, offset: 0x1B6D7, size: 0x8, addend: 0x0, symName: __ZNSt3__19allocatorIfE8allocateB8ue170006Em, symObjAddr: 0x33F0, symBinAddr: 0x100024B08, symSize: 0x5C }
  - { offsetInCU: 0x704C, offset: 0x1B709, size: 0x8, addend: 0x0, symName: __ZNSt3__117__compressed_pairIPfNS_9allocatorIfEEE6secondB8ue170006Ev, symObjAddr: 0x3554, symBinAddr: 0x100024B64, symSize: 0x24 }
  - { offsetInCU: 0x7070, offset: 0x1B72D, size: 0x8, addend: 0x0, symName: __ZNSt3__122__compressed_pair_elemINS_9allocatorIfEELi1ELb1EE5__getB8ue170006Ev, symObjAddr: 0x3578, symBinAddr: 0x100024B88, symSize: 0x14 }
  - { offsetInCU: 0x7094, offset: 0x1B751, size: 0x8, addend: 0x0, symName: __ZNSt3__117__compressed_pairIPfNS_9allocatorIfEEE5firstB8ue170006Ev, symObjAddr: 0x358C, symBinAddr: 0x100024B9C, symSize: 0x24 }
  - { offsetInCU: 0x70B8, offset: 0x1B775, size: 0x8, addend: 0x0, symName: __ZNSt3__122__compressed_pair_elemIPfLi0ELb0EE5__getB8ue170006Ev, symObjAddr: 0x35B0, symBinAddr: 0x100024BC0, symSize: 0x14 }
  - { offsetInCU: 0x70DC, offset: 0x1B799, size: 0x8, addend: 0x0, symName: __ZNKSt3__16vectorIfNS_9allocatorIfEEE31__annotate_contiguous_containerEPKvS5_S5_S5_, symObjAddr: 0x35C4, symBinAddr: 0x100024BD4, symSize: 0x58 }
  - { offsetInCU: 0x713C, offset: 0x1B7F9, size: 0x8, addend: 0x0, symName: __ZNKSt3__16vectorIfNS_9allocatorIfEEE4dataB8ue170006Ev, symObjAddr: 0x361C, symBinAddr: 0x100024C2C, symSize: 0x64 }
  - { offsetInCU: 0x7160, offset: 0x1B81D, size: 0x8, addend: 0x0, symName: __ZNKSt3__16vectorIfNS_9allocatorIfEEE8capacityB8ue170006Ev, symObjAddr: 0x3680, symBinAddr: 0x100024C90, symSize: 0xBC }
  - { offsetInCU: 0x7184, offset: 0x1B841, size: 0x8, addend: 0x0, symName: __ZNKSt3__16vectorIfNS_9allocatorIfEEE9__end_capB8ue170006Ev, symObjAddr: 0x3750, symBinAddr: 0x100024D60, symSize: 0x28 }
  - { offsetInCU: 0x71A8, offset: 0x1B865, size: 0x8, addend: 0x0, symName: __ZNKSt3__117__compressed_pairIPfNS_9allocatorIfEEE5firstB8ue170006Ev, symObjAddr: 0x3778, symBinAddr: 0x100024D88, symSize: 0x24 }
  - { offsetInCU: 0x71CC, offset: 0x1B889, size: 0x8, addend: 0x0, symName: __ZNKSt3__122__compressed_pair_elemIPfLi0ELb0EE5__getB8ue170006Ev, symObjAddr: 0x379C, symBinAddr: 0x100024DAC, symSize: 0x14 }
  - { offsetInCU: 0x7209, offset: 0x1B8C6, size: 0x8, addend: 0x0, symName: __ZNSt3__16vectorIfNS_9allocatorIfEEE21_ConstructTransactionC1B8ue170006ERS3_m, symObjAddr: 0x37B0, symBinAddr: 0x100024DC0, symSize: 0x3C }
  - { offsetInCU: 0x724F, offset: 0x1B90C, size: 0x8, addend: 0x0, symName: __ZNSt3__16vectorIfNS_9allocatorIfEEE21_ConstructTransactionD1B8ue170006Ev, symObjAddr: 0x3AC8, symBinAddr: 0x1000250D8, symSize: 0x2C }
  - { offsetInCU: 0x7277, offset: 0x1B934, size: 0x8, addend: 0x0, symName: __ZNSt3__16vectorIfNS_9allocatorIfEEE21_ConstructTransactionC2B8ue170006ERS3_m, symObjAddr: 0x3AF4, symBinAddr: 0x100025104, symSize: 0x1D0 }
  - { offsetInCU: 0x72BD, offset: 0x1B97A, size: 0x8, addend: 0x0, symName: __ZNKSt3__16vectorIfNS_9allocatorIfEEE19__annotate_increaseB8ue170006Em, symObjAddr: 0x3CC4, symBinAddr: 0x1000252D4, symSize: 0xD8 }
  - { offsetInCU: 0x730E, offset: 0x1B9CB, size: 0x8, addend: 0x0, symName: __ZNSt3__14pairIPKfS2_EC1B8ue170006IS2_S2_LPv0EEEOT_OT0_, symObjAddr: 0x43C0, symBinAddr: 0x1000259D0, symSize: 0x3C }
  - { offsetInCU: 0x736A, offset: 0x1BA27, size: 0x8, addend: 0x0, symName: __ZNSt3__14pairIPKfS2_EC2B8ue170006IS2_S2_LPv0EEEOT_OT0_, symObjAddr: 0x43FC, symBinAddr: 0x100025A0C, symSize: 0x138 }
  - { offsetInCU: 0x73C6, offset: 0x1BA83, size: 0x8, addend: 0x0, symName: __ZNSt3__118__unwrap_iter_implIPKfLb1EE8__unwrapB8ue170006ES2_, symObjAddr: 0x4534, symBinAddr: 0x100025B44, symSize: 0x24 }
  - { offsetInCU: 0x740C, offset: 0x1BAC9, size: 0x8, addend: 0x0, symName: __ZNKSt3__114__copy_trivialclB8ue170006IKffLi0EEENS_4pairIPT_PT0_EES5_S5_S7_, symObjAddr: 0x51D4, symBinAddr: 0x1000267E4, symSize: 0x230 }
  - { offsetInCU: 0x7481, offset: 0x1BB3E, size: 0x8, addend: 0x0, symName: __ZNSt3__14pairIPKfPfEC1B8ue170006IRS2_S3_LPv0EEEOT_OT0_, symObjAddr: 0x5C60, symBinAddr: 0x100027270, symSize: 0x3C }
  - { offsetInCU: 0x74DD, offset: 0x1BB9A, size: 0x8, addend: 0x0, symName: __ZNSt3__14pairIPKfPfEC2B8ue170006IRS2_S3_LPv0EEEOT_OT0_, symObjAddr: 0x5C9C, symBinAddr: 0x1000272AC, symSize: 0x138 }
  - { offsetInCU: 0x7539, offset: 0x1BBF6, size: 0x8, addend: 0x0, symName: __ZNSt3__14pairIPKfPfEC1B8ue170006IS2_S3_LPv0EEEOT_OT0_, symObjAddr: 0x5DD4, symBinAddr: 0x1000273E4, symSize: 0x3C }
  - { offsetInCU: 0x7595, offset: 0x1BC52, size: 0x8, addend: 0x0, symName: __ZNSt3__14pairIPKfPfEC2B8ue170006IS2_S3_LPv0EEEOT_OT0_, symObjAddr: 0x5E10, symBinAddr: 0x100027420, symSize: 0x138 }
  - { offsetInCU: 0x75F1, offset: 0x1BCAE, size: 0x8, addend: 0x0, symName: __ZNSt3__118__unwrap_iter_implIPKfLb1EE8__rewrapB8ue170006ES2_S2_, symObjAddr: 0x5F90, symBinAddr: 0x1000275A0, symSize: 0x50 }
  - { offsetInCU: 0x7622, offset: 0x1BCDF, size: 0x8, addend: 0x0, symName: __ZNSt3__118__unwrap_iter_implIPfLb1EE8__unwrapB8ue170006ES1_, symObjAddr: 0x5FE0, symBinAddr: 0x1000275F0, symSize: 0x24 }
  - { offsetInCU: 0x7645, offset: 0x1BD02, size: 0x8, addend: 0x0, symName: __ZNSt3__118__unwrap_iter_implIPfLb1EE8__rewrapB8ue170006ES1_S1_, symObjAddr: 0x6004, symBinAddr: 0x100027614, symSize: 0x50 }
  - { offsetInCU: 0x7676, offset: 0x1BD33, size: 0x8, addend: 0x0, symName: __ZNSt3__16vectorIfNS_9allocatorIfEEE21_ConstructTransactionD2B8ue170006Ev, symObjAddr: 0x6054, symBinAddr: 0x100027664, symSize: 0x278 }
  - { offsetInCU: 0x769E, offset: 0x1BD5B, size: 0x8, addend: 0x0, symName: __ZNKSt3__16vectorIfNS_9allocatorIfEEE17__annotate_shrinkB8ue170006Em, symObjAddr: 0x62CC, symBinAddr: 0x1000278DC, symSize: 0xC8 }
  - { offsetInCU: 0x76D1, offset: 0x1BD8E, size: 0x8, addend: 0x0, symName: __ZNSt3__128__exception_guard_exceptionsINS_6vectorIfNS_9allocatorIfEEE16__destroy_vectorEED2B8ue170006Ev, symObjAddr: 0x6394, symBinAddr: 0x1000279A4, symSize: 0xBC }
  - { offsetInCU: 0x76F9, offset: 0x1BDB6, size: 0x8, addend: 0x0, symName: __ZNSt3__16vectorIfNS_9allocatorIfEEE16__destroy_vectorclB8ue170006Ev, symObjAddr: 0x6450, symBinAddr: 0x100027A60, symSize: 0x228 }
  - { offsetInCU: 0x771D, offset: 0x1BDDA, size: 0x8, addend: 0x0, symName: __ZNSt3__16vectorIfNS_9allocatorIfEEE7__clearB8ue170006Ev, symObjAddr: 0x6678, symBinAddr: 0x100027C88, symSize: 0x64 }
  - { offsetInCU: 0x7741, offset: 0x1BDFE, size: 0x8, addend: 0x0, symName: __ZNKSt3__16vectorIfNS_9allocatorIfEEE17__annotate_deleteB8ue170006Ev, symObjAddr: 0x66DC, symBinAddr: 0x100027CEC, symSize: 0xCC }
  - { offsetInCU: 0x7765, offset: 0x1BE22, size: 0x8, addend: 0x0, symName: __ZNSt3__116allocator_traitsINS_9allocatorIfEEE10deallocateB8ue170006ERS2_Pfm, symObjAddr: 0x67A8, symBinAddr: 0x100027DB8, symSize: 0x34 }
  - { offsetInCU: 0x77A7, offset: 0x1BE64, size: 0x8, addend: 0x0, symName: __ZNSt3__16vectorIfNS_9allocatorIfEEE22__base_destruct_at_endB8ue170006EPf, symObjAddr: 0x67DC, symBinAddr: 0x100027DEC, symSize: 0x114 }
  - { offsetInCU: 0x77E9, offset: 0x1BEA6, size: 0x8, addend: 0x0, symName: __ZNSt3__116allocator_traitsINS_9allocatorIfEEE7destroyB8ue170006IfvEEvRS2_PT_, symObjAddr: 0x68F0, symBinAddr: 0x100027F00, symSize: 0x2C }
  - { offsetInCU: 0x7826, offset: 0x1BEE3, size: 0x8, addend: 0x0, symName: __ZNSt3__19allocatorIfE7destroyB8ue170006EPf, symObjAddr: 0x691C, symBinAddr: 0x100027F2C, symSize: 0x14 }
  - { offsetInCU: 0x7858, offset: 0x1BF15, size: 0x8, addend: 0x0, symName: __ZNSt3__19allocatorIfE10deallocateB8ue170006EPfm, symObjAddr: 0x6930, symBinAddr: 0x100027F40, symSize: 0x4C }
  - { offsetInCU: 0x7898, offset: 0x1BF55, size: 0x8, addend: 0x0, symName: __ZNSt3__16vectorIfNS_9allocatorIfEEED2B8ue170006Ev, symObjAddr: 0x6A84, symBinAddr: 0x100027F8C, symSize: 0x1F4 }
  - { offsetInCU: 0x78C1, offset: 0x1BF7E, size: 0x8, addend: 0x0, symName: __ZNSt3__16vectorI6VertexNS_9allocatorIS1_EEEC2B8ue170006Ev, symObjAddr: 0x6C78, symBinAddr: 0x100028180, symSize: 0x2E8 }
  - { offsetInCU: 0x78EA, offset: 0x1BFA7, size: 0x8, addend: 0x0, symName: __ZNSt3__117__compressed_pairIP6VertexNS_9allocatorIS1_EEEC1B8ue170006IDnNS_18__default_init_tagEEEOT_OT0_, symObjAddr: 0x6F60, symBinAddr: 0x100028468, symSize: 0x3C }
  - { offsetInCU: 0x7940, offset: 0x1BFFD, size: 0x8, addend: 0x0, symName: __ZNSt3__117__compressed_pairIP6VertexNS_9allocatorIS1_EEEC2B8ue170006IDnNS_18__default_init_tagEEEOT_OT0_, symObjAddr: 0x6F9C, symBinAddr: 0x1000284A4, symSize: 0x40 }
  - { offsetInCU: 0x7996, offset: 0x1C053, size: 0x8, addend: 0x0, symName: __ZNSt3__122__compressed_pair_elemIP6VertexLi0ELb0EEC2B8ue170006IDnvEEOT_, symObjAddr: 0x6FDC, symBinAddr: 0x1000284E4, symSize: 0x64 }
  - { offsetInCU: 0x79D6, offset: 0x1C093, size: 0x8, addend: 0x0, symName: __ZNSt3__122__compressed_pair_elemINS_9allocatorI6VertexEELi1ELb1EEC2B8ue170006ENS_18__default_init_tagE, symObjAddr: 0x7040, symBinAddr: 0x100028548, symSize: 0x2C }
  - { offsetInCU: 0x7A09, offset: 0x1C0C6, size: 0x8, addend: 0x0, symName: __ZNSt3__19allocatorI6VertexEC2B8ue170006Ev, symObjAddr: 0x706C, symBinAddr: 0x100028574, symSize: 0x2C }
  - { offsetInCU: 0x7A31, offset: 0x1C0EE, size: 0x8, addend: 0x0, symName: __ZNSt3__116__non_trivial_ifILb1ENS_9allocatorI6VertexEEEC2B8ue170006Ev, symObjAddr: 0x7098, symBinAddr: 0x1000285A0, symSize: 0x14 }
  - { offsetInCU: 0x7A5A, offset: 0x1C117, size: 0x8, addend: 0x0, symName: __ZNSt3__16vectorI6VertexNS_9allocatorIS1_EEED2B8ue170006Ev, symObjAddr: 0x70AC, symBinAddr: 0x1000285B4, symSize: 0x1F8 }
  - { offsetInCU: 0x7A83, offset: 0x1C140, size: 0x8, addend: 0x0, symName: __ZNSt3__16vectorI6VertexNS_9allocatorIS1_EEE16__destroy_vectorC1B8ue170006ERS4_, symObjAddr: 0x72A4, symBinAddr: 0x1000287AC, symSize: 0x34 }
  - { offsetInCU: 0x7ABA, offset: 0x1C177, size: 0x8, addend: 0x0, symName: __ZNSt3__16vectorI6VertexNS_9allocatorIS1_EEE16__destroy_vectorclB8ue170006Ev, symObjAddr: 0x72D8, symBinAddr: 0x1000287E0, symSize: 0x228 }
  - { offsetInCU: 0x7ADE, offset: 0x1C19B, size: 0x8, addend: 0x0, symName: __ZNSt3__16vectorI6VertexNS_9allocatorIS1_EEE16__destroy_vectorC2B8ue170006ERS4_, symObjAddr: 0x7500, symBinAddr: 0x100028A08, symSize: 0x70 }
  - { offsetInCU: 0x7B15, offset: 0x1C1D2, size: 0x8, addend: 0x0, symName: __ZNSt3__16vectorI6VertexNS_9allocatorIS1_EEE7__clearB8ue170006Ev, symObjAddr: 0x7570, symBinAddr: 0x100028A78, symSize: 0x64 }
  - { offsetInCU: 0x7B39, offset: 0x1C1F6, size: 0x8, addend: 0x0, symName: __ZNKSt3__16vectorI6VertexNS_9allocatorIS1_EEE17__annotate_deleteB8ue170006Ev, symObjAddr: 0x75D4, symBinAddr: 0x100028ADC, symSize: 0xCC }
  - { offsetInCU: 0x7B5D, offset: 0x1C21A, size: 0x8, addend: 0x0, symName: __ZNSt3__116allocator_traitsINS_9allocatorI6VertexEEE10deallocateB8ue170006ERS3_PS2_m, symObjAddr: 0x76A0, symBinAddr: 0x100028BA8, symSize: 0x34 }
  - { offsetInCU: 0x7B9F, offset: 0x1C25C, size: 0x8, addend: 0x0, symName: __ZNSt3__16vectorI6VertexNS_9allocatorIS1_EEE7__allocB8ue170006Ev, symObjAddr: 0x76D4, symBinAddr: 0x100028BDC, symSize: 0x28 }
  - { offsetInCU: 0x7BC3, offset: 0x1C280, size: 0x8, addend: 0x0, symName: __ZNKSt3__16vectorI6VertexNS_9allocatorIS1_EEE8capacityB8ue170006Ev, symObjAddr: 0x76FC, symBinAddr: 0x100028C04, symSize: 0xBC }
  - { offsetInCU: 0x7BE7, offset: 0x1C2A4, size: 0x8, addend: 0x0, symName: __ZNSt3__16vectorI6VertexNS_9allocatorIS1_EEE22__base_destruct_at_endB8ue170006EPS1_, symObjAddr: 0x77B8, symBinAddr: 0x100028CC0, symSize: 0x114 }
  - { offsetInCU: 0x7C29, offset: 0x1C2E6, size: 0x8, addend: 0x0, symName: __ZNSt3__116allocator_traitsINS_9allocatorI6VertexEEE7destroyB8ue170006IS2_vEEvRS3_PT_, symObjAddr: 0x78CC, symBinAddr: 0x100028DD4, symSize: 0x2C }
  - { offsetInCU: 0x7C66, offset: 0x1C323, size: 0x8, addend: 0x0, symName: __ZNSt3__19allocatorI6VertexE7destroyB8ue170006EPS1_, symObjAddr: 0x790C, symBinAddr: 0x100028E14, symSize: 0x14 }
  - { offsetInCU: 0x7C98, offset: 0x1C355, size: 0x8, addend: 0x0, symName: __ZNKSt3__16vectorI6VertexNS_9allocatorIS1_EEE31__annotate_contiguous_containerEPKvS6_S6_S6_, symObjAddr: 0x7920, symBinAddr: 0x100028E28, symSize: 0x58 }
  - { offsetInCU: 0x7CF8, offset: 0x1C3B5, size: 0x8, addend: 0x0, symName: __ZNKSt3__16vectorI6VertexNS_9allocatorIS1_EEE4dataB8ue170006Ev, symObjAddr: 0x7978, symBinAddr: 0x100028E80, symSize: 0x64 }
  - { offsetInCU: 0x7D1C, offset: 0x1C3D9, size: 0x8, addend: 0x0, symName: __ZNKSt3__16vectorI6VertexNS_9allocatorIS1_EEE4sizeB8ue170006Ev, symObjAddr: 0x79DC, symBinAddr: 0x100028EE4, symSize: 0xB0 }
  - { offsetInCU: 0x7D40, offset: 0x1C3FD, size: 0x8, addend: 0x0, symName: __ZNSt3__19allocatorI6VertexE10deallocateB8ue170006EPS1_m, symObjAddr: 0x7A8C, symBinAddr: 0x100028F94, symSize: 0x4C }
  - { offsetInCU: 0x7D80, offset: 0x1C43D, size: 0x8, addend: 0x0, symName: __ZNSt3__117__compressed_pairIP6VertexNS_9allocatorIS1_EEE6secondB8ue170006Ev, symObjAddr: 0x7AD8, symBinAddr: 0x100028FE0, symSize: 0x24 }
  - { offsetInCU: 0x7DA4, offset: 0x1C461, size: 0x8, addend: 0x0, symName: __ZNSt3__122__compressed_pair_elemINS_9allocatorI6VertexEELi1ELb1EE5__getB8ue170006Ev, symObjAddr: 0x7AFC, symBinAddr: 0x100029004, symSize: 0x14 }
  - { offsetInCU: 0x7DC8, offset: 0x1C485, size: 0x8, addend: 0x0, symName: __ZNKSt3__16vectorI6VertexNS_9allocatorIS1_EEE9__end_capB8ue170006Ev, symObjAddr: 0x7B10, symBinAddr: 0x100029018, symSize: 0x28 }
  - { offsetInCU: 0x7DEC, offset: 0x1C4A9, size: 0x8, addend: 0x0, symName: __ZNKSt3__117__compressed_pairIP6VertexNS_9allocatorIS1_EEE5firstB8ue170006Ev, symObjAddr: 0x7B38, symBinAddr: 0x100029040, symSize: 0x24 }
  - { offsetInCU: 0x7E10, offset: 0x1C4CD, size: 0x8, addend: 0x0, symName: __ZNKSt3__122__compressed_pair_elemIP6VertexLi0ELb0EE5__getB8ue170006Ev, symObjAddr: 0x7B5C, symBinAddr: 0x100029064, symSize: 0x14 }
  - { offsetInCU: 0x7E34, offset: 0x1C4F1, size: 0x8, addend: 0x0, symName: __ZNSt3__16vectorI6VertexNS_9allocatorIS1_EEE9__end_capB8ue170006Ev, symObjAddr: 0x7B70, symBinAddr: 0x100029078, symSize: 0x28 }
  - { offsetInCU: 0x7E58, offset: 0x1C515, size: 0x8, addend: 0x0, symName: __ZNSt3__16vectorI6VertexNS_9allocatorIS1_EEE22__construct_one_at_endB8ue170006IJRKS1_EEEvDpOT_, symObjAddr: 0x7B98, symBinAddr: 0x1000290A0, symSize: 0x36C }
  - { offsetInCU: 0x7EAC, offset: 0x1C569, size: 0x8, addend: 0x0, symName: __ZNSt3__16vectorI6VertexNS_9allocatorIS1_EEE21__push_back_slow_pathIRKS1_EEvOT_, symObjAddr: 0x7F04, symBinAddr: 0x10002940C, symSize: 0x3C0 }
  - { offsetInCU: 0x7F10, offset: 0x1C5CD, size: 0x8, addend: 0x0, symName: __ZNSt3__117__compressed_pairIP6VertexNS_9allocatorIS1_EEE5firstB8ue170006Ev, symObjAddr: 0x82C4, symBinAddr: 0x1000297CC, symSize: 0x24 }
  - { offsetInCU: 0x7F34, offset: 0x1C5F1, size: 0x8, addend: 0x0, symName: __ZNSt3__122__compressed_pair_elemIP6VertexLi0ELb0EE5__getB8ue170006Ev, symObjAddr: 0x82E8, symBinAddr: 0x1000297F0, symSize: 0x14 }
  - { offsetInCU: 0x7F71, offset: 0x1C62E, size: 0x8, addend: 0x0, symName: __ZNSt3__16vectorI6VertexNS_9allocatorIS1_EEE21_ConstructTransactionC1B8ue170006ERS4_m, symObjAddr: 0x82FC, symBinAddr: 0x100029804, symSize: 0x3C }
  - { offsetInCU: 0x7FB7, offset: 0x1C674, size: 0x8, addend: 0x0, symName: __ZNSt3__116allocator_traitsINS_9allocatorI6VertexEEE9constructB8ue170006IS2_JRKS2_EvEEvRS3_PT_DpOT0_, symObjAddr: 0x8338, symBinAddr: 0x100029840, symSize: 0x34 }
  - { offsetInCU: 0x8010, offset: 0x1C6CD, size: 0x8, addend: 0x0, symName: __ZNSt3__16vectorI6VertexNS_9allocatorIS1_EEE21_ConstructTransactionD1B8ue170006Ev, symObjAddr: 0x836C, symBinAddr: 0x100029874, symSize: 0x2C }
  - { offsetInCU: 0x8038, offset: 0x1C6F5, size: 0x8, addend: 0x0, symName: __ZNSt3__16vectorI6VertexNS_9allocatorIS1_EEE21_ConstructTransactionC2B8ue170006ERS4_m, symObjAddr: 0x8398, symBinAddr: 0x1000298A0, symSize: 0x1D0 }
  - { offsetInCU: 0x807E, offset: 0x1C73B, size: 0x8, addend: 0x0, symName: __ZNKSt3__16vectorI6VertexNS_9allocatorIS1_EEE19__annotate_increaseB8ue170006Em, symObjAddr: 0x8568, symBinAddr: 0x100029A70, symSize: 0xD8 }
  - { offsetInCU: 0x80B1, offset: 0x1C76E, size: 0x8, addend: 0x0, symName: __ZNSt3__19allocatorI6VertexE9constructB8ue170006IS1_JRKS1_EEEvPT_DpOT0_, symObjAddr: 0x8640, symBinAddr: 0x100029B48, symSize: 0x34 }
  - { offsetInCU: 0x8107, offset: 0x1C7C4, size: 0x8, addend: 0x0, symName: __ZNSt3__16vectorI6VertexNS_9allocatorIS1_EEE21_ConstructTransactionD2B8ue170006Ev, symObjAddr: 0x8674, symBinAddr: 0x100029B7C, symSize: 0x278 }
  - { offsetInCU: 0x812F, offset: 0x1C7EC, size: 0x8, addend: 0x0, symName: __ZNKSt3__16vectorI6VertexNS_9allocatorIS1_EEE17__annotate_shrinkB8ue170006Em, symObjAddr: 0x88EC, symBinAddr: 0x100029DF4, symSize: 0xC8 }
  - { offsetInCU: 0x8161, offset: 0x1C81E, size: 0x8, addend: 0x0, symName: __ZNKSt3__16vectorI6VertexNS_9allocatorIS1_EEE11__recommendB8ue170006Em, symObjAddr: 0x89B4, symBinAddr: 0x100029EBC, symSize: 0x384 }
  - { offsetInCU: 0x81BB, offset: 0x1C878, size: 0x8, addend: 0x0, symName: __ZNSt3__114__split_bufferI6VertexRNS_9allocatorIS1_EEEC1EmmS4_, symObjAddr: 0x8D38, symBinAddr: 0x10002A240, symSize: 0x44 }
  - { offsetInCU: 0x8210, offset: 0x1C8CD, size: 0x8, addend: 0x0, symName: __ZNSt3__114__split_bufferI6VertexRNS_9allocatorIS1_EEED1Ev, symObjAddr: 0x92E8, symBinAddr: 0x10002A7F0, symSize: 0x2C }
  - { offsetInCU: 0x823B, offset: 0x1C8F8, size: 0x8, addend: 0x0, symName: __ZNKSt3__16vectorI6VertexNS_9allocatorIS1_EEE8max_sizeEv, symObjAddr: 0x9314, symBinAddr: 0x10002A81C, symSize: 0x2FC }
  - { offsetInCU: 0x8263, offset: 0x1C920, size: 0x8, addend: 0x0, symName: __ZNKSt3__16vectorI6VertexNS_9allocatorIS1_EEE20__throw_length_errorB8ue170006Ev, symObjAddr: 0x9610, symBinAddr: 0x10002AB18, symSize: 0x20 }
  - { offsetInCU: 0x8291, offset: 0x1C94E, size: 0x8, addend: 0x0, symName: __ZNSt3__116allocator_traitsINS_9allocatorI6VertexEEE8max_sizeB8ue170006IS3_vEEmRKS3_, symObjAddr: 0x965C, symBinAddr: 0x10002AB38, symSize: 0x24 }
  - { offsetInCU: 0x82BF, offset: 0x1C97C, size: 0x8, addend: 0x0, symName: __ZNKSt3__16vectorI6VertexNS_9allocatorIS1_EEE7__allocB8ue170006Ev, symObjAddr: 0x9680, symBinAddr: 0x10002AB5C, symSize: 0x28 }
  - { offsetInCU: 0x82E3, offset: 0x1C9A0, size: 0x8, addend: 0x0, symName: __ZNKSt3__19allocatorI6VertexE8max_sizeB8ue170006Ev, symObjAddr: 0x96A8, symBinAddr: 0x10002AB84, symSize: 0x14 }
  - { offsetInCU: 0x8307, offset: 0x1C9C4, size: 0x8, addend: 0x0, symName: __ZNKSt3__117__compressed_pairIP6VertexNS_9allocatorIS1_EEE6secondB8ue170006Ev, symObjAddr: 0x96BC, symBinAddr: 0x10002AB98, symSize: 0x24 }
  - { offsetInCU: 0x832B, offset: 0x1C9E8, size: 0x8, addend: 0x0, symName: __ZNKSt3__122__compressed_pair_elemINS_9allocatorI6VertexEELi1ELb1EE5__getB8ue170006Ev, symObjAddr: 0x96E0, symBinAddr: 0x10002ABBC, symSize: 0x14 }
  - { offsetInCU: 0x834E, offset: 0x1CA0B, size: 0x8, addend: 0x0, symName: __ZNSt3__114__split_bufferI6VertexRNS_9allocatorIS1_EEEC2EmmS4_, symObjAddr: 0x98DC, symBinAddr: 0x10002ABD0, symSize: 0x520 }
  - { offsetInCU: 0x83C9, offset: 0x1CA86, size: 0x8, addend: 0x0, symName: __ZNSt3__117__compressed_pairIP6VertexRNS_9allocatorIS1_EEEC1B8ue170006IDnS5_EEOT_OT0_, symObjAddr: 0x9DFC, symBinAddr: 0x10002B0F0, symSize: 0x3C }
  - { offsetInCU: 0x841F, offset: 0x1CADC, size: 0x8, addend: 0x0, symName: __ZNSt3__114__split_bufferI6VertexRNS_9allocatorIS1_EEE7__allocB8ue170006Ev, symObjAddr: 0xA0C4, symBinAddr: 0x10002B3B8, symSize: 0x28 }
  - { offsetInCU: 0x8443, offset: 0x1CB00, size: 0x8, addend: 0x0, symName: __ZNSt3__114__split_bufferI6VertexRNS_9allocatorIS1_EEE9__end_capB8ue170006Ev, symObjAddr: 0xA0EC, symBinAddr: 0x10002B3E0, symSize: 0x28 }
  - { offsetInCU: 0x8467, offset: 0x1CB24, size: 0x8, addend: 0x0, symName: __ZNSt3__117__compressed_pairIP6VertexRNS_9allocatorIS1_EEEC2B8ue170006IDnS5_EEOT_OT0_, symObjAddr: 0xA114, symBinAddr: 0x10002B408, symSize: 0x48 }
  - { offsetInCU: 0x84BD, offset: 0x1CB7A, size: 0x8, addend: 0x0, symName: __ZNSt3__122__compressed_pair_elemIRNS_9allocatorI6VertexEELi1ELb0EEC2B8ue170006IS4_vEEOT_, symObjAddr: 0xA15C, symBinAddr: 0x10002B450, symSize: 0x70 }
  - { offsetInCU: 0x84FD, offset: 0x1CBBA, size: 0x8, addend: 0x0, symName: __ZNSt3__19allocatorI6VertexE8allocateB8ue170006Em, symObjAddr: 0xA1CC, symBinAddr: 0x10002B4C0, symSize: 0x5C }
  - { offsetInCU: 0x852F, offset: 0x1CBEC, size: 0x8, addend: 0x0, symName: __ZNSt3__117__compressed_pairIP6VertexRNS_9allocatorIS1_EEE6secondB8ue170006Ev, symObjAddr: 0xA228, symBinAddr: 0x10002B51C, symSize: 0x28 }
  - { offsetInCU: 0x8553, offset: 0x1CC10, size: 0x8, addend: 0x0, symName: __ZNSt3__122__compressed_pair_elemIRNS_9allocatorI6VertexEELi1ELb0EE5__getB8ue170006Ev, symObjAddr: 0xA250, symBinAddr: 0x10002B544, symSize: 0x60 }
  - { offsetInCU: 0x8577, offset: 0x1CC34, size: 0x8, addend: 0x0, symName: __ZNSt3__117__compressed_pairIP6VertexRNS_9allocatorIS1_EEE5firstB8ue170006Ev, symObjAddr: 0xA2B0, symBinAddr: 0x10002B5A4, symSize: 0x24 }
  - { offsetInCU: 0x859B, offset: 0x1CC58, size: 0x8, addend: 0x0, symName: __ZNSt3__116reverse_iteratorIP6VertexEC1B8ue170006ES2_, symObjAddr: 0xA77C, symBinAddr: 0x10002BA70, symSize: 0x34 }
  - { offsetInCU: 0x85D1, offset: 0x1CC8E, size: 0x8, addend: 0x0, symName: __ZNKSt3__116reverse_iteratorIP6VertexE4baseB8ue170006Ev, symObjAddr: 0xA7B0, symBinAddr: 0x10002BAA4, symSize: 0x64 }
  - { offsetInCU: 0x85F5, offset: 0x1CCB2, size: 0x8, addend: 0x0, symName: __ZNKSt3__16vectorI6VertexNS_9allocatorIS1_EEE14__annotate_newB8ue170006Em, symObjAddr: 0xA948, symBinAddr: 0x10002BC3C, symSize: 0xC0 }
  - { offsetInCU: 0x864B, offset: 0x1CD08, size: 0x8, addend: 0x0, symName: __ZNKSt3__111__move_loopINS_17_ClassicAlgPolicyEEclB8ue170006INS_16reverse_iteratorIP6VertexEES7_S7_EENS_4pairIT_T1_EES9_T0_SA_, symObjAddr: 0xC3C8, symBinAddr: 0x10002D6BC, symSize: 0x344 }
  - { offsetInCU: 0x86C6, offset: 0x1CD83, size: 0x8, addend: 0x0, symName: __ZNSt3__18_IterOpsINS_17_ClassicAlgPolicyEE11__iter_moveB8ue170006IRNS_16reverse_iteratorIP6VertexEEEENS_9enable_ifIXsr12is_referenceIDTdeclsr3stdE7declvalIRT_EEEEE5valueEDTclsr3stdE4movedeclsr3stdE7declvalISB_EEEEE4typeEOSA_, symObjAddr: 0xD234, symBinAddr: 0x10002E528, symSize: 0x28 }
  - { offsetInCU: 0x86F2, offset: 0x1CDAF, size: 0x8, addend: 0x0, symName: __ZNKSt3__116reverse_iteratorIP6VertexEdeB8ue170006Ev, symObjAddr: 0xD25C, symBinAddr: 0x10002E550, symSize: 0x74 }
  - { offsetInCU: 0x8724, offset: 0x1CDE1, size: 0x8, addend: 0x0, symName: __ZNSt3__116reverse_iteratorIP6VertexEppB8ue170006Ev, symObjAddr: 0xD2D0, symBinAddr: 0x10002E5C4, symSize: 0x6C }
  - { offsetInCU: 0x8748, offset: 0x1CE05, size: 0x8, addend: 0x0, symName: __ZNSt3__18_IterOpsINS_17_ClassicAlgPolicyEE25__validate_iter_referenceB8ue170006IRNS_16reverse_iteratorIP6VertexEEEEvv, symObjAddr: 0xD33C, symBinAddr: 0x10002E630, symSize: 0x4 }
  - { offsetInCU: 0x8766, offset: 0x1CE23, size: 0x8, addend: 0x0, symName: __ZNSt3__118__unwrap_iter_implINS_16reverse_iteratorIP6VertexEELb0EE8__unwrapB8ue170006ES4_, symObjAddr: 0xD340, symBinAddr: 0x10002E634, symSize: 0x274 }
  - { offsetInCU: 0x8792, offset: 0x1CE4F, size: 0x8, addend: 0x0, symName: __ZNSt3__14pairINS_16reverse_iteratorIP6VertexEES4_EC1B8ue170006IS4_S4_LPv0EEEOT_OT0_, symObjAddr: 0xD5B4, symBinAddr: 0x10002E8A8, symSize: 0x3C }
  - { offsetInCU: 0x87EE, offset: 0x1CEAB, size: 0x8, addend: 0x0, symName: __ZNSt3__14pairINS_16reverse_iteratorIP6VertexEES4_EC2B8ue170006IS4_S4_LPv0EEEOT_OT0_, symObjAddr: 0xD5F0, symBinAddr: 0x10002E8E4, symSize: 0x54 }
  - { offsetInCU: 0x884A, offset: 0x1CF07, size: 0x8, addend: 0x0, symName: __ZNSt3__118__unwrap_iter_implINS_16reverse_iteratorIP6VertexEELb0EE8__rewrapB8ue170006ES4_S4_, symObjAddr: 0xD644, symBinAddr: 0x10002E938, symSize: 0x2E0 }
  - { offsetInCU: 0x8880, offset: 0x1CF3D, size: 0x8, addend: 0x0, symName: __ZNSt3__116reverse_iteratorIP6VertexEC2B8ue170006ES2_, symObjAddr: 0xD924, symBinAddr: 0x10002EC18, symSize: 0xB8 }
  - { offsetInCU: 0x88B5, offset: 0x1CF72, size: 0x8, addend: 0x0, symName: __ZNSt3__114__split_bufferI6VertexRNS_9allocatorIS1_EEED2Ev, symObjAddr: 0xD9DC, symBinAddr: 0x10002ECD0, symSize: 0x104 }
  - { offsetInCU: 0x88E1, offset: 0x1CF9E, size: 0x8, addend: 0x0, symName: __ZNSt3__114__split_bufferI6VertexRNS_9allocatorIS1_EEE5clearB8ue170006Ev, symObjAddr: 0xDAE0, symBinAddr: 0x10002EDD4, symSize: 0x68 }
  - { offsetInCU: 0x8905, offset: 0x1CFC2, size: 0x8, addend: 0x0, symName: __ZNKSt3__114__split_bufferI6VertexRNS_9allocatorIS1_EEE8capacityB8ue170006Ev, symObjAddr: 0xDB48, symBinAddr: 0x10002EE3C, symSize: 0xBC }
  - { offsetInCU: 0x8929, offset: 0x1CFE6, size: 0x8, addend: 0x0, symName: __ZNSt3__114__split_bufferI6VertexRNS_9allocatorIS1_EEE17__destruct_at_endB8ue170006EPS1_, symObjAddr: 0xDC04, symBinAddr: 0x10002EEF8, symSize: 0x2C }
  - { offsetInCU: 0x895A, offset: 0x1D017, size: 0x8, addend: 0x0, symName: __ZNSt3__114__split_bufferI6VertexRNS_9allocatorIS1_EEE17__destruct_at_endB8ue170006EPS1_NS_17integral_constantIbLb0EEE, symObjAddr: 0xDC30, symBinAddr: 0x10002EF24, symSize: 0x10C }
  - { offsetInCU: 0x899A, offset: 0x1D057, size: 0x8, addend: 0x0, symName: __ZNKSt3__114__split_bufferI6VertexRNS_9allocatorIS1_EEE9__end_capB8ue170006Ev, symObjAddr: 0xDD3C, symBinAddr: 0x10002F030, symSize: 0x28 }
  - { offsetInCU: 0x89BE, offset: 0x1D07B, size: 0x8, addend: 0x0, symName: __ZNKSt3__117__compressed_pairIP6VertexRNS_9allocatorIS1_EEE5firstB8ue170006Ev, symObjAddr: 0xDD64, symBinAddr: 0x10002F058, symSize: 0x24 }
  - { offsetInCU: 0x3C, offset: 0x1D184, size: 0x8, addend: 0x0, symName: _.str, symObjAddr: 0x531A0, symBinAddr: 0x1004F07C0, symSize: 0x0 }
  - { offsetInCU: 0x6D, offset: 0x1D1B5, size: 0x8, addend: 0x0, symName: _.str.1, symObjAddr: 0x531C0, symBinAddr: 0x1004F07E0, symSize: 0x0 }
  - { offsetInCU: 0x8A, offset: 0x1D1D2, size: 0x8, addend: 0x0, symName: _.str.2, symObjAddr: 0x531E0, symBinAddr: 0x1004F0800, symSize: 0x0 }
  - { offsetInCU: 0xB1, offset: 0x1D1F9, size: 0x8, addend: 0x0, symName: __ZL36stbi__vertically_flip_on_load_global, symObjAddr: 0xA2C60, symBinAddr: 0x100614EC0, symSize: 0x0 }
  - { offsetInCU: 0xD3, offset: 0x1D21B, size: 0x8, addend: 0x0, symName: __ZL21stbi__stdio_callbacks, symObjAddr: 0x54A20, symBinAddr: 0x1005959A0, symSize: 0x0 }
  - { offsetInCU: 0x167, offset: 0x1D2AF, size: 0x8, addend: 0x0, symName: ___func__._ZL31stbi__load_and_postprocess_8bitP13stbi__contextPiS1_S1_i, symObjAddr: 0x53240, symBinAddr: 0x1004F0860, symSize: 0x0 }
  - { offsetInCU: 0x185, offset: 0x1D2CD, size: 0x8, addend: 0x0, symName: _.str.3, symObjAddr: 0x53280, symBinAddr: 0x1004F08A0, symSize: 0x0 }
  - { offsetInCU: 0x197, offset: 0x1D2DF, size: 0x8, addend: 0x0, symName: _.str.4, symObjAddr: 0x532A0, symBinAddr: 0x1004F08C0, symSize: 0x0 }
  - { offsetInCU: 0x1B5, offset: 0x1D2FD, size: 0x8, addend: 0x0, symName: _.str.5, symObjAddr: 0x53300, symBinAddr: 0x1004F0920, symSize: 0x0 }
  - { offsetInCU: 0x1CA, offset: 0x1D312, size: 0x8, addend: 0x0, symName: __ZL22stbi__check_png_headerP13stbi__context, symObjAddr: 0x146F4, symBinAddr: 0x100043E30, symSize: 0x118 }
  - { offsetInCU: 0x1F6, offset: 0x1D33E, size: 0x8, addend: 0x0, symName: __ZZL22stbi__check_png_headerP13stbi__contextE7png_sig, symObjAddr: 0x54B80, symBinAddr: 0x1004E7400, symSize: 0x0 }
  - { offsetInCU: 0x24C, offset: 0x1D394, size: 0x8, addend: 0x0, symName: _.str.6, symObjAddr: 0x53340, symBinAddr: 0x1004F0960, symSize: 0x0 }
  - { offsetInCU: 0x25E, offset: 0x1D3A6, size: 0x8, addend: 0x0, symName: _.str.7, symObjAddr: 0x53360, symBinAddr: 0x1004F0980, symSize: 0x0 }
  - { offsetInCU: 0x27C, offset: 0x1D3C4, size: 0x8, addend: 0x0, symName: _.str.8, symObjAddr: 0x53380, symBinAddr: 0x1004F09A0, symSize: 0x0 }
  - { offsetInCU: 0x29A, offset: 0x1D3E2, size: 0x8, addend: 0x0, symName: _.str.9, symObjAddr: 0x533C0, symBinAddr: 0x1004F09E0, symSize: 0x0 }
  - { offsetInCU: 0x2B8, offset: 0x1D400, size: 0x8, addend: 0x0, symName: _.str.10, symObjAddr: 0x533E0, symBinAddr: 0x1004F0A00, symSize: 0x0 }
  - { offsetInCU: 0x2CA, offset: 0x1D412, size: 0x8, addend: 0x0, symName: _.str.11, symObjAddr: 0x53400, symBinAddr: 0x1004F0A20, symSize: 0x0 }
  - { offsetInCU: 0x2E8, offset: 0x1D430, size: 0x8, addend: 0x0, symName: _.str.12, symObjAddr: 0x53420, symBinAddr: 0x1004F0A40, symSize: 0x0 }
  - { offsetInCU: 0x306, offset: 0x1D44E, size: 0x8, addend: 0x0, symName: _.str.13, symObjAddr: 0x53460, symBinAddr: 0x1004F0A80, symSize: 0x0 }
  - { offsetInCU: 0x318, offset: 0x1D460, size: 0x8, addend: 0x0, symName: _.str.14, symObjAddr: 0x53480, symBinAddr: 0x1004F0AA0, symSize: 0x0 }
  - { offsetInCU: 0x336, offset: 0x1D47E, size: 0x8, addend: 0x0, symName: _.str.15, symObjAddr: 0x534A0, symBinAddr: 0x1004F0AC0, symSize: 0x0 }
  - { offsetInCU: 0x354, offset: 0x1D49C, size: 0x8, addend: 0x0, symName: _.str.16, symObjAddr: 0x534E0, symBinAddr: 0x1004F0B00, symSize: 0x0 }
  - { offsetInCU: 0x366, offset: 0x1D4AE, size: 0x8, addend: 0x0, symName: _.str.17, symObjAddr: 0x53520, symBinAddr: 0x1004F0B40, symSize: 0x0 }
  - { offsetInCU: 0x378, offset: 0x1D4C0, size: 0x8, addend: 0x0, symName: _.str.18, symObjAddr: 0x53540, symBinAddr: 0x1004F0B60, symSize: 0x0 }
  - { offsetInCU: 0x396, offset: 0x1D4DE, size: 0x8, addend: 0x0, symName: _.str.19, symObjAddr: 0x53560, symBinAddr: 0x1004F0B80, symSize: 0x0 }
  - { offsetInCU: 0x3A8, offset: 0x1D4F0, size: 0x8, addend: 0x0, symName: _.str.20, symObjAddr: 0x53580, symBinAddr: 0x1004F0BA0, symSize: 0x0 }
  - { offsetInCU: 0x3BA, offset: 0x1D502, size: 0x8, addend: 0x0, symName: _.str.21, symObjAddr: 0x535A0, symBinAddr: 0x1004F0BC0, symSize: 0x0 }
  - { offsetInCU: 0x3D8, offset: 0x1D520, size: 0x8, addend: 0x0, symName: _.str.22, symObjAddr: 0x535E0, symBinAddr: 0x1004F0C00, symSize: 0x0 }
  - { offsetInCU: 0x3EA, offset: 0x1D532, size: 0x8, addend: 0x0, symName: _.str.23, symObjAddr: 0x53600, symBinAddr: 0x1004F0C20, symSize: 0x0 }
  - { offsetInCU: 0x3FC, offset: 0x1D544, size: 0x8, addend: 0x0, symName: _.str.24, symObjAddr: 0x53620, symBinAddr: 0x1004F0C40, symSize: 0x0 }
  - { offsetInCU: 0x41A, offset: 0x1D562, size: 0x8, addend: 0x0, symName: _.str.25, symObjAddr: 0x53640, symBinAddr: 0x1004F0C60, symSize: 0x0 }
  - { offsetInCU: 0x42C, offset: 0x1D574, size: 0x8, addend: 0x0, symName: _.str.26, symObjAddr: 0x53660, symBinAddr: 0x1004F0C80, symSize: 0x0 }
  - { offsetInCU: 0x44A, offset: 0x1D592, size: 0x8, addend: 0x0, symName: _.str.27, symObjAddr: 0x53680, symBinAddr: 0x1004F0CA0, symSize: 0x0 }
  - { offsetInCU: 0x45C, offset: 0x1D5A4, size: 0x8, addend: 0x0, symName: _.str.28, symObjAddr: 0x536A0, symBinAddr: 0x1004F0CC0, symSize: 0x0 }
  - { offsetInCU: 0x465, offset: 0x1D5AD, size: 0x8, addend: 0x0, symName: __ZL20stbi__parse_png_fileP9stbi__pngii, symObjAddr: 0x15EFC, symBinAddr: 0x100045638, symSize: 0x3854 }
  - { offsetInCU: 0x491, offset: 0x1D5D9, size: 0x8, addend: 0x0, symName: __ZZL20stbi__parse_png_fileP9stbi__pngiiE13invalid_chunk, symObjAddr: 0x54A60, symBinAddr: 0x1005959E0, symSize: 0x0 }
  - { offsetInCU: 0x689, offset: 0x1D7D1, size: 0x8, addend: 0x0, symName: __ZL23stbi__depth_scale_table, symObjAddr: 0x54BA0, symBinAddr: 0x1004E7420, symSize: 0x0 }
  - { offsetInCU: 0x6AC, offset: 0x1D7F4, size: 0x8, addend: 0x0, symName: ___func__._ZL26stbi__create_png_image_rawP9stbi__pngPhjijjii, symObjAddr: 0x536C0, symBinAddr: 0x1004F0CE0, symSize: 0x0 }
  - { offsetInCU: 0x6CA, offset: 0x1D812, size: 0x8, addend: 0x0, symName: _.str.29, symObjAddr: 0x53700, symBinAddr: 0x1004F0D20, symSize: 0x0 }
  - { offsetInCU: 0x6E8, offset: 0x1D830, size: 0x8, addend: 0x0, symName: _.str.30, symObjAddr: 0x53760, symBinAddr: 0x1004F0D80, symSize: 0x0 }
  - { offsetInCU: 0x6FA, offset: 0x1D842, size: 0x8, addend: 0x0, symName: _.str.31, symObjAddr: 0x537A0, symBinAddr: 0x1004F0DC0, symSize: 0x0 }
  - { offsetInCU: 0x70C, offset: 0x1D854, size: 0x8, addend: 0x0, symName: _.str.32, symObjAddr: 0x537C0, symBinAddr: 0x1004F0DE0, symSize: 0x0 }
  - { offsetInCU: 0x71E, offset: 0x1D866, size: 0x8, addend: 0x0, symName: _.str.33, symObjAddr: 0x537E0, symBinAddr: 0x1004F0E00, symSize: 0x0 }
  - { offsetInCU: 0x730, offset: 0x1D878, size: 0x8, addend: 0x0, symName: _.str.34, symObjAddr: 0x53820, symBinAddr: 0x1004F0E40, symSize: 0x0 }
  - { offsetInCU: 0x752, offset: 0x1D89A, size: 0x8, addend: 0x0, symName: __ZL16first_row_filter, symObjAddr: 0x54AA0, symBinAddr: 0x100595A20, symSize: 0x0 }
  - { offsetInCU: 0x775, offset: 0x1D8BD, size: 0x8, addend: 0x0, symName: ___func__._ZL28stbi__compute_transparency16P9stbi__pngPti, symObjAddr: 0x53840, symBinAddr: 0x1004F0E60, symSize: 0x0 }
  - { offsetInCU: 0x793, offset: 0x1D8DB, size: 0x8, addend: 0x0, symName: _.str.35, symObjAddr: 0x53880, symBinAddr: 0x1004F0EA0, symSize: 0x0 }
  - { offsetInCU: 0x7B1, offset: 0x1D8F9, size: 0x8, addend: 0x0, symName: ___func__._ZL26stbi__compute_transparencyP9stbi__pngPhi, symObjAddr: 0x538C0, symBinAddr: 0x1004F0EE0, symSize: 0x0 }
  - { offsetInCU: 0x7C3, offset: 0x1D90B, size: 0x8, addend: 0x0, symName: ___func__._ZL15stbi__de_iphoneP9stbi__png, symObjAddr: 0x53900, symBinAddr: 0x1004F0F20, symSize: 0x0 }
  - { offsetInCU: 0x7D5, offset: 0x1D91D, size: 0x8, addend: 0x0, symName: _.str.36, symObjAddr: 0x53920, symBinAddr: 0x1004F0F40, symSize: 0x0 }
  - { offsetInCU: 0x7E7, offset: 0x1D92F, size: 0x8, addend: 0x0, symName: ___func__._ZL20stbi__convert_formatPhiijj, symObjAddr: 0x53960, symBinAddr: 0x1004F0F80, symSize: 0x0 }
  - { offsetInCU: 0x7F9, offset: 0x1D941, size: 0x8, addend: 0x0, symName: _.str.37, symObjAddr: 0x539A0, symBinAddr: 0x1004F0FC0, symSize: 0x0 }
  - { offsetInCU: 0x817, offset: 0x1D95F, size: 0x8, addend: 0x0, symName: _.str.38, symObjAddr: 0x539E0, symBinAddr: 0x1004F1000, symSize: 0x0 }
  - { offsetInCU: 0x835, offset: 0x1D97D, size: 0x8, addend: 0x0, symName: ___func__._ZL22stbi__convert_format16Ptiijj, symObjAddr: 0x53A00, symBinAddr: 0x1004F1020, symSize: 0x0 }
  - { offsetInCU: 0x853, offset: 0x1D99B, size: 0x8, addend: 0x0, symName: _.str.39, symObjAddr: 0x53A40, symBinAddr: 0x1004F1060, symSize: 0x0 }
  - { offsetInCU: 0x865, offset: 0x1D9AD, size: 0x8, addend: 0x0, symName: _.str.40, symObjAddr: 0x53A60, symBinAddr: 0x1004F1080, symSize: 0x0 }
  - { offsetInCU: 0x877, offset: 0x1D9BF, size: 0x8, addend: 0x0, symName: _.str.41, symObjAddr: 0x53A80, symBinAddr: 0x1004F10A0, symSize: 0x0 }
  - { offsetInCU: 0x889, offset: 0x1D9D1, size: 0x8, addend: 0x0, symName: _.str.42, symObjAddr: 0x53AA0, symBinAddr: 0x1004F10C0, symSize: 0x0 }
  - { offsetInCU: 0x89B, offset: 0x1D9E3, size: 0x8, addend: 0x0, symName: _.str.43, symObjAddr: 0x53AC0, symBinAddr: 0x1004F10E0, symSize: 0x0 }
  - { offsetInCU: 0x8AD, offset: 0x1D9F5, size: 0x8, addend: 0x0, symName: _.str.44, symObjAddr: 0x53AE0, symBinAddr: 0x1004F1100, symSize: 0x0 }
  - { offsetInCU: 0x8BF, offset: 0x1DA07, size: 0x8, addend: 0x0, symName: _.str.45, symObjAddr: 0x53B00, symBinAddr: 0x1004F1120, symSize: 0x0 }
  - { offsetInCU: 0x8D1, offset: 0x1DA19, size: 0x8, addend: 0x0, symName: _.str.46, symObjAddr: 0x53B20, symBinAddr: 0x1004F1140, symSize: 0x0 }
  - { offsetInCU: 0x8E3, offset: 0x1DA2B, size: 0x8, addend: 0x0, symName: _.str.47, symObjAddr: 0x53B40, symBinAddr: 0x1004F1160, symSize: 0x0 }
  - { offsetInCU: 0x8F5, offset: 0x1DA3D, size: 0x8, addend: 0x0, symName: _.str.48, symObjAddr: 0x53B60, symBinAddr: 0x1004F1180, symSize: 0x0 }
  - { offsetInCU: 0x8FE, offset: 0x1DA46, size: 0x8, addend: 0x0, symName: __ZL17stbi__shiftsignedjii, symObjAddr: 0x27F78, symBinAddr: 0x1000576B4, symSize: 0x22C }
  - { offsetInCU: 0x92A, offset: 0x1DA72, size: 0x8, addend: 0x0, symName: __ZZL17stbi__shiftsignedjiiE9mul_table, symObjAddr: 0x54AC0, symBinAddr: 0x100595A40, symSize: 0x0 }
  - { offsetInCU: 0x941, offset: 0x1DA89, size: 0x8, addend: 0x0, symName: __ZZL17stbi__shiftsignedjiiE11shift_table, symObjAddr: 0x54B20, symBinAddr: 0x100595AA0, symSize: 0x0 }
  - { offsetInCU: 0x995, offset: 0x1DADD, size: 0x8, addend: 0x0, symName: ___func__._ZL17stbi__shiftsignedjii, symObjAddr: 0x53B80, symBinAddr: 0x1004F11A0, symSize: 0x0 }
  - { offsetInCU: 0x9A7, offset: 0x1DAEF, size: 0x8, addend: 0x0, symName: _.str.49, symObjAddr: 0x53BC0, symBinAddr: 0x1004F11E0, symSize: 0x0 }
  - { offsetInCU: 0x9B9, offset: 0x1DB01, size: 0x8, addend: 0x0, symName: _.str.50, symObjAddr: 0x53BE0, symBinAddr: 0x1004F1200, symSize: 0x0 }
  - { offsetInCU: 0x9CB, offset: 0x1DB13, size: 0x8, addend: 0x0, symName: _.str.51, symObjAddr: 0x53C20, symBinAddr: 0x1004F1240, symSize: 0x0 }
  - { offsetInCU: 0x9DD, offset: 0x1DB25, size: 0x8, addend: 0x0, symName: _.str.52, symObjAddr: 0x53C60, symBinAddr: 0x1004F1280, symSize: 0x0 }
  - { offsetInCU: 0x9EF, offset: 0x1DB37, size: 0x8, addend: 0x0, symName: _.str.53, symObjAddr: 0x53CA0, symBinAddr: 0x1004F12C0, symSize: 0x0 }
  - { offsetInCU: 0xA01, offset: 0x1DB49, size: 0x8, addend: 0x0, symName: _.str.54, symObjAddr: 0x53CC0, symBinAddr: 0x1004F12E0, symSize: 0x0 }
  - { offsetInCU: 0xA13, offset: 0x1DB5B, size: 0x8, addend: 0x0, symName: _.str.55, symObjAddr: 0x54CC0, symBinAddr: 0x1004E7540, symSize: 0x0 }
  - { offsetInCU: 0xA31, offset: 0x1DB79, size: 0x8, addend: 0x0, symName: _.str.56, symObjAddr: 0x53CE0, symBinAddr: 0x1004F1300, symSize: 0x0 }
  - { offsetInCU: 0xA43, offset: 0x1DB8B, size: 0x8, addend: 0x0, symName: _.str.57, symObjAddr: 0x53D00, symBinAddr: 0x1004F1320, symSize: 0x0 }
  - { offsetInCU: 0xA55, offset: 0x1DB9D, size: 0x8, addend: 0x0, symName: _.str.58, symObjAddr: 0x53D20, symBinAddr: 0x1004F1340, symSize: 0x0 }
  - { offsetInCU: 0xA67, offset: 0x1DBAF, size: 0x8, addend: 0x0, symName: _.str.59, symObjAddr: 0x53D60, symBinAddr: 0x1004F1380, symSize: 0x0 }
  - { offsetInCU: 0xA79, offset: 0x1DBC1, size: 0x8, addend: 0x0, symName: _.str.60, symObjAddr: 0x53D80, symBinAddr: 0x1004F13A0, symSize: 0x0 }
  - { offsetInCU: 0xA8B, offset: 0x1DBD3, size: 0x8, addend: 0x0, symName: _.str.61, symObjAddr: 0x53DA0, symBinAddr: 0x1004F13C0, symSize: 0x0 }
  - { offsetInCU: 0xA9D, offset: 0x1DBE5, size: 0x8, addend: 0x0, symName: _.str.62, symObjAddr: 0x53DE0, symBinAddr: 0x1004F1400, symSize: 0x0 }
  - { offsetInCU: 0xABB, offset: 0x1DC03, size: 0x8, addend: 0x0, symName: _.str.63, symObjAddr: 0x53E20, symBinAddr: 0x1004F1440, symSize: 0x0 }
  - { offsetInCU: 0xACD, offset: 0x1DC15, size: 0x8, addend: 0x0, symName: _.str.64, symObjAddr: 0x53E60, symBinAddr: 0x1004F1480, symSize: 0x0 }
  - { offsetInCU: 0xADF, offset: 0x1DC27, size: 0x8, addend: 0x0, symName: _.str.65, symObjAddr: 0x53E80, symBinAddr: 0x1004F14A0, symSize: 0x0 }
  - { offsetInCU: 0xAF1, offset: 0x1DC39, size: 0x8, addend: 0x0, symName: _.str.66, symObjAddr: 0x53EA0, symBinAddr: 0x1004F14C0, symSize: 0x0 }
  - { offsetInCU: 0xB0F, offset: 0x1DC57, size: 0x8, addend: 0x0, symName: _.str.67, symObjAddr: 0x53EC0, symBinAddr: 0x1004F14E0, symSize: 0x0 }
  - { offsetInCU: 0xB21, offset: 0x1DC69, size: 0x8, addend: 0x0, symName: _.str.68, symObjAddr: 0x53EE0, symBinAddr: 0x1004F1500, symSize: 0x0 }
  - { offsetInCU: 0xB33, offset: 0x1DC7B, size: 0x8, addend: 0x0, symName: _.str.69, symObjAddr: 0x53F00, symBinAddr: 0x1004F1520, symSize: 0x0 }
  - { offsetInCU: 0xB45, offset: 0x1DC8D, size: 0x8, addend: 0x0, symName: _.str.70, symObjAddr: 0x53F20, symBinAddr: 0x1004F1540, symSize: 0x0 }
  - { offsetInCU: 0xB63, offset: 0x1DCAB, size: 0x8, addend: 0x0, symName: _.str.71, symObjAddr: 0x53F40, symBinAddr: 0x1004F1560, symSize: 0x0 }
  - { offsetInCU: 0xB75, offset: 0x1DCBD, size: 0x8, addend: 0x0, symName: _.str.72, symObjAddr: 0x53F60, symBinAddr: 0x1004F1580, symSize: 0x0 }
  - { offsetInCU: 0xB87, offset: 0x1DCCF, size: 0x8, addend: 0x0, symName: _.str.73, symObjAddr: 0x53F80, symBinAddr: 0x1004F15A0, symSize: 0x0 }
  - { offsetInCU: 0xB99, offset: 0x1DCE1, size: 0x8, addend: 0x0, symName: _.str.74, symObjAddr: 0x53FA0, symBinAddr: 0x1004F15C0, symSize: 0x0 }
  - { offsetInCU: 0xBAB, offset: 0x1DCF3, size: 0x8, addend: 0x0, symName: _.str.75, symObjAddr: 0x53FC0, symBinAddr: 0x1004F15E0, symSize: 0x0 }
  - { offsetInCU: 0xBBD, offset: 0x1DD05, size: 0x8, addend: 0x0, symName: _.str.76, symObjAddr: 0x53FE0, symBinAddr: 0x1004F1600, symSize: 0x0 }
  - { offsetInCU: 0xBCF, offset: 0x1DD17, size: 0x8, addend: 0x0, symName: _.str.77, symObjAddr: 0x54000, symBinAddr: 0x1004F1620, symSize: 0x0 }
  - { offsetInCU: 0xBE1, offset: 0x1DD29, size: 0x8, addend: 0x0, symName: _.str.78, symObjAddr: 0x54020, symBinAddr: 0x1004F1640, symSize: 0x0 }
  - { offsetInCU: 0xBEA, offset: 0x1DD32, size: 0x8, addend: 0x0, symName: __ZL20stbi__process_markerP10stbi__jpegi, symObjAddr: 0x31DD4, symBinAddr: 0x100061510, symSize: 0x1230 }
  - { offsetInCU: 0xC16, offset: 0x1DD5E, size: 0x8, addend: 0x0, symName: __ZZL20stbi__process_markerP10stbi__jpegiE3tag, symObjAddr: 0x54040, symBinAddr: 0x1004F1660, symSize: 0x0 }
  - { offsetInCU: 0xC2D, offset: 0x1DD75, size: 0x8, addend: 0x0, symName: __ZZL20stbi__process_markerP10stbi__jpegiE3tag_0, symObjAddr: 0x54060, symBinAddr: 0x1004F1680, symSize: 0x0 }
  - { offsetInCU: 0xDC9, offset: 0x1DF11, size: 0x8, addend: 0x0, symName: _.str.79, symObjAddr: 0x54080, symBinAddr: 0x1004F16A0, symSize: 0x0 }
  - { offsetInCU: 0xDDF, offset: 0x1DF27, size: 0x8, addend: 0x0, symName: __ZL19stbi__jpeg_dezigzag, symObjAddr: 0x54CE0, symBinAddr: 0x1004E7560, symSize: 0x0 }
  - { offsetInCU: 0xE02, offset: 0x1DF4A, size: 0x8, addend: 0x0, symName: _.str.80, symObjAddr: 0x540A0, symBinAddr: 0x1004F16C0, symSize: 0x0 }
  - { offsetInCU: 0xE14, offset: 0x1DF5C, size: 0x8, addend: 0x0, symName: _.str.81, symObjAddr: 0x540C0, symBinAddr: 0x1004F16E0, symSize: 0x0 }
  - { offsetInCU: 0xE26, offset: 0x1DF6E, size: 0x8, addend: 0x0, symName: _.str.82, symObjAddr: 0x54100, symBinAddr: 0x1004F1720, symSize: 0x0 }
  - { offsetInCU: 0xE38, offset: 0x1DF80, size: 0x8, addend: 0x0, symName: _.str.83, symObjAddr: 0x54120, symBinAddr: 0x1004F1740, symSize: 0x0 }
  - { offsetInCU: 0xE4A, offset: 0x1DF92, size: 0x8, addend: 0x0, symName: _.str.84, symObjAddr: 0x54140, symBinAddr: 0x1004F1760, symSize: 0x0 }
  - { offsetInCU: 0xE5C, offset: 0x1DFA4, size: 0x8, addend: 0x0, symName: _.str.85, symObjAddr: 0x54180, symBinAddr: 0x1004F17A0, symSize: 0x0 }
  - { offsetInCU: 0xE6E, offset: 0x1DFB6, size: 0x8, addend: 0x0, symName: _.str.86, symObjAddr: 0x541A0, symBinAddr: 0x1004F17C0, symSize: 0x0 }
  - { offsetInCU: 0xE77, offset: 0x1DFBF, size: 0x8, addend: 0x0, symName: __ZL26stbi__process_frame_headerP10stbi__jpegi, symObjAddr: 0x33004, symBinAddr: 0x100062740, symSize: 0x2B7C }
  - { offsetInCU: 0xEA3, offset: 0x1DFEB, size: 0x8, addend: 0x0, symName: __ZZL26stbi__process_frame_headerP10stbi__jpegiE3rgb, symObjAddr: 0x54D60, symBinAddr: 0x1004E75E0, symSize: 0x0 }
  - { offsetInCU: 0xF5C, offset: 0x1E0A4, size: 0x8, addend: 0x0, symName: _.str.87, symObjAddr: 0x541E0, symBinAddr: 0x1004F1800, symSize: 0x0 }
  - { offsetInCU: 0xF7A, offset: 0x1E0C2, size: 0x8, addend: 0x0, symName: _.str.88, symObjAddr: 0x54200, symBinAddr: 0x1004F1820, symSize: 0x0 }
  - { offsetInCU: 0xF8C, offset: 0x1E0D4, size: 0x8, addend: 0x0, symName: _.str.89, symObjAddr: 0x54220, symBinAddr: 0x1004F1840, symSize: 0x0 }
  - { offsetInCU: 0xF9E, offset: 0x1E0E6, size: 0x8, addend: 0x0, symName: _.str.90, symObjAddr: 0x54240, symBinAddr: 0x1004F1860, symSize: 0x0 }
  - { offsetInCU: 0xFB0, offset: 0x1E0F8, size: 0x8, addend: 0x0, symName: _.str.91, symObjAddr: 0x54260, symBinAddr: 0x1004F1880, symSize: 0x0 }
  - { offsetInCU: 0xFC2, offset: 0x1E10A, size: 0x8, addend: 0x0, symName: _.str.92, symObjAddr: 0x54280, symBinAddr: 0x1004F18A0, symSize: 0x0 }
  - { offsetInCU: 0xFE0, offset: 0x1E128, size: 0x8, addend: 0x0, symName: _.str.93, symObjAddr: 0x542C0, symBinAddr: 0x1004F18E0, symSize: 0x0 }
  - { offsetInCU: 0xFF2, offset: 0x1E13A, size: 0x8, addend: 0x0, symName: _.str.94, symObjAddr: 0x542E0, symBinAddr: 0x1004F1900, symSize: 0x0 }
  - { offsetInCU: 0x1004, offset: 0x1E14C, size: 0x8, addend: 0x0, symName: _.str.95, symObjAddr: 0x54300, symBinAddr: 0x1004F1920, symSize: 0x0 }
  - { offsetInCU: 0x1016, offset: 0x1E15E, size: 0x8, addend: 0x0, symName: _.str.96, symObjAddr: 0x54320, symBinAddr: 0x1004F1940, symSize: 0x0 }
  - { offsetInCU: 0x1028, offset: 0x1E170, size: 0x8, addend: 0x0, symName: _.str.97, symObjAddr: 0x54340, symBinAddr: 0x1004F1960, symSize: 0x0 }
  - { offsetInCU: 0x103A, offset: 0x1E182, size: 0x8, addend: 0x0, symName: _.str.98, symObjAddr: 0x54380, symBinAddr: 0x1004F19A0, symSize: 0x0 }
  - { offsetInCU: 0x104C, offset: 0x1E194, size: 0x8, addend: 0x0, symName: _.str.99, symObjAddr: 0x543A0, symBinAddr: 0x1004F19C0, symSize: 0x0 }
  - { offsetInCU: 0x105E, offset: 0x1E1A6, size: 0x8, addend: 0x0, symName: ___func__._ZL22stbi__jpeg_huff_decodeP10stbi__jpegP13stbi__huffman, symObjAddr: 0x543E0, symBinAddr: 0x1004F1A00, symSize: 0x0 }
  - { offsetInCU: 0x1070, offset: 0x1E1B8, size: 0x8, addend: 0x0, symName: _.str.100, symObjAddr: 0x54420, symBinAddr: 0x1004F1A40, symSize: 0x0 }
  - { offsetInCU: 0x1092, offset: 0x1E1DA, size: 0x8, addend: 0x0, symName: __ZL11stbi__bmask, symObjAddr: 0x54D80, symBinAddr: 0x1004E7600, symSize: 0x0 }
  - { offsetInCU: 0x10CA, offset: 0x1E212, size: 0x8, addend: 0x0, symName: __ZL11stbi__jbias, symObjAddr: 0x54E00, symBinAddr: 0x1004E7680, symSize: 0x0 }
  - { offsetInCU: 0x10F2, offset: 0x1E23A, size: 0x8, addend: 0x0, symName: _.str.101, symObjAddr: 0x544A0, symBinAddr: 0x1004F1AC0, symSize: 0x0 }
  - { offsetInCU: 0x1104, offset: 0x1E24C, size: 0x8, addend: 0x0, symName: _.str.102, symObjAddr: 0x544C0, symBinAddr: 0x1004F1AE0, symSize: 0x0 }
  - { offsetInCU: 0x1116, offset: 0x1E25E, size: 0x8, addend: 0x0, symName: _.str.103, symObjAddr: 0x54500, symBinAddr: 0x1004F1B20, symSize: 0x0 }
  - { offsetInCU: 0x1128, offset: 0x1E270, size: 0x8, addend: 0x0, symName: _.str.104, symObjAddr: 0x54540, symBinAddr: 0x1004F1B60, symSize: 0x0 }
  - { offsetInCU: 0x113A, offset: 0x1E282, size: 0x8, addend: 0x0, symName: _.str.105, symObjAddr: 0x54560, symBinAddr: 0x1004F1B80, symSize: 0x0 }
  - { offsetInCU: 0x114C, offset: 0x1E294, size: 0x8, addend: 0x0, symName: _.str.106, symObjAddr: 0x54580, symBinAddr: 0x1004F1BA0, symSize: 0x0 }
  - { offsetInCU: 0x115E, offset: 0x1E2A6, size: 0x8, addend: 0x0, symName: _.str.107, symObjAddr: 0x545A0, symBinAddr: 0x1004F1BC0, symSize: 0x0 }
  - { offsetInCU: 0x1170, offset: 0x1E2B8, size: 0x8, addend: 0x0, symName: _.str.108, symObjAddr: 0x545E0, symBinAddr: 0x1004F1C00, symSize: 0x0 }
  - { offsetInCU: 0x1182, offset: 0x1E2CA, size: 0x8, addend: 0x0, symName: _.str.109, symObjAddr: 0x54620, symBinAddr: 0x1004F1C40, symSize: 0x0 }
  - { offsetInCU: 0x11A0, offset: 0x1E2E8, size: 0x8, addend: 0x0, symName: _.str.110, symObjAddr: 0x54640, symBinAddr: 0x1004F1C60, symSize: 0x0 }
  - { offsetInCU: 0x11B2, offset: 0x1E2FA, size: 0x8, addend: 0x0, symName: _.str.111, symObjAddr: 0x54680, symBinAddr: 0x1004F1CA0, symSize: 0x0 }
  - { offsetInCU: 0x11C4, offset: 0x1E30C, size: 0x8, addend: 0x0, symName: _.str.112, symObjAddr: 0x546A0, symBinAddr: 0x1004F1CC0, symSize: 0x0 }
  - { offsetInCU: 0x11D6, offset: 0x1E31E, size: 0x8, addend: 0x0, symName: _.str.113, symObjAddr: 0x546E0, symBinAddr: 0x1004F1D00, symSize: 0x0 }
  - { offsetInCU: 0x11E8, offset: 0x1E330, size: 0x8, addend: 0x0, symName: ___func__._ZL14stbi__tga_loadP13stbi__contextPiS1_S1_iP17stbi__result_info, symObjAddr: 0x54700, symBinAddr: 0x1004F1D20, symSize: 0x0 }
  - { offsetInCU: 0x11FA, offset: 0x1E342, size: 0x8, addend: 0x0, symName: _.str.114, symObjAddr: 0x54720, symBinAddr: 0x1004F1D40, symSize: 0x0 }
  - { offsetInCU: 0x120C, offset: 0x1E354, size: 0x8, addend: 0x0, symName: ___func__._ZL32stbi__load_and_postprocess_16bitP13stbi__contextPiS1_S1_i, symObjAddr: 0x54760, symBinAddr: 0x1004F1D80, symSize: 0x0 }
  - { offsetInCU: 0x122E, offset: 0x1E376, size: 0x8, addend: 0x0, symName: __ZL15stbi__l2h_gamma, symObjAddr: 0x549A0, symBinAddr: 0x100595920, symSize: 0x0 }
  - { offsetInCU: 0x1250, offset: 0x1E398, size: 0x8, addend: 0x0, symName: __ZL15stbi__l2h_scale, symObjAddr: 0x549C0, symBinAddr: 0x100595940, symSize: 0x0 }
  - { offsetInCU: 0x126B, offset: 0x1E3B3, size: 0x8, addend: 0x0, symName: __ZL17stbi__h2l_gamma_i, symObjAddr: 0x549E0, symBinAddr: 0x100595960, symSize: 0x0 }
  - { offsetInCU: 0x1286, offset: 0x1E3CE, size: 0x8, addend: 0x0, symName: __ZL17stbi__h2l_scale_i, symObjAddr: 0x54A00, symBinAddr: 0x100595980, symSize: 0x0 }
  - { offsetInCU: 0x129D, offset: 0x1E3E5, size: 0x8, addend: 0x0, symName: _.str.115, symObjAddr: 0x547C0, symBinAddr: 0x1004F1DE0, symSize: 0x0 }
  - { offsetInCU: 0x12AF, offset: 0x1E3F7, size: 0x8, addend: 0x0, symName: _.str.116, symObjAddr: 0x547E0, symBinAddr: 0x1004F1E00, symSize: 0x0 }
  - { offsetInCU: 0x12C1, offset: 0x1E409, size: 0x8, addend: 0x0, symName: _.str.117, symObjAddr: 0x54800, symBinAddr: 0x1004F1E20, symSize: 0x0 }
  - { offsetInCU: 0x12D3, offset: 0x1E41B, size: 0x8, addend: 0x0, symName: _.str.118, symObjAddr: 0x54820, symBinAddr: 0x1004F1E40, symSize: 0x0 }
  - { offsetInCU: 0x12E5, offset: 0x1E42D, size: 0x8, addend: 0x0, symName: _.str.119, symObjAddr: 0x54860, symBinAddr: 0x1004F1E80, symSize: 0x0 }
  - { offsetInCU: 0x12F7, offset: 0x1E43F, size: 0x8, addend: 0x0, symName: _.str.120, symObjAddr: 0x548A0, symBinAddr: 0x1004F1EC0, symSize: 0x0 }
  - { offsetInCU: 0x1309, offset: 0x1E451, size: 0x8, addend: 0x0, symName: _.str.121, symObjAddr: 0x548C0, symBinAddr: 0x1004F1EE0, symSize: 0x0 }
  - { offsetInCU: 0x131B, offset: 0x1E463, size: 0x8, addend: 0x0, symName: ___func__._ZL17stbi__bit_reverseii, symObjAddr: 0x548E0, symBinAddr: 0x1004F1F00, symSize: 0x0 }
  - { offsetInCU: 0x132D, offset: 0x1E475, size: 0x8, addend: 0x0, symName: _.str.122, symObjAddr: 0x54920, symBinAddr: 0x1004F1F40, symSize: 0x0 }
  - { offsetInCU: 0x1343, offset: 0x1E48B, size: 0x8, addend: 0x0, symName: __ZL21stbi__zdefault_length, symObjAddr: 0x54E60, symBinAddr: 0x1004E76E0, symSize: 0x0 }
  - { offsetInCU: 0x136C, offset: 0x1E4B4, size: 0x8, addend: 0x0, symName: __ZL23stbi__zdefault_distance, symObjAddr: 0x54FC0, symBinAddr: 0x1004E7840, symSize: 0x0 }
  - { offsetInCU: 0x1386, offset: 0x1E4CE, size: 0x8, addend: 0x0, symName: __ZL27stbi__compute_huffman_codesP10stbi__zbuf, symObjAddr: 0x4B138, symBinAddr: 0x10007A874, symSize: 0x8B8 }
  - { offsetInCU: 0x13B2, offset: 0x1E4FA, size: 0x8, addend: 0x0, symName: __ZZL27stbi__compute_huffman_codesP10stbi__zbufE15length_dezigzag, symObjAddr: 0x55000, symBinAddr: 0x1004E7880, symSize: 0x0 }
  - { offsetInCU: 0x14D7, offset: 0x1E61F, size: 0x8, addend: 0x0, symName: _.str.123, symObjAddr: 0x54940, symBinAddr: 0x1004F1F60, symSize: 0x0 }
  - { offsetInCU: 0x14ED, offset: 0x1E635, size: 0x8, addend: 0x0, symName: __ZL18stbi__zlength_base, symObjAddr: 0x55040, symBinAddr: 0x1004E78C0, symSize: 0x0 }
  - { offsetInCU: 0x1514, offset: 0x1E65C, size: 0x8, addend: 0x0, symName: __ZL19stbi__zlength_extra, symObjAddr: 0x550E0, symBinAddr: 0x1004E7960, symSize: 0x0 }
  - { offsetInCU: 0x152F, offset: 0x1E677, size: 0x8, addend: 0x0, symName: __ZL16stbi__zdist_base, symObjAddr: 0x55180, symBinAddr: 0x1004E7A00, symSize: 0x0 }
  - { offsetInCU: 0x1556, offset: 0x1E69E, size: 0x8, addend: 0x0, symName: __ZL17stbi__zdist_extra, symObjAddr: 0x55220, symBinAddr: 0x1004E7AA0, symSize: 0x0 }
  - { offsetInCU: 0x1571, offset: 0x1E6B9, size: 0x8, addend: 0x0, symName: __ZL34stbi__unpremultiply_on_load_global, symObjAddr: 0xA2C80, symBinAddr: 0x100614EE0, symSize: 0x0 }
  - { offsetInCU: 0x158C, offset: 0x1E6D4, size: 0x8, addend: 0x0, symName: __ZL27stbi__de_iphone_flag_global, symObjAddr: 0xA2CA0, symBinAddr: 0x100614F00, symSize: 0x0 }
  - { offsetInCU: 0x15A3, offset: 0x1E6EB, size: 0x8, addend: 0x0, symName: _.str.124, symObjAddr: 0x54960, symBinAddr: 0x1004F1F80, symSize: 0x0 }
  - { offsetInCU: 0x15B5, offset: 0x1E6FD, size: 0x8, addend: 0x0, symName: _.str.125, symObjAddr: 0x54980, symBinAddr: 0x1004F1FA0, symSize: 0x0 }
  - { offsetInCU: 0x4049, offset: 0x21191, size: 0x8, addend: 0x0, symName: __ZNSt3__124__put_character_sequenceB8ue170006IcNS_11char_traitsIcEEEERNS_13basic_ostreamIT_T0_EES7_PKS4_m, symObjAddr: 0x5131C, symBinAddr: 0x100080A58, symSize: 0x744 }
  - { offsetInCU: 0x59FA, offset: 0x22B42, size: 0x8, addend: 0x0, symName: __ZNSt3__1lsB8ue170006INS_11char_traitsIcEEEERNS_13basic_ostreamIcT_EES6_PKc, symObjAddr: 0x8D18, symBinAddr: 0x100038454, symSize: 0x48 }
  - { offsetInCU: 0x5A40, offset: 0x22B88, size: 0x8, addend: 0x0, symName: __ZNSt3__14endlB8ue170006IcNS_11char_traitsIcEEEERNS_13basic_ostreamIT_T0_EES7_, symObjAddr: 0x8D8C, symBinAddr: 0x1000384C8, symSize: 0xD4 }
  - { offsetInCU: 0x5A80, offset: 0x22BC8, size: 0x8, addend: 0x0, symName: __ZNSt3__19use_facetB8ue170006INS_5ctypeIcEEEERKT_RKNS_6localeE, symObjAddr: 0x51234, symBinAddr: 0x100080970, symSize: 0x2C }
  - { offsetInCU: 0x5F56, offset: 0x2309E, size: 0x8, addend: 0x0, symName: __ZNSt3__116__pad_and_outputB8ue170006IcNS_11char_traitsIcEEEENS_19ostreambuf_iteratorIT_T0_EES6_PKS4_S8_S8_RNS_8ios_baseES4_, symObjAddr: 0x51B28, symBinAddr: 0x100081264, symSize: 0x760 }
  - { offsetInCU: 0x6034, offset: 0x2317C, size: 0x8, addend: 0x0, symName: __ZNSt3__112__to_addressB8ue170006IcEEPT_S2_, symObjAddr: 0x52ABC, symBinAddr: 0x1000821F8, symSize: 0x14 }
  - { offsetInCU: 0x609C, offset: 0x231E4, size: 0x8, addend: 0x0, symName: __ZNSt3__118__constexpr_strlenB8ue170006EPKc, symObjAddr: 0x52F40, symBinAddr: 0x10008267C, symSize: 0x24 }
  - { offsetInCU: 0x884D, offset: 0x25995, size: 0x8, addend: 0x0, symName: _stbi_failure_reason, symObjAddr: 0x0, symBinAddr: 0x10002F748, symSize: 0x68 }
  - { offsetInCU: 0x8868, offset: 0x259B0, size: 0x8, addend: 0x0, symName: _stbi_image_free, symObjAddr: 0x68, symBinAddr: 0x10002F7B0, symSize: 0x24 }
  - { offsetInCU: 0x888F, offset: 0x259D7, size: 0x8, addend: 0x0, symName: _stbi_set_flip_vertically_on_load, symObjAddr: 0x8C, symBinAddr: 0x10002F7D4, symSize: 0x1C }
  - { offsetInCU: 0x88B6, offset: 0x259FE, size: 0x8, addend: 0x0, symName: _stbi_set_flip_vertically_on_load_thread, symObjAddr: 0xA8, symBinAddr: 0x10002F7F0, symSize: 0x11C }
  - { offsetInCU: 0x88DD, offset: 0x25A25, size: 0x8, addend: 0x0, symName: _stbi_load, symObjAddr: 0x1C4, symBinAddr: 0x10002F90C, symSize: 0xC4 }
  - { offsetInCU: 0x8962, offset: 0x25AAA, size: 0x8, addend: 0x0, symName: __ZL11stbi__fopenPKcS0_, symObjAddr: 0x288, symBinAddr: 0x10002F9D0, symSize: 0x34 }
  - { offsetInCU: 0x89AF, offset: 0x25AF7, size: 0x8, addend: 0x0, symName: __ZL9stbi__errPKc, symObjAddr: 0x2BC, symBinAddr: 0x10002FA04, symSize: 0x7C }
  - { offsetInCU: 0x89DE, offset: 0x25B26, size: 0x8, addend: 0x0, symName: _stbi_load_from_file, symObjAddr: 0x338, symBinAddr: 0x10002FA80, symSize: 0x338 }
  - { offsetInCU: 0x8A6E, offset: 0x25BB6, size: 0x8, addend: 0x0, symName: __ZL16stbi__start_fileP13stbi__contextP7__sFILE, symObjAddr: 0x670, symBinAddr: 0x10002FDB8, symSize: 0x34 }
  - { offsetInCU: 0x8AA7, offset: 0x25BEF, size: 0x8, addend: 0x0, symName: __ZL31stbi__load_and_postprocess_8bitP13stbi__contextPiS1_S1_i, symObjAddr: 0x6A4, symBinAddr: 0x10002FDEC, symSize: 0x7F8 }
  - { offsetInCU: 0x8B58, offset: 0x25CA0, size: 0x8, addend: 0x0, symName: _stbi_load_from_file_16, symObjAddr: 0xE9C, symBinAddr: 0x1000305E4, symSize: 0x338 }
  - { offsetInCU: 0x8BE7, offset: 0x25D2F, size: 0x8, addend: 0x0, symName: __ZL32stbi__load_and_postprocess_16bitP13stbi__contextPiS1_S1_i, symObjAddr: 0x11D4, symBinAddr: 0x10003091C, symSize: 0x7FC }
  - { offsetInCU: 0x8C98, offset: 0x25DE0, size: 0x8, addend: 0x0, symName: _stbi_load_16, symObjAddr: 0x19D0, symBinAddr: 0x100031118, symSize: 0xC4 }
  - { offsetInCU: 0x8D1D, offset: 0x25E65, size: 0x8, addend: 0x0, symName: _stbi_load_16_from_memory, symObjAddr: 0x1A94, symBinAddr: 0x1000311DC, symSize: 0x27C }
  - { offsetInCU: 0x8DAD, offset: 0x25EF5, size: 0x8, addend: 0x0, symName: __ZL15stbi__start_memP13stbi__contextPKhi, symObjAddr: 0x1D10, symBinAddr: 0x100031458, symSize: 0x268 }
  - { offsetInCU: 0x8DF5, offset: 0x25F3D, size: 0x8, addend: 0x0, symName: _stbi_load_16_from_callbacks, symObjAddr: 0x1F78, symBinAddr: 0x1000316C0, symSize: 0x27C }
  - { offsetInCU: 0x8E85, offset: 0x25FCD, size: 0x8, addend: 0x0, symName: __ZL21stbi__start_callbacksP13stbi__contextP17stbi_io_callbacksPv, symObjAddr: 0x21F4, symBinAddr: 0x10003193C, symSize: 0x2F8 }
  - { offsetInCU: 0x8ECD, offset: 0x26015, size: 0x8, addend: 0x0, symName: _stbi_load_from_memory, symObjAddr: 0x24EC, symBinAddr: 0x100031C34, symSize: 0x27C }
  - { offsetInCU: 0x8F5C, offset: 0x260A4, size: 0x8, addend: 0x0, symName: _stbi_load_from_callbacks, symObjAddr: 0x2768, symBinAddr: 0x100031EB0, symSize: 0x27C }
  - { offsetInCU: 0x8FEB, offset: 0x26133, size: 0x8, addend: 0x0, symName: _stbi_load_gif_from_memory, symObjAddr: 0x29E4, symBinAddr: 0x10003212C, symSize: 0x4F8 }
  - { offsetInCU: 0x90AA, offset: 0x261F2, size: 0x8, addend: 0x0, symName: __ZL19stbi__load_gif_mainP13stbi__contextPPiS1_S1_S1_S1_i, symObjAddr: 0x2EDC, symBinAddr: 0x100032624, symSize: 0xCD0 }
  - { offsetInCU: 0x91FA, offset: 0x26342, size: 0x8, addend: 0x0, symName: __ZL26stbi__vertical_flip_slicesPviiii, symObjAddr: 0x3BAC, symBinAddr: 0x1000332F4, symSize: 0xA4 }
  - { offsetInCU: 0x928D, offset: 0x263D5, size: 0x8, addend: 0x0, symName: _stbi_loadf_from_memory, symObjAddr: 0x3C50, symBinAddr: 0x100033398, symSize: 0x27C }
  - { offsetInCU: 0x931C, offset: 0x26464, size: 0x8, addend: 0x0, symName: __ZL16stbi__loadf_mainP13stbi__contextPiS1_S1_i, symObjAddr: 0x3ECC, symBinAddr: 0x100033614, symSize: 0x454 }
  - { offsetInCU: 0x93CD, offset: 0x26515, size: 0x8, addend: 0x0, symName: _stbi_loadf_from_callbacks, symObjAddr: 0x4320, symBinAddr: 0x100033A68, symSize: 0x27C }
  - { offsetInCU: 0x945C, offset: 0x265A4, size: 0x8, addend: 0x0, symName: _stbi_loadf, symObjAddr: 0x459C, symBinAddr: 0x100033CE4, symSize: 0xC4 }
  - { offsetInCU: 0x94E1, offset: 0x26629, size: 0x8, addend: 0x0, symName: _stbi_loadf_from_file, symObjAddr: 0x4660, symBinAddr: 0x100033DA8, symSize: 0x274 }
  - { offsetInCU: 0x9560, offset: 0x266A8, size: 0x8, addend: 0x0, symName: _stbi_is_hdr_from_memory, symObjAddr: 0x48D4, symBinAddr: 0x10003401C, symSize: 0x25C }
  - { offsetInCU: 0x95AF, offset: 0x266F7, size: 0x8, addend: 0x0, symName: __ZL14stbi__hdr_testP13stbi__context, symObjAddr: 0x4B30, symBinAddr: 0x100034278, symSize: 0x70 }
  - { offsetInCU: 0x95ED, offset: 0x26735, size: 0x8, addend: 0x0, symName: _stbi_is_hdr, symObjAddr: 0x4BA0, symBinAddr: 0x1000342E8, symSize: 0x64 }
  - { offsetInCU: 0x9636, offset: 0x2677E, size: 0x8, addend: 0x0, symName: _stbi_is_hdr_from_file, symObjAddr: 0x4C04, symBinAddr: 0x10003434C, symSize: 0x28C }
  - { offsetInCU: 0x9695, offset: 0x267DD, size: 0x8, addend: 0x0, symName: _stbi_is_hdr_from_callbacks, symObjAddr: 0x4E90, symBinAddr: 0x1000345D8, symSize: 0x25C }
  - { offsetInCU: 0x96E4, offset: 0x2682C, size: 0x8, addend: 0x0, symName: _stbi_ldr_to_hdr_gamma, symObjAddr: 0x50EC, symBinAddr: 0x100034834, symSize: 0x1C }
  - { offsetInCU: 0x970B, offset: 0x26853, size: 0x8, addend: 0x0, symName: _stbi_ldr_to_hdr_scale, symObjAddr: 0x5108, symBinAddr: 0x100034850, symSize: 0x1C }
  - { offsetInCU: 0x9732, offset: 0x2687A, size: 0x8, addend: 0x0, symName: _stbi_hdr_to_ldr_gamma, symObjAddr: 0x5124, symBinAddr: 0x10003486C, symSize: 0x24 }
  - { offsetInCU: 0x9759, offset: 0x268A1, size: 0x8, addend: 0x0, symName: _stbi_hdr_to_ldr_scale, symObjAddr: 0x5148, symBinAddr: 0x100034890, symSize: 0x24 }
  - { offsetInCU: 0x9780, offset: 0x268C8, size: 0x8, addend: 0x0, symName: _stbi_zlib_decode_malloc_guesssize, symObjAddr: 0x516C, symBinAddr: 0x1000348B4, symSize: 0x470 }
  - { offsetInCU: 0x97FF, offset: 0x26947, size: 0x8, addend: 0x0, symName: __ZL12stbi__mallocm, symObjAddr: 0x55DC, symBinAddr: 0x100034D24, symSize: 0x24 }
  - { offsetInCU: 0x982E, offset: 0x26976, size: 0x8, addend: 0x0, symName: __ZL13stbi__do_zlibP10stbi__zbufPciii, symObjAddr: 0x5600, symBinAddr: 0x100034D48, symSize: 0x1A4 }
  - { offsetInCU: 0x9899, offset: 0x269E1, size: 0x8, addend: 0x0, symName: _stbi_zlib_decode_malloc, symObjAddr: 0x57A4, symBinAddr: 0x100034EEC, symSize: 0x38 }
  - { offsetInCU: 0x98E2, offset: 0x26A2A, size: 0x8, addend: 0x0, symName: _stbi_zlib_decode_malloc_guesssize_headerflag, symObjAddr: 0x57DC, symBinAddr: 0x100034F24, symSize: 0x474 }
  - { offsetInCU: 0x9971, offset: 0x26AB9, size: 0x8, addend: 0x0, symName: _stbi_zlib_decode_buffer, symObjAddr: 0x5C50, symBinAddr: 0x100035398, symSize: 0x344 }
  - { offsetInCU: 0x99E0, offset: 0x26B28, size: 0x8, addend: 0x0, symName: _stbi_zlib_decode_noheader_malloc, symObjAddr: 0x5F94, symBinAddr: 0x1000356DC, symSize: 0x46C }
  - { offsetInCU: 0x9A4F, offset: 0x26B97, size: 0x8, addend: 0x0, symName: _stbi_zlib_decode_noheader_buffer, symObjAddr: 0x6400, symBinAddr: 0x100035B48, symSize: 0x344 }
  - { offsetInCU: 0x9ABE, offset: 0x26C06, size: 0x8, addend: 0x0, symName: _stbi_set_unpremultiply_on_load, symObjAddr: 0x6744, symBinAddr: 0x100035E8C, symSize: 0x1C }
  - { offsetInCU: 0x9AE5, offset: 0x26C2D, size: 0x8, addend: 0x0, symName: _stbi_convert_iphone_png_to_rgb, symObjAddr: 0x6760, symBinAddr: 0x100035EA8, symSize: 0x1C }
  - { offsetInCU: 0x9B0C, offset: 0x26C54, size: 0x8, addend: 0x0, symName: _stbi_set_unpremultiply_on_load_thread, symObjAddr: 0x677C, symBinAddr: 0x100035EC4, symSize: 0x11C }
  - { offsetInCU: 0x9B33, offset: 0x26C7B, size: 0x8, addend: 0x0, symName: _stbi_convert_iphone_png_to_rgb_thread, symObjAddr: 0x6898, symBinAddr: 0x100035FE0, symSize: 0x11C }
  - { offsetInCU: 0x9B5A, offset: 0x26CA2, size: 0x8, addend: 0x0, symName: _stbi_info, symObjAddr: 0x69B4, symBinAddr: 0x1000360FC, symSize: 0xA4 }
  - { offsetInCU: 0x9BD0, offset: 0x26D18, size: 0x8, addend: 0x0, symName: _stbi_info_from_file, symObjAddr: 0x6A58, symBinAddr: 0x1000361A0, symSize: 0x2A0 }
  - { offsetInCU: 0x9C5F, offset: 0x26DA7, size: 0x8, addend: 0x0, symName: __ZL15stbi__info_mainP13stbi__contextPiS1_S1_, symObjAddr: 0x6CF8, symBinAddr: 0x100036440, symSize: 0x1F0 }
  - { offsetInCU: 0x9CBB, offset: 0x26E03, size: 0x8, addend: 0x0, symName: _stbi_is_16_bit, symObjAddr: 0x6EE8, symBinAddr: 0x100036630, symSize: 0x8C }
  - { offsetInCU: 0x9D04, offset: 0x26E4C, size: 0x8, addend: 0x0, symName: _stbi_is_16_bit_from_file, symObjAddr: 0x6F74, symBinAddr: 0x1000366BC, symSize: 0x288 }
  - { offsetInCU: 0x9D63, offset: 0x26EAB, size: 0x8, addend: 0x0, symName: __ZL16stbi__is_16_mainP13stbi__context, symObjAddr: 0x71FC, symBinAddr: 0x100036944, symSize: 0x94 }
  - { offsetInCU: 0x9D92, offset: 0x26EDA, size: 0x8, addend: 0x0, symName: _stbi_info_from_memory, symObjAddr: 0x7290, symBinAddr: 0x1000369D8, symSize: 0x274 }
  - { offsetInCU: 0x9E11, offset: 0x26F59, size: 0x8, addend: 0x0, symName: _stbi_info_from_callbacks, symObjAddr: 0x7504, symBinAddr: 0x100036C4C, symSize: 0x274 }
  - { offsetInCU: 0x9E90, offset: 0x26FD8, size: 0x8, addend: 0x0, symName: _stbi_is_16_bit_from_memory, symObjAddr: 0x7778, symBinAddr: 0x100036EC0, symSize: 0x25C }
  - { offsetInCU: 0x9EDF, offset: 0x27027, size: 0x8, addend: 0x0, symName: _stbi_is_16_bit_from_callbacks, symObjAddr: 0x79D4, symBinAddr: 0x10003711C, symSize: 0x25C }
  - { offsetInCU: 0xA098, offset: 0x271E0, size: 0x8, addend: 0x0, symName: __ZN5ImageC2Ejj11ImageFormat, symObjAddr: 0x7C30, symBinAddr: 0x100037378, symSize: 0x214 }
  - { offsetInCU: 0xA0ED, offset: 0x27235, size: 0x8, addend: 0x0, symName: __ZN5ImageC1Ejj11ImageFormat, symObjAddr: 0x7E44, symBinAddr: 0x10003758C, symSize: 0x44 }
  - { offsetInCU: 0xA142, offset: 0x2728A, size: 0x8, addend: 0x0, symName: __ZN5ImageD2Ev, symObjAddr: 0x7E88, symBinAddr: 0x1000375D0, symSize: 0x90 }
  - { offsetInCU: 0xA16D, offset: 0x272B5, size: 0x8, addend: 0x0, symName: __ZN5ImageD1Ev, symObjAddr: 0x7F24, symBinAddr: 0x100037660, symSize: 0x2C }
  - { offsetInCU: 0xA198, offset: 0x272E0, size: 0x8, addend: 0x0, symName: __ZN5Image13GenerateImageEv, symObjAddr: 0x7F50, symBinAddr: 0x10003768C, symSize: 0x4F8 }
  - { offsetInCU: 0xA1CC, offset: 0x27314, size: 0x8, addend: 0x0, symName: __ZN5Image19LoadTextureFromFIleEPKc, symObjAddr: 0x8448, symBinAddr: 0x100037B84, symSize: 0x8D0 }
  - { offsetInCU: 0xA256, offset: 0x2739E, size: 0x8, addend: 0x0, symName: __ZNSt3__113basic_ostreamIcNS_11char_traitsIcEEElsB8ue170006EPFRS3_S4_E, symObjAddr: 0x8D60, symBinAddr: 0x10003849C, symSize: 0x2C }
  - { offsetInCU: 0xA287, offset: 0x273CF, size: 0x8, addend: 0x0, symName: __ZL16stbi__stdio_readPvPci, symObjAddr: 0x8E60, symBinAddr: 0x10003859C, symSize: 0x38 }
  - { offsetInCU: 0xA2D5, offset: 0x2741D, size: 0x8, addend: 0x0, symName: __ZL16stbi__stdio_skipPvi, symObjAddr: 0x8E98, symBinAddr: 0x1000385D4, symSize: 0x60 }
  - { offsetInCU: 0xA31D, offset: 0x27465, size: 0x8, addend: 0x0, symName: __ZL15stbi__stdio_eofPv, symObjAddr: 0x8EF8, symBinAddr: 0x100038634, symSize: 0x5C }
  - { offsetInCU: 0xA34C, offset: 0x27494, size: 0x8, addend: 0x0, symName: __ZL15stbi__load_mainP13stbi__contextPiS1_S1_iP17stbi__result_infoi, symObjAddr: 0x8F54, symBinAddr: 0x100038690, symSize: 0x560 }
  - { offsetInCU: 0xA3F5, offset: 0x2753D, size: 0x8, addend: 0x0, symName: __ZL21stbi__convert_16_to_8Ptiii, symObjAddr: 0x94B4, symBinAddr: 0x100038BF0, symSize: 0x1DC }
  - { offsetInCU: 0xA47F, offset: 0x275C7, size: 0x8, addend: 0x0, symName: __ZL19stbi__vertical_flipPviii, symObjAddr: 0x9690, symBinAddr: 0x100038DCC, symSize: 0x324 }
  - { offsetInCU: 0xA579, offset: 0x276C1, size: 0x8, addend: 0x0, symName: __ZL14stbi__png_testP13stbi__context, symObjAddr: 0x99B4, symBinAddr: 0x1000390F0, symSize: 0x34 }
  - { offsetInCU: 0xA5B7, offset: 0x276FF, size: 0x8, addend: 0x0, symName: __ZL14stbi__png_loadP13stbi__contextPiS1_S1_iP17stbi__result_info, symObjAddr: 0x99E8, symBinAddr: 0x100039124, symSize: 0x274 }
  - { offsetInCU: 0xA64A, offset: 0x27792, size: 0x8, addend: 0x0, symName: __ZL14stbi__bmp_testP13stbi__context, symObjAddr: 0x9C5C, symBinAddr: 0x100039398, symSize: 0x34 }
  - { offsetInCU: 0xA688, offset: 0x277D0, size: 0x8, addend: 0x0, symName: __ZL14stbi__bmp_loadP13stbi__contextPiS1_S1_iP17stbi__result_info, symObjAddr: 0x9C90, symBinAddr: 0x1000393CC, symSize: 0x43B0 }
  - { offsetInCU: 0xAA1D, offset: 0x27B65, size: 0x8, addend: 0x0, symName: __ZL14stbi__gif_testP13stbi__context, symObjAddr: 0xE040, symBinAddr: 0x10003D77C, symSize: 0x34 }
  - { offsetInCU: 0xAA5B, offset: 0x27BA3, size: 0x8, addend: 0x0, symName: __ZL14stbi__gif_loadP13stbi__contextPiS1_S1_iP17stbi__result_info, symObjAddr: 0xE074, symBinAddr: 0x10003D7B0, symSize: 0x65C }
  - { offsetInCU: 0xAAFE, offset: 0x27C46, size: 0x8, addend: 0x0, symName: __ZL14stbi__psd_testP13stbi__context, symObjAddr: 0xE6D0, symBinAddr: 0x10003DE0C, symSize: 0x48 }
  - { offsetInCU: 0xAB3C, offset: 0x27C84, size: 0x8, addend: 0x0, symName: __ZL14stbi__psd_loadP13stbi__contextPiS1_S1_iP17stbi__result_infoi, symObjAddr: 0xE718, symBinAddr: 0x10003DE54, symSize: 0x18C4 }
  - { offsetInCU: 0xADBE, offset: 0x27F06, size: 0x8, addend: 0x0, symName: __ZL14stbi__pic_testP13stbi__context, symObjAddr: 0xFFDC, symBinAddr: 0x10003F718, symSize: 0x34 }
  - { offsetInCU: 0xADFC, offset: 0x27F44, size: 0x8, addend: 0x0, symName: __ZL14stbi__pic_loadP13stbi__contextPiS1_S1_iP17stbi__result_info, symObjAddr: 0x10010, symBinAddr: 0x10003F74C, symSize: 0x5FC }
  - { offsetInCU: 0xAECF, offset: 0x28017, size: 0x8, addend: 0x0, symName: __ZL15stbi__jpeg_testP13stbi__context, symObjAddr: 0x1060C, symBinAddr: 0x10003FD48, symSize: 0x104 }
  - { offsetInCU: 0xAF1C, offset: 0x28064, size: 0x8, addend: 0x0, symName: __ZL15stbi__jpeg_loadP13stbi__contextPiS1_S1_iP17stbi__result_info, symObjAddr: 0x10710, symBinAddr: 0x10003FE4C, symSize: 0x130 }
  - { offsetInCU: 0xAFB4, offset: 0x280FC, size: 0x8, addend: 0x0, symName: __ZL14stbi__pnm_testP13stbi__context, symObjAddr: 0x10840, symBinAddr: 0x10003FF7C, symSize: 0x9C }
  - { offsetInCU: 0xB001, offset: 0x28149, size: 0x8, addend: 0x0, symName: __ZL14stbi__pnm_loadP13stbi__contextPiS1_S1_iP17stbi__result_info, symObjAddr: 0x108DC, symBinAddr: 0x100040018, symSize: 0xF9C }
  - { offsetInCU: 0xB08C, offset: 0x281D4, size: 0x8, addend: 0x0, symName: __ZL14stbi__hdr_loadP13stbi__contextPiS1_S1_iP17stbi__result_info, symObjAddr: 0x11878, symBinAddr: 0x100040FB4, symSize: 0x1210 }
  - { offsetInCU: 0xB28F, offset: 0x283D7, size: 0x8, addend: 0x0, symName: __ZL16stbi__hdr_to_ldrPfiii, symObjAddr: 0x12A88, symBinAddr: 0x1000421C4, symSize: 0x480 }
  - { offsetInCU: 0xB361, offset: 0x284A9, size: 0x8, addend: 0x0, symName: __ZL14stbi__tga_testP13stbi__context, symObjAddr: 0x12F08, symBinAddr: 0x100042644, symSize: 0x2A0 }
  - { offsetInCU: 0xB3CE, offset: 0x28516, size: 0x8, addend: 0x0, symName: __ZL14stbi__tga_loadP13stbi__contextPiS1_S1_iP17stbi__result_info, symObjAddr: 0x131A8, symBinAddr: 0x1000428E4, symSize: 0x154C }
  - { offsetInCU: 0xB6D5, offset: 0x2881D, size: 0x8, addend: 0x0, symName: __ZL12stbi__rewindP13stbi__context, symObjAddr: 0x1480C, symBinAddr: 0x100043F48, symSize: 0x138 }
  - { offsetInCU: 0xB6FF, offset: 0x28847, size: 0x8, addend: 0x0, symName: __ZL10stbi__get8P13stbi__context, symObjAddr: 0x14944, symBinAddr: 0x100044080, symSize: 0x2A4 }
  - { offsetInCU: 0xB72F, offset: 0x28877, size: 0x8, addend: 0x0, symName: __ZL19stbi__refill_bufferP13stbi__context, symObjAddr: 0x14BE8, symBinAddr: 0x100044324, symSize: 0x4AC }
  - { offsetInCU: 0xB768, offset: 0x288B0, size: 0x8, addend: 0x0, symName: __ZL12stbi__do_pngP9stbi__pngPiS1_S1_iP17stbi__result_info, symObjAddr: 0x15094, symBinAddr: 0x1000447D0, symSize: 0xE68 }
  - { offsetInCU: 0xB7F3, offset: 0x2893B, size: 0x8, addend: 0x0, symName: __ZL20stbi__convert_formatPhiijj, symObjAddr: 0x19750, symBinAddr: 0x100048E8C, symSize: 0x1CB0 }
  - { offsetInCU: 0xB8B9, offset: 0x28A01, size: 0x8, addend: 0x0, symName: __ZL22stbi__convert_format16Ptiijj, symObjAddr: 0x1B468, symBinAddr: 0x10004ABA4, symSize: 0x1D9C }
  - { offsetInCU: 0xB97F, offset: 0x28AC7, size: 0x8, addend: 0x0, symName: __ZL22stbi__get_chunk_headerP13stbi__context, symObjAddr: 0x1D26C, symBinAddr: 0x10004C9A8, symSize: 0x354 }
  - { offsetInCU: 0xB9C3, offset: 0x28B0B, size: 0x8, addend: 0x0, symName: __ZL10stbi__skipP13stbi__contexti, symObjAddr: 0x1D5C0, symBinAddr: 0x10004CCFC, symSize: 0x390 }
  - { offsetInCU: 0xBA12, offset: 0x28B5A, size: 0x8, addend: 0x0, symName: __ZL13stbi__get32beP13stbi__context, symObjAddr: 0x1D950, symBinAddr: 0x10004D08C, symSize: 0x40 }
  - { offsetInCU: 0xBA50, offset: 0x28B98, size: 0x8, addend: 0x0, symName: __ZL13stbi__get16beP13stbi__context, symObjAddr: 0x1D990, symBinAddr: 0x10004D0CC, symSize: 0x48 }
  - { offsetInCU: 0xBA8E, offset: 0x28BD6, size: 0x8, addend: 0x0, symName: __ZL10stbi__getnP13stbi__contextPhi, symObjAddr: 0x1D9D8, symBinAddr: 0x10004D114, symSize: 0x46C }
  - { offsetInCU: 0xBB1D, offset: 0x28C65, size: 0x8, addend: 0x0, symName: __ZL22stbi__create_png_imageP9stbi__pngPhjiiii, symObjAddr: 0x1DE44, symBinAddr: 0x10004D580, symSize: 0x1080 }
  - { offsetInCU: 0xBCC7, offset: 0x28E0F, size: 0x8, addend: 0x0, symName: __ZL28stbi__compute_transparency16P9stbi__pngPti, symObjAddr: 0x1EEC4, symBinAddr: 0x10004E600, symSize: 0x714 }
  - { offsetInCU: 0xBD50, offset: 0x28E98, size: 0x8, addend: 0x0, symName: __ZL26stbi__compute_transparencyP9stbi__pngPhi, symObjAddr: 0x1F5D8, symBinAddr: 0x10004ED14, symSize: 0x6EC }
  - { offsetInCU: 0xBDDA, offset: 0x28F22, size: 0x8, addend: 0x0, symName: __ZL15stbi__de_iphoneP9stbi__png, symObjAddr: 0x1FCC4, symBinAddr: 0x10004F400, symSize: 0xC3C }
  - { offsetInCU: 0xBEC3, offset: 0x2900B, size: 0x8, addend: 0x0, symName: __ZL24stbi__expand_png_paletteP9stbi__pngPhii, symObjAddr: 0x20900, symBinAddr: 0x10005003C, symSize: 0xA10 }
  - { offsetInCU: 0xBFA8, offset: 0x290F0, size: 0x8, addend: 0x0, symName: __ZL26stbi__create_png_image_rawP9stbi__pngPhjijjii, symObjAddr: 0x21310, symBinAddr: 0x100050A4C, symSize: 0x5150 }
  - { offsetInCU: 0xC1DF, offset: 0x29327, size: 0x8, addend: 0x0, symName: __ZL17stbi__malloc_mad3iiii, symObjAddr: 0x264B4, symBinAddr: 0x100055BF0, symSize: 0x88 }
  - { offsetInCU: 0xC23B, offset: 0x29383, size: 0x8, addend: 0x0, symName: __ZL21stbi__mad3sizes_validiiii, symObjAddr: 0x2653C, symBinAddr: 0x100055C78, symSize: 0xAC }
  - { offsetInCU: 0xC297, offset: 0x293DF, size: 0x8, addend: 0x0, symName: __ZL11stbi__paethiii, symObjAddr: 0x265E8, symBinAddr: 0x100055D24, symSize: 0x100 }
  - { offsetInCU: 0xC321, offset: 0x29469, size: 0x8, addend: 0x0, symName: __ZL21stbi__mul2sizes_validii, symObjAddr: 0x266E8, symBinAddr: 0x100055E24, symSize: 0x8C }
  - { offsetInCU: 0xC35F, offset: 0x294A7, size: 0x8, addend: 0x0, symName: __ZL20stbi__addsizes_validii, symObjAddr: 0x26774, symBinAddr: 0x100055EB0, symSize: 0x58 }
  - { offsetInCU: 0xC39C, offset: 0x294E4, size: 0x8, addend: 0x0, symName: __ZL17stbi__malloc_mad2iii, symObjAddr: 0x267CC, symBinAddr: 0x100055F08, symSize: 0x78 }
  - { offsetInCU: 0xC3E9, offset: 0x29531, size: 0x8, addend: 0x0, symName: __ZL21stbi__mad2sizes_validiii, symObjAddr: 0x26844, symBinAddr: 0x100055F80, symSize: 0x74 }
  - { offsetInCU: 0xC437, offset: 0x2957F, size: 0x8, addend: 0x0, symName: __ZL15stbi__compute_yiii, symObjAddr: 0x268B8, symBinAddr: 0x100055FF4, symSize: 0x4C }
  - { offsetInCU: 0xC484, offset: 0x295CC, size: 0x8, addend: 0x0, symName: __ZL18stbi__compute_y_16iii, symObjAddr: 0x26904, symBinAddr: 0x100056040, symSize: 0x4C }
  - { offsetInCU: 0xC4D0, offset: 0x29618, size: 0x8, addend: 0x0, symName: __ZL18stbi__bmp_test_rawP13stbi__context, symObjAddr: 0x26950, symBinAddr: 0x10005608C, symSize: 0x148 }
  - { offsetInCU: 0xC51D, offset: 0x29665, size: 0x8, addend: 0x0, symName: __ZL13stbi__get32leP13stbi__context, symObjAddr: 0x26A98, symBinAddr: 0x1000561D4, symSize: 0x40 }
  - { offsetInCU: 0xC55B, offset: 0x296A3, size: 0x8, addend: 0x0, symName: __ZL13stbi__get16leP13stbi__context, symObjAddr: 0x26AD8, symBinAddr: 0x100056214, symSize: 0x48 }
  - { offsetInCU: 0xC599, offset: 0x296E1, size: 0x8, addend: 0x0, symName: __ZL22stbi__bmp_parse_headerP13stbi__contextP14stbi__bmp_data, symObjAddr: 0x26B20, symBinAddr: 0x10005625C, symSize: 0x12A0 }
  - { offsetInCU: 0xC61A, offset: 0x29762, size: 0x8, addend: 0x0, symName: __ZL14stbi__high_bitj, symObjAddr: 0x27DC0, symBinAddr: 0x1000574FC, symSize: 0x138 }
  - { offsetInCU: 0xC658, offset: 0x297A0, size: 0x8, addend: 0x0, symName: __ZL14stbi__bitcountj, symObjAddr: 0x27EF8, symBinAddr: 0x100057634, symSize: 0x80 }
  - { offsetInCU: 0xC686, offset: 0x297CE, size: 0x8, addend: 0x0, symName: __ZL27stbi__bmp_set_mask_defaultsP14stbi__bmp_datai, symObjAddr: 0x281A4, symBinAddr: 0x1000578E0, symSize: 0x678 }
  - { offsetInCU: 0xC6C4, offset: 0x2980C, size: 0x8, addend: 0x0, symName: __ZL18stbi__gif_test_rawP13stbi__context, symObjAddr: 0x2881C, symBinAddr: 0x100057F58, symSize: 0x124 }
  - { offsetInCU: 0xC702, offset: 0x2984A, size: 0x8, addend: 0x0, symName: __ZL19stbi__gif_load_nextP13stbi__contextP9stbi__gifPiiPh, symObjAddr: 0x28940, symBinAddr: 0x10005807C, symSize: 0x2830 }
  - { offsetInCU: 0xC857, offset: 0x2999F, size: 0x8, addend: 0x0, symName: __ZL16stbi__gif_headerP13stbi__contextP9stbi__gifPii, symObjAddr: 0x2B170, symBinAddr: 0x10005A8AC, symSize: 0x714 }
  - { offsetInCU: 0xC8C3, offset: 0x29A0B, size: 0x8, addend: 0x0, symName: __ZL26stbi__gif_parse_colortableP13stbi__contextPA4_hii, symObjAddr: 0x2B884, symBinAddr: 0x10005AFC0, symSize: 0x274 }
  - { offsetInCU: 0xC929, offset: 0x29A71, size: 0x8, addend: 0x0, symName: __ZL24stbi__process_gif_rasterP13stbi__contextP9stbi__gif, symObjAddr: 0x2BAF8, symBinAddr: 0x10005B234, symSize: 0x924 }
  - { offsetInCU: 0xCA40, offset: 0x29B88, size: 0x8, addend: 0x0, symName: __ZL18stbi__out_gif_codeP9stbi__gift, symObjAddr: 0x2C41C, symBinAddr: 0x10005BB58, symSize: 0x107C }
  - { offsetInCU: 0xCAA6, offset: 0x29BEE, size: 0x8, addend: 0x0, symName: __ZL20stbi__psd_decode_rleP13stbi__contextPhi, symObjAddr: 0x2D498, symBinAddr: 0x10005CBD4, symSize: 0x2CC }
  - { offsetInCU: 0xCB36, offset: 0x29C7E, size: 0x8, addend: 0x0, symName: __ZL19stbi__pic_test_coreP13stbi__context, symObjAddr: 0x2D764, symBinAddr: 0x10005CEA0, symSize: 0xC8 }
  - { offsetInCU: 0xCB74, offset: 0x29CBC, size: 0x8, addend: 0x0, symName: __ZL13stbi__pic_is4P13stbi__contextPKc, symObjAddr: 0x2D82C, symBinAddr: 0x10005CF68, symSize: 0x10C }
  - { offsetInCU: 0xCBC1, offset: 0x29D09, size: 0x8, addend: 0x0, symName: __ZL12stbi__at_eofP13stbi__context, symObjAddr: 0x2D938, symBinAddr: 0x10005D074, symSize: 0x244 }
  - { offsetInCU: 0xCBF0, offset: 0x29D38, size: 0x8, addend: 0x0, symName: __ZL19stbi__pic_load_coreP13stbi__contextiiPiPh, symObjAddr: 0x2DB7C, symBinAddr: 0x10005D2B8, symSize: 0xF50 }
  - { offsetInCU: 0xCDEB, offset: 0x29F33, size: 0x8, addend: 0x0, symName: __ZL13stbi__readvalP13stbi__contextiPh, symObjAddr: 0x2EACC, symBinAddr: 0x10005E208, symSize: 0x170 }
  - { offsetInCU: 0xCE57, offset: 0x29F9F, size: 0x8, addend: 0x0, symName: __ZL13stbi__copyvaliPhPKh, symObjAddr: 0x2EC3C, symBinAddr: 0x10005E378, symSize: 0x16C }
  - { offsetInCU: 0xCEBE, offset: 0x2A006, size: 0x8, addend: 0x0, symName: __ZL16stbi__setup_jpegP10stbi__jpeg, symObjAddr: 0x2EDA8, symBinAddr: 0x10005E4E4, symSize: 0x10C }
  - { offsetInCU: 0xCEE8, offset: 0x2A030, size: 0x8, addend: 0x0, symName: __ZL24stbi__decode_jpeg_headerP10stbi__jpegi, symObjAddr: 0x2EEB4, symBinAddr: 0x10005E5F0, symSize: 0x3E0 }
  - { offsetInCU: 0xCF36, offset: 0x2A07E, size: 0x8, addend: 0x0, symName: __ZL16stbi__idct_blockPhiPs, symObjAddr: 0x2F294, symBinAddr: 0x10005E9D0, symSize: 0x1D2C }
  - { offsetInCU: 0xD1AF, offset: 0x2A2F7, size: 0x8, addend: 0x0, symName: __ZL22stbi__YCbCr_to_RGB_rowPhPKhS1_S1_ii, symObjAddr: 0x30FC0, symBinAddr: 0x1000606FC, symSize: 0x4E4 }
  - { offsetInCU: 0xD2A0, offset: 0x2A3E8, size: 0x8, addend: 0x0, symName: __ZL23stbi__resample_row_hv_2PhS_S_ii, symObjAddr: 0x314A4, symBinAddr: 0x100060BE0, symSize: 0x64C }
  - { offsetInCU: 0xD33A, offset: 0x2A482, size: 0x8, addend: 0x0, symName: __ZL11stbi__clampi, symObjAddr: 0x31AF0, symBinAddr: 0x10006122C, symSize: 0x74 }
  - { offsetInCU: 0xD368, offset: 0x2A4B0, size: 0x8, addend: 0x0, symName: __ZL16stbi__get_markerP10stbi__jpeg, symObjAddr: 0x31B64, symBinAddr: 0x1000612A0, symSize: 0x270 }
  - { offsetInCU: 0xD3A6, offset: 0x2A4EE, size: 0x8, addend: 0x0, symName: __ZL19stbi__build_huffmanP13stbi__huffmanPi, symObjAddr: 0x35B80, symBinAddr: 0x1000652BC, symSize: 0x804 }
  - { offsetInCU: 0xD46C, offset: 0x2A5B4, size: 0x8, addend: 0x0, symName: __ZL19stbi__build_fast_acPsP13stbi__huffman, symObjAddr: 0x36384, symBinAddr: 0x100065AC0, symSize: 0x3B0 }
  - { offsetInCU: 0xD547, offset: 0x2A68F, size: 0x8, addend: 0x0, symName: __ZL26stbi__free_jpeg_componentsP10stbi__jpegii, symObjAddr: 0x36734, symBinAddr: 0x100065E70, symSize: 0x47C }
  - { offsetInCU: 0xD5A3, offset: 0x2A6EB, size: 0x8, addend: 0x0, symName: __ZL15load_jpeg_imageP10stbi__jpegPiS1_S1_i, symObjAddr: 0x36BB0, symBinAddr: 0x1000662EC, symSize: 0x5368 }
  - { offsetInCU: 0xD7E0, offset: 0x2A928, size: 0x8, addend: 0x0, symName: __ZL23stbi__decode_jpeg_imageP10stbi__jpeg, symObjAddr: 0x3BF18, symBinAddr: 0x10006B654, symSize: 0x634 }
  - { offsetInCU: 0xD844, offset: 0x2A98C, size: 0x8, addend: 0x0, symName: __ZL18stbi__cleanup_jpegP10stbi__jpeg, symObjAddr: 0x3C54C, symBinAddr: 0x10006BC88, symSize: 0xDC }
  - { offsetInCU: 0xD86F, offset: 0x2A9B7, size: 0x8, addend: 0x0, symName: __ZL14resample_row_1PhS_S_ii, symObjAddr: 0x3C628, symBinAddr: 0x10006BD64, symSize: 0x24 }
  - { offsetInCU: 0xD8D9, offset: 0x2AA21, size: 0x8, addend: 0x0, symName: __ZL22stbi__resample_row_v_2PhS_S_ii, symObjAddr: 0x3C64C, symBinAddr: 0x10006BD88, symSize: 0x1D0 }
  - { offsetInCU: 0xD953, offset: 0x2AA9B, size: 0x8, addend: 0x0, symName: __ZL22stbi__resample_row_h_2PhS_S_ii, symObjAddr: 0x3C81C, symBinAddr: 0x10006BF58, symSize: 0x8C4 }
  - { offsetInCU: 0xD9FB, offset: 0x2AB43, size: 0x8, addend: 0x0, symName: __ZL26stbi__resample_row_genericPhS_S_ii, symObjAddr: 0x3D0E0, symBinAddr: 0x10006C81C, symSize: 0x190 }
  - { offsetInCU: 0xDA85, offset: 0x2ABCD, size: 0x8, addend: 0x0, symName: __ZL15stbi__blinn_8x8hh, symObjAddr: 0x3D270, symBinAddr: 0x10006C9AC, symSize: 0x3C }
  - { offsetInCU: 0xDAD1, offset: 0x2AC19, size: 0x8, addend: 0x0, symName: __ZL25stbi__process_scan_headerP10stbi__jpeg, symObjAddr: 0x3D2AC, symBinAddr: 0x10006C9E8, symSize: 0x1310 }
  - { offsetInCU: 0xDB6F, offset: 0x2ACB7, size: 0x8, addend: 0x0, symName: __ZL30stbi__parse_entropy_coded_dataP10stbi__jpeg, symObjAddr: 0x3E5BC, symBinAddr: 0x10006DCF8, symSize: 0x28C0 }
  - { offsetInCU: 0xDE26, offset: 0x2AF6E, size: 0x8, addend: 0x0, symName: __ZL27stbi__skip_jpeg_junk_at_endP10stbi__jpeg, symObjAddr: 0x40E7C, symBinAddr: 0x1000705B8, symSize: 0x200 }
  - { offsetInCU: 0xDE73, offset: 0x2AFBB, size: 0x8, addend: 0x0, symName: __ZL17stbi__jpeg_finishP10stbi__jpeg, symObjAddr: 0x4107C, symBinAddr: 0x1000707B8, symSize: 0x698 }
  - { offsetInCU: 0xDF22, offset: 0x2B06A, size: 0x8, addend: 0x0, symName: __ZL16stbi__jpeg_resetP10stbi__jpeg, symObjAddr: 0x41714, symBinAddr: 0x100070E50, symSize: 0x570 }
  - { offsetInCU: 0xDF4C, offset: 0x2B094, size: 0x8, addend: 0x0, symName: __ZL23stbi__jpeg_decode_blockP10stbi__jpegPsP13stbi__huffmanS3_S1_iPt, symObjAddr: 0x41C84, symBinAddr: 0x1000713C0, symSize: 0xC30 }
  - { offsetInCU: 0xE07D, offset: 0x2B1C5, size: 0x8, addend: 0x0, symName: __ZL24stbi__grow_buffer_unsafeP10stbi__jpeg, symObjAddr: 0x428B4, symBinAddr: 0x100071FF0, symSize: 0x508 }
  - { offsetInCU: 0xE0D3, offset: 0x2B21B, size: 0x8, addend: 0x0, symName: __ZL31stbi__jpeg_decode_block_prog_dcP10stbi__jpegPsP13stbi__huffmani, symObjAddr: 0x42DBC, symBinAddr: 0x1000724F8, symSize: 0x70C }
  - { offsetInCU: 0xE15C, offset: 0x2B2A4, size: 0x8, addend: 0x0, symName: __ZL31stbi__jpeg_decode_block_prog_acP10stbi__jpegPsP13stbi__huffmanS1_, symObjAddr: 0x434C8, symBinAddr: 0x100072C04, symSize: 0x1924 }
  - { offsetInCU: 0xE2CD, offset: 0x2B415, size: 0x8, addend: 0x0, symName: __ZL22stbi__jpeg_huff_decodeP10stbi__jpegP13stbi__huffman, symObjAddr: 0x44DEC, symBinAddr: 0x100074528, symSize: 0xC54 }
  - { offsetInCU: 0xE355, offset: 0x2B49D, size: 0x8, addend: 0x0, symName: __ZL20stbi__extend_receiveP10stbi__jpegi, symObjAddr: 0x45A40, symBinAddr: 0x10007517C, symSize: 0x558 }
  - { offsetInCU: 0xE3B2, offset: 0x2B4FA, size: 0x8, addend: 0x0, symName: __ZL19stbi__addints_validii, symObjAddr: 0x45F98, symBinAddr: 0x1000756D4, symSize: 0xC4 }
  - { offsetInCU: 0xE3F0, offset: 0x2B538, size: 0x8, addend: 0x0, symName: __ZL22stbi__mul2shorts_validss, symObjAddr: 0x4605C, symBinAddr: 0x100075798, symSize: 0xFC }
  - { offsetInCU: 0xE42D, offset: 0x2B575, size: 0x8, addend: 0x0, symName: __ZL18stbi__jpeg_get_bitP10stbi__jpeg, symObjAddr: 0x46158, symBinAddr: 0x100075894, symSize: 0x2B0 }
  - { offsetInCU: 0xE46B, offset: 0x2B5B3, size: 0x8, addend: 0x0, symName: __ZL19stbi__jpeg_get_bitsP10stbi__jpegi, symObjAddr: 0x46408, symBinAddr: 0x100075B44, symSize: 0x45C }
  - { offsetInCU: 0xE4B9, offset: 0x2B601, size: 0x8, addend: 0x0, symName: __ZL21stbi__jpeg_dequantizePsPt, symObjAddr: 0x46864, symBinAddr: 0x100075FA0, symSize: 0x148 }
  - { offsetInCU: 0xE501, offset: 0x2B649, size: 0x8, addend: 0x0, symName: __ZL14stbi__pnm_infoP13stbi__contextPiS1_S1_, symObjAddr: 0x469AC, symBinAddr: 0x1000760E8, symSize: 0x674 }
  - { offsetInCU: 0xE5B7, offset: 0x2B6FF, size: 0x8, addend: 0x0, symName: __ZL21stbi__mad4sizes_validiiiii, symObjAddr: 0x47020, symBinAddr: 0x10007675C, symSize: 0xEC }
  - { offsetInCU: 0xE622, offset: 0x2B76A, size: 0x8, addend: 0x0, symName: __ZL17stbi__malloc_mad4iiiii, symObjAddr: 0x4710C, symBinAddr: 0x100076848, symSize: 0x98 }
  - { offsetInCU: 0xE68E, offset: 0x2B7D6, size: 0x8, addend: 0x0, symName: __ZL25stbi__pnm_skip_whitespaceP13stbi__contextPc, symObjAddr: 0x471A4, symBinAddr: 0x1000768E0, symSize: 0x368 }
  - { offsetInCU: 0xE6C7, offset: 0x2B80F, size: 0x8, addend: 0x0, symName: __ZL20stbi__pnm_getintegerP13stbi__contextPc, symObjAddr: 0x4750C, symBinAddr: 0x100076C48, symSize: 0x2A8 }
  - { offsetInCU: 0xE715, offset: 0x2B85D, size: 0x8, addend: 0x0, symName: __ZL17stbi__pnm_isspacec, symObjAddr: 0x477B4, symBinAddr: 0x100076EF0, symSize: 0xB8 }
  - { offsetInCU: 0xE744, offset: 0x2B88C, size: 0x8, addend: 0x0, symName: __ZL17stbi__pnm_isdigitc, symObjAddr: 0x4786C, symBinAddr: 0x100076FA8, symSize: 0x48 }
  - { offsetInCU: 0xE772, offset: 0x2B8BA, size: 0x8, addend: 0x0, symName: __ZL18stbi__hdr_gettokenP13stbi__contextPc, symObjAddr: 0x478B4, symBinAddr: 0x100076FF0, symSize: 0x1EC }
  - { offsetInCU: 0xE7CF, offset: 0x2B917, size: 0x8, addend: 0x0, symName: __ZL17stbi__hdr_convertPfPhi, symObjAddr: 0x47AA0, symBinAddr: 0x1000771DC, symSize: 0x968 }
  - { offsetInCU: 0xE834, offset: 0x2B97C, size: 0x8, addend: 0x0, symName: __Z5ldexpB8ue170006fi, symObjAddr: 0x48418, symBinAddr: 0x100077B54, symSize: 0x2C }
  - { offsetInCU: 0xE871, offset: 0x2B9B9, size: 0x8, addend: 0x0, symName: __Z3powB8ue170006ff, symObjAddr: 0x48444, symBinAddr: 0x100077B80, symSize: 0x2C }
  - { offsetInCU: 0xE8AE, offset: 0x2B9F6, size: 0x8, addend: 0x0, symName: __ZL18stbi__tga_get_compiiPi, symObjAddr: 0x48470, symBinAddr: 0x100077BAC, symSize: 0x1C0 }
  - { offsetInCU: 0xE8FC, offset: 0x2BA44, size: 0x8, addend: 0x0, symName: __ZL20stbi__tga_read_rgb16P13stbi__contextPh, symObjAddr: 0x48694, symBinAddr: 0x100077DD0, symSize: 0x1F0 }
  - { offsetInCU: 0xE980, offset: 0x2BAC8, size: 0x8, addend: 0x0, symName: __ZL21stbi__convert_8_to_16Phiii, symObjAddr: 0x48884, symBinAddr: 0x100077FC0, symSize: 0x254 }
  - { offsetInCU: 0xEA0A, offset: 0x2BB52, size: 0x8, addend: 0x0, symName: __ZL23stbi__float_postprocessPfPiS0_S0_i, symObjAddr: 0x48AD8, symBinAddr: 0x100078214, symSize: 0x2CC }
  - { offsetInCU: 0xEA8D, offset: 0x2BBD5, size: 0x8, addend: 0x0, symName: __ZL16stbi__ldr_to_hdrPhiii, symObjAddr: 0x48DA4, symBinAddr: 0x1000784E0, symSize: 0x410 }
  - { offsetInCU: 0xEB25, offset: 0x2BC6D, size: 0x8, addend: 0x0, symName: __ZL16stbi__parse_zlibP10stbi__zbufi, symObjAddr: 0x491B4, symBinAddr: 0x1000788F0, symSize: 0x2D8 }
  - { offsetInCU: 0xEB81, offset: 0x2BCC9, size: 0x8, addend: 0x0, symName: __ZL23stbi__parse_zlib_headerP10stbi__zbuf, symObjAddr: 0x4948C, symBinAddr: 0x100078BC8, symSize: 0x138 }
  - { offsetInCU: 0xEBDD, offset: 0x2BD25, size: 0x8, addend: 0x0, symName: __ZL14stbi__zreceiveP10stbi__zbufi, symObjAddr: 0x495C4, symBinAddr: 0x100078D00, symSize: 0x230 }
  - { offsetInCU: 0xEC2A, offset: 0x2BD72, size: 0x8, addend: 0x0, symName: __ZL30stbi__parse_uncompressed_blockP10stbi__zbuf, symObjAddr: 0x497F4, symBinAddr: 0x100078F30, symSize: 0xB20 }
  - { offsetInCU: 0xEC9D, offset: 0x2BDE5, size: 0x8, addend: 0x0, symName: __ZL20stbi__zbuild_huffmanP14stbi__zhuffmanPKhi, symObjAddr: 0x4A314, symBinAddr: 0x100079A50, symSize: 0xE24 }
  - { offsetInCU: 0xEDAE, offset: 0x2BEF6, size: 0x8, addend: 0x0, symName: __ZL25stbi__parse_huffman_blockP10stbi__zbuf, symObjAddr: 0x4B9F0, symBinAddr: 0x10007B12C, symSize: 0xA1C }
  - { offsetInCU: 0xEE62, offset: 0x2BFAA, size: 0x8, addend: 0x0, symName: __ZL11stbi__zget8P10stbi__zbuf, symObjAddr: 0x4C40C, symBinAddr: 0x10007BB48, symSize: 0x100 }
  - { offsetInCU: 0xEE91, offset: 0x2BFD9, size: 0x8, addend: 0x0, symName: __ZL10stbi__zeofP10stbi__zbuf, symObjAddr: 0x4C50C, symBinAddr: 0x10007BC48, symSize: 0xB8 }
  - { offsetInCU: 0xEEC1, offset: 0x2C009, size: 0x8, addend: 0x0, symName: __ZL15stbi__fill_bitsP10stbi__zbuf, symObjAddr: 0x4C5C4, symBinAddr: 0x10007BD00, symSize: 0x38C }
  - { offsetInCU: 0xEEEB, offset: 0x2C033, size: 0x8, addend: 0x0, symName: __ZL13stbi__zexpandP10stbi__zbufPci, symObjAddr: 0x4C950, symBinAddr: 0x10007C08C, symSize: 0x46C }
  - { offsetInCU: 0xEF75, offset: 0x2C0BD, size: 0x8, addend: 0x0, symName: __ZL17stbi__bit_reverseii, symObjAddr: 0x4CDBC, symBinAddr: 0x10007C4F8, symSize: 0x74 }
  - { offsetInCU: 0xEFB4, offset: 0x2C0FC, size: 0x8, addend: 0x0, symName: __ZL18stbi__bitreverse16i, symObjAddr: 0x4CE30, symBinAddr: 0x10007C56C, symSize: 0x98 }
  - { offsetInCU: 0xEFE2, offset: 0x2C12A, size: 0x8, addend: 0x0, symName: __ZL21stbi__zhuffman_decodeP10stbi__zbufP14stbi__zhuffman, symObjAddr: 0x4CEC8, symBinAddr: 0x10007C604, symSize: 0x30C }
  - { offsetInCU: 0xF03E, offset: 0x2C186, size: 0x8, addend: 0x0, symName: __ZL30stbi__zhuffman_decode_slowpathP10stbi__zbufP14stbi__zhuffman, symObjAddr: 0x4D1D4, symBinAddr: 0x10007C910, symSize: 0x4C8 }
  - { offsetInCU: 0xF0A9, offset: 0x2C1F1, size: 0x8, addend: 0x0, symName: __ZL28stbi__load_gif_main_outofmemP9stbi__gifPhPPi, symObjAddr: 0x4D69C, symBinAddr: 0x10007CDD8, symSize: 0x1E4 }
  - { offsetInCU: 0xF0F6, offset: 0x2C23E, size: 0x8, addend: 0x0, symName: __ZL19stbi__hdr_test_coreP13stbi__contextPKc, symObjAddr: 0x4D880, symBinAddr: 0x10007CFBC, symSize: 0x178 }
  - { offsetInCU: 0xF143, offset: 0x2C28B, size: 0x8, addend: 0x0, symName: __ZL15stbi__jpeg_infoP13stbi__contextPiS1_S1_, symObjAddr: 0x4D9F8, symBinAddr: 0x10007D134, symSize: 0x104 }
  - { offsetInCU: 0xF1BD, offset: 0x2C305, size: 0x8, addend: 0x0, symName: __ZL14stbi__png_infoP13stbi__contextPiS1_S1_, symObjAddr: 0x4DAFC, symBinAddr: 0x10007D238, symSize: 0x264 }
  - { offsetInCU: 0xF230, offset: 0x2C378, size: 0x8, addend: 0x0, symName: __ZL14stbi__gif_infoP13stbi__contextPiS1_S1_, symObjAddr: 0x4DD60, symBinAddr: 0x10007D49C, symSize: 0x3C }
  - { offsetInCU: 0xF28C, offset: 0x2C3D4, size: 0x8, addend: 0x0, symName: __ZL14stbi__bmp_infoP13stbi__contextPiS1_S1_, symObjAddr: 0x4DD9C, symBinAddr: 0x10007D4D8, symSize: 0x6F8 }
  - { offsetInCU: 0xF30F, offset: 0x2C457, size: 0x8, addend: 0x0, symName: __ZL14stbi__psd_infoP13stbi__contextPiS1_S1_, symObjAddr: 0x4E494, symBinAddr: 0x10007DBD0, symSize: 0x4E0 }
  - { offsetInCU: 0xF3A2, offset: 0x2C4EA, size: 0x8, addend: 0x0, symName: __ZL14stbi__pic_infoP13stbi__contextPiS1_S1_, symObjAddr: 0x4E974, symBinAddr: 0x10007E0B0, symSize: 0x91C }
  - { offsetInCU: 0xF46F, offset: 0x2C5B7, size: 0x8, addend: 0x0, symName: __ZL14stbi__hdr_infoP13stbi__contextPiS1_S1_, symObjAddr: 0x4F290, symBinAddr: 0x10007E9CC, symSize: 0x80C }
  - { offsetInCU: 0xF51A, offset: 0x2C662, size: 0x8, addend: 0x0, symName: __ZL14stbi__tga_infoP13stbi__contextPiS1_S1_, symObjAddr: 0x4FA9C, symBinAddr: 0x10007F1D8, symSize: 0x52C }
  - { offsetInCU: 0xF5F0, offset: 0x2C738, size: 0x8, addend: 0x0, symName: __ZL19stbi__jpeg_info_rawP10stbi__jpegPiS1_S1_, symObjAddr: 0x4FFC8, symBinAddr: 0x10007F704, symSize: 0x434 }
  - { offsetInCU: 0xF64C, offset: 0x2C794, size: 0x8, addend: 0x0, symName: __ZL18stbi__png_info_rawP9stbi__pngPiS1_S1_, symObjAddr: 0x503FC, symBinAddr: 0x10007FB38, symSize: 0x420 }
  - { offsetInCU: 0xF6A8, offset: 0x2C7F0, size: 0x8, addend: 0x0, symName: __ZL18stbi__gif_info_rawP13stbi__contextPiS1_S1_, symObjAddr: 0x5081C, symBinAddr: 0x10007FF58, symSize: 0x2A8 }
  - { offsetInCU: 0xF713, offset: 0x2C85B, size: 0x8, addend: 0x0, symName: __ZL14stbi__png_is16P13stbi__context, symObjAddr: 0x50AC4, symBinAddr: 0x100080200, symSize: 0x34C }
  - { offsetInCU: 0xF756, offset: 0x2C89E, size: 0x8, addend: 0x0, symName: __ZL14stbi__psd_is16P13stbi__context, symObjAddr: 0x50E10, symBinAddr: 0x10008054C, symSize: 0x128 }
  - { offsetInCU: 0xF7A3, offset: 0x2C8EB, size: 0x8, addend: 0x0, symName: __ZL14stbi__pnm_is16P13stbi__context, symObjAddr: 0x50F38, symBinAddr: 0x100080674, symSize: 0x58 }
  - { offsetInCU: 0xF7D3, offset: 0x2C91B, size: 0x8, addend: 0x0, symName: __ZNKSt3__19basic_iosIcNS_11char_traitsIcEEE5widenB8ue170006Ec, symObjAddr: 0x50F90, symBinAddr: 0x1000806CC, symSize: 0x2A4 }
  - { offsetInCU: 0xF841, offset: 0x2C989, size: 0x8, addend: 0x0, symName: __ZNKSt3__15ctypeIcE5widenB8ue170006Ec, symObjAddr: 0x51260, symBinAddr: 0x10008099C, symSize: 0xBC }
  - { offsetInCU: 0xF874, offset: 0x2C9BC, size: 0x8, addend: 0x0, symName: __ZNSt3__111char_traitsIcE6lengthB8ue170006EPKc, symObjAddr: 0x51A60, symBinAddr: 0x10008119C, symSize: 0x40 }
  - { offsetInCU: 0xF8B5, offset: 0x2C9FD, size: 0x8, addend: 0x0, symName: __ZNKSt3__113basic_ostreamIcNS_11char_traitsIcEEE6sentrycvbB8ue170006Ev, symObjAddr: 0x51AA0, symBinAddr: 0x1000811DC, symSize: 0x88 }
  - { offsetInCU: 0xF8D9, offset: 0x2CA21, size: 0x8, addend: 0x0, symName: __ZNSt3__119ostreambuf_iteratorIcNS_11char_traitsIcEEEC1B8ue170006ERNS_13basic_ostreamIcS2_EE, symObjAddr: 0x52288, symBinAddr: 0x1000819C4, symSize: 0x34 }
  - { offsetInCU: 0xF90F, offset: 0x2CA57, size: 0x8, addend: 0x0, symName: __ZNKSt3__18ios_base5flagsB8ue170006Ev, symObjAddr: 0x522BC, symBinAddr: 0x1000819F8, symSize: 0x8C }
  - { offsetInCU: 0xF935, offset: 0x2CA7D, size: 0x8, addend: 0x0, symName: __ZNKSt3__19basic_iosIcNS_11char_traitsIcEEE4fillB8ue170006Ev, symObjAddr: 0x52348, symBinAddr: 0x100081A84, symSize: 0x198 }
  - { offsetInCU: 0xF95B, offset: 0x2CAA3, size: 0x8, addend: 0x0, symName: __ZNKSt3__119ostreambuf_iteratorIcNS_11char_traitsIcEEE6failedB8ue170006Ev, symObjAddr: 0x524E0, symBinAddr: 0x100081C1C, symSize: 0x6C }
  - { offsetInCU: 0xF97F, offset: 0x2CAC7, size: 0x8, addend: 0x0, symName: __ZNSt3__19basic_iosIcNS_11char_traitsIcEEE8setstateB8ue170006Ej, symObjAddr: 0x5254C, symBinAddr: 0x100081C88, symSize: 0x2C }
  - { offsetInCU: 0xF9B2, offset: 0x2CAFA, size: 0x8, addend: 0x0, symName: __ZNKSt3__18ios_base5widthB8ue170006Ev, symObjAddr: 0x52578, symBinAddr: 0x100081CB4, symSize: 0x64 }
  - { offsetInCU: 0xF9D8, offset: 0x2CB20, size: 0x8, addend: 0x0, symName: __ZNSt3__115basic_streambufIcNS_11char_traitsIcEEE5sputnB8ue170006EPKcl, symObjAddr: 0x525DC, symBinAddr: 0x100081D18, symSize: 0xC8 }
  - { offsetInCU: 0xFA18, offset: 0x2CB60, size: 0x8, addend: 0x0, symName: __ZNSt3__112basic_stringIcNS_11char_traitsIcEENS_9allocatorIcEEEC1B8ue170006Emc, symObjAddr: 0x526A4, symBinAddr: 0x100081DE0, symSize: 0x3C }
  - { offsetInCU: 0xFA5E, offset: 0x2CBA6, size: 0x8, addend: 0x0, symName: __ZNSt3__112basic_stringIcNS_11char_traitsIcEENS_9allocatorIcEEE4dataB8ue170006Ev, symObjAddr: 0x526E0, symBinAddr: 0x100081E1C, symSize: 0x28 }
  - { offsetInCU: 0xFA82, offset: 0x2CBCA, size: 0x8, addend: 0x0, symName: __ZNSt3__18ios_base5widthB8ue170006El, symObjAddr: 0x52708, symBinAddr: 0x100081E44, symSize: 0xB8 }
  - { offsetInCU: 0xFAC6, offset: 0x2CC0E, size: 0x8, addend: 0x0, symName: __ZNSt3__112basic_stringIcNS_11char_traitsIcEENS_9allocatorIcEEEC2B8ue170006Emc, symObjAddr: 0x527C0, symBinAddr: 0x100081EFC, symSize: 0x204 }
  - { offsetInCU: 0xFB14, offset: 0x2CC5C, size: 0x8, addend: 0x0, symName: __ZNSt3__117__compressed_pairINS_12basic_stringIcNS_11char_traitsIcEENS_9allocatorIcEEE5__repES5_EC1B8ue170006INS_18__default_init_tagESA_EEOT_OT0_, symObjAddr: 0x529C4, symBinAddr: 0x100082100, symSize: 0x3C }
  - { offsetInCU: 0xFB6A, offset: 0x2CCB2, size: 0x8, addend: 0x0, symName: __ZNSt3__117__compressed_pairINS_12basic_stringIcNS_11char_traitsIcEENS_9allocatorIcEEE5__repES5_EC2B8ue170006INS_18__default_init_tagESA_EEOT_OT0_, symObjAddr: 0x52A00, symBinAddr: 0x10008213C, symSize: 0x3C }
  - { offsetInCU: 0xFBC0, offset: 0x2CD08, size: 0x8, addend: 0x0, symName: __ZNSt3__122__compressed_pair_elemINS_12basic_stringIcNS_11char_traitsIcEENS_9allocatorIcEEE5__repELi0ELb0EEC2B8ue170006ENS_18__default_init_tagE, symObjAddr: 0x52A3C, symBinAddr: 0x100082178, symSize: 0x14 }
  - { offsetInCU: 0xFBF4, offset: 0x2CD3C, size: 0x8, addend: 0x0, symName: __ZNSt3__122__compressed_pair_elemINS_9allocatorIcEELi1ELb1EEC2B8ue170006ENS_18__default_init_tagE, symObjAddr: 0x52A50, symBinAddr: 0x10008218C, symSize: 0x2C }
  - { offsetInCU: 0xFC27, offset: 0x2CD6F, size: 0x8, addend: 0x0, symName: __ZNSt3__19allocatorIcEC2B8ue170006Ev, symObjAddr: 0x52A7C, symBinAddr: 0x1000821B8, symSize: 0x2C }
  - { offsetInCU: 0xFC4F, offset: 0x2CD97, size: 0x8, addend: 0x0, symName: __ZNSt3__116__non_trivial_ifILb1ENS_9allocatorIcEEEC2B8ue170006Ev, symObjAddr: 0x52AA8, symBinAddr: 0x1000821E4, symSize: 0x14 }
  - { offsetInCU: 0xFC78, offset: 0x2CDC0, size: 0x8, addend: 0x0, symName: __ZNSt3__112basic_stringIcNS_11char_traitsIcEENS_9allocatorIcEEE13__get_pointerB8ue170006Ev, symObjAddr: 0x52AD0, symBinAddr: 0x10008220C, symSize: 0x54 }
  - { offsetInCU: 0xFC9C, offset: 0x2CDE4, size: 0x8, addend: 0x0, symName: __ZNKSt3__112basic_stringIcNS_11char_traitsIcEENS_9allocatorIcEEE9__is_longB8ue170006Ev, symObjAddr: 0x52B24, symBinAddr: 0x100082260, symSize: 0xA4 }
  - { offsetInCU: 0xFCC0, offset: 0x2CE08, size: 0x8, addend: 0x0, symName: __ZNSt3__112basic_stringIcNS_11char_traitsIcEENS_9allocatorIcEEE18__get_long_pointerB8ue170006Ev, symObjAddr: 0x52BC8, symBinAddr: 0x100082304, symSize: 0x6C }
  - { offsetInCU: 0xFCE4, offset: 0x2CE2C, size: 0x8, addend: 0x0, symName: __ZNSt3__112basic_stringIcNS_11char_traitsIcEENS_9allocatorIcEEE19__get_short_pointerB8ue170006Ev, symObjAddr: 0x52C34, symBinAddr: 0x100082370, symSize: 0x28 }
  - { offsetInCU: 0xFD08, offset: 0x2CE50, size: 0x8, addend: 0x0, symName: __ZNKSt3__117__compressed_pairINS_12basic_stringIcNS_11char_traitsIcEENS_9allocatorIcEEE5__repES5_E5firstB8ue170006Ev, symObjAddr: 0x52C5C, symBinAddr: 0x100082398, symSize: 0x24 }
  - { offsetInCU: 0xFD2C, offset: 0x2CE74, size: 0x8, addend: 0x0, symName: __ZNKSt3__122__compressed_pair_elemINS_12basic_stringIcNS_11char_traitsIcEENS_9allocatorIcEEE5__repELi0ELb0EE5__getB8ue170006Ev, symObjAddr: 0x52C80, symBinAddr: 0x1000823BC, symSize: 0x14 }
  - { offsetInCU: 0xFD50, offset: 0x2CE98, size: 0x8, addend: 0x0, symName: __ZNSt3__117__compressed_pairINS_12basic_stringIcNS_11char_traitsIcEENS_9allocatorIcEEE5__repES5_E5firstB8ue170006Ev, symObjAddr: 0x52C94, symBinAddr: 0x1000823D0, symSize: 0x24 }
  - { offsetInCU: 0xFD74, offset: 0x2CEBC, size: 0x8, addend: 0x0, symName: __ZNSt3__122__compressed_pair_elemINS_12basic_stringIcNS_11char_traitsIcEENS_9allocatorIcEEE5__repELi0ELb0EE5__getB8ue170006Ev, symObjAddr: 0x52CB8, symBinAddr: 0x1000823F4, symSize: 0x14 }
  - { offsetInCU: 0xFD98, offset: 0x2CEE0, size: 0x8, addend: 0x0, symName: __ZNSt3__114pointer_traitsIPcE10pointer_toB8ue170006ERc, symObjAddr: 0x52CCC, symBinAddr: 0x100082408, symSize: 0x14 }
  - { offsetInCU: 0xFDBB, offset: 0x2CF03, size: 0x8, addend: 0x0, symName: __ZNSt3__119ostreambuf_iteratorIcNS_11char_traitsIcEEEC2B8ue170006ERNS_13basic_ostreamIcS2_EE, symObjAddr: 0x52CE0, symBinAddr: 0x10008241C, symSize: 0x10C }
  - { offsetInCU: 0xFDF1, offset: 0x2CF39, size: 0x8, addend: 0x0, symName: __ZNKSt3__19basic_iosIcNS_11char_traitsIcEEE5rdbufB8ue170006Ev, symObjAddr: 0x52DEC, symBinAddr: 0x100082528, symSize: 0x24 }
  - { offsetInCU: 0xFE17, offset: 0x2CF5F, size: 0x8, addend: 0x0, symName: __ZNKSt3__18ios_base5rdbufB8ue170006Ev, symObjAddr: 0x52E10, symBinAddr: 0x10008254C, symSize: 0x64 }
  - { offsetInCU: 0xFE3B, offset: 0x2CF83, size: 0x8, addend: 0x0, symName: __ZNSt3__111char_traitsIcE11eq_int_typeB8ue170006Eii, symObjAddr: 0x52E74, symBinAddr: 0x1000825B0, symSize: 0x28 }
  - { offsetInCU: 0xFE6E, offset: 0x2CFB6, size: 0x8, addend: 0x0, symName: __ZNSt3__111char_traitsIcE3eofB8ue170006Ev, symObjAddr: 0x52E9C, symBinAddr: 0x1000825D8, symSize: 0x8 }
  - { offsetInCU: 0xFE82, offset: 0x2CFCA, size: 0x8, addend: 0x0, symName: __ZNSt3__18ios_base8setstateB8ue170006Ej, symObjAddr: 0x52EA4, symBinAddr: 0x1000825E0, symSize: 0x9C }
  - { offsetInCU: 0x3C, offset: 0x2D4E3, size: 0x8, addend: 0x0, symName: _.str, symObjAddr: 0xE840, symBinAddr: 0x1004F1FC0, symSize: 0x0 }
  - { offsetInCU: 0x467A, offset: 0x31B21, size: 0x8, addend: 0x0, symName: __ZNSt3__112__to_addressB8ue170006IP5LayerEEPT_S4_, symObjAddr: 0x206C, symBinAddr: 0x100084120, symSize: 0x14 }
  - { offsetInCU: 0x46AF, offset: 0x31B56, size: 0x8, addend: 0x0, symName: __ZNSt3__1miB8ue170006IPKP5LayerPS2_EEDTmicldtfp_4baseEcldtfp0_4baseEERKNS_11__wrap_iterIT_EERKNS7_IT0_EE, symObjAddr: 0x26AC, symBinAddr: 0x100084398, symSize: 0x48 }
  - { offsetInCU: 0x4798, offset: 0x31C3F, size: 0x8, addend: 0x0, symName: __ZNSt3__113move_backwardB8ue170006IPP5LayerS3_EET0_T_S5_S4_, symObjAddr: 0x4CF4, symBinAddr: 0x1000869E0, symSize: 0x26C }
  - { offsetInCU: 0x47F5, offset: 0x31C9C, size: 0x8, addend: 0x0, symName: __ZNSt3__115__move_backwardB8ue170006INS_17_ClassicAlgPolicyEPP5LayerS4_S4_EENS_4pairIT0_T2_EES6_T1_S7_, symObjAddr: 0x5014, symBinAddr: 0x100086D00, symSize: 0x22C }
  - { offsetInCU: 0x4864, offset: 0x31D0B, size: 0x8, addend: 0x0, symName: __ZNSt3__123__dispatch_copy_or_moveB8ue170006INS_17_ClassicAlgPolicyENS_20__move_backward_loopIS1_EENS_23__move_backward_trivialEPP5LayerS7_S7_EENS_4pairIT2_T4_EES9_T3_SA_, symObjAddr: 0x5240, symBinAddr: 0x100086F2C, symSize: 0x22C }
  - { offsetInCU: 0x48E5, offset: 0x31D8C, size: 0x8, addend: 0x0, symName: __ZNSt3__121__unwrap_and_dispatchB8ue170006INS_10__overloadINS_20__move_backward_loopINS_17_ClassicAlgPolicyEEENS_23__move_backward_trivialEEEPP5LayerS9_S9_Li0EEENS_4pairIT0_T2_EESB_T1_SC_, symObjAddr: 0x546C, symBinAddr: 0x100087158, symSize: 0x5A4 }
  - { offsetInCU: 0x497F, offset: 0x31E26, size: 0x8, addend: 0x0, symName: __ZNSt3__114__unwrap_rangeB8ue170006IPP5LayerS3_EENS_4pairIT0_S5_EET_S7_, symObjAddr: 0x5A10, symBinAddr: 0x1000876FC, symSize: 0x350 }
  - { offsetInCU: 0x4B46, offset: 0x31FED, size: 0x8, addend: 0x0, symName: __ZNSt3__113__unwrap_iterB8ue170006IPP5LayerNS_18__unwrap_iter_implIS3_Lb1EEELi0EEEDTclsrT0_8__unwrapclsr3stdE7declvalIT_EEEES7_, symObjAddr: 0x5F90, symBinAddr: 0x100087C7C, symSize: 0x24 }
  - { offsetInCU: 0x4B8B, offset: 0x32032, size: 0x8, addend: 0x0, symName: __ZNSt3__19make_pairB8ue170006IPP5LayerS3_EENS_4pairINS_18__unwrap_ref_decayIT_E4typeENS5_IT0_E4typeEEEOS6_OS9_, symObjAddr: 0x5FB4, symBinAddr: 0x100087CA0, symSize: 0x20C }
  - { offsetInCU: 0x4BDC, offset: 0x32083, size: 0x8, addend: 0x0, symName: __ZNSt3__114__rewrap_rangeB8ue170006IPP5LayerS3_EET_S4_T0_, symObjAddr: 0x61C0, symBinAddr: 0x100087EAC, symSize: 0x2C }
  - { offsetInCU: 0x4C28, offset: 0x320CF, size: 0x8, addend: 0x0, symName: __ZNSt3__113__rewrap_iterB8ue170006IPP5LayerS3_NS_18__unwrap_iter_implIS3_Lb1EEEEET_S6_T0_, symObjAddr: 0x61EC, symBinAddr: 0x100087ED8, symSize: 0x48 }
  - { offsetInCU: 0x4C7D, offset: 0x32124, size: 0x8, addend: 0x0, symName: __ZNSt3__128__copy_backward_trivial_implB8ue170006IP5LayerS2_EENS_4pairIPT_PT0_EES5_S5_S7_, symObjAddr: 0x6234, symBinAddr: 0x100087F20, symSize: 0x3DC }
  - { offsetInCU: 0x4CEF, offset: 0x32196, size: 0x8, addend: 0x0, symName: __ZNSt3__119__constexpr_memmoveB8ue170006IP5LayerS2_Li0EEEPT_S4_PT0_NS_15__element_countE, symObjAddr: 0x6610, symBinAddr: 0x1000882FC, symSize: 0x64 }
  - { offsetInCU: 0x4D5E, offset: 0x32205, size: 0x8, addend: 0x0, symName: __ZNSt3__19make_pairB8ue170006IRPP5LayerS4_EENS_4pairINS_18__unwrap_ref_decayIT_E4typeENS6_IT0_E4typeEEEOS7_OSA_, symObjAddr: 0x6674, symBinAddr: 0x100088360, symSize: 0x20C }
  - { offsetInCU: 0x4E02, offset: 0x322A9, size: 0x8, addend: 0x0, symName: __ZNSt3__119__allocate_at_leastB8ue170006INS_9allocatorIP5LayerEEEENS_19__allocation_resultINS_16allocator_traitsIT_E7pointerEEERS7_m, symObjAddr: 0x7BA4, symBinAddr: 0x100089268, symSize: 0x28C }
  - { offsetInCU: 0x4E47, offset: 0x322EE, size: 0x8, addend: 0x0, symName: __ZNSt3__14moveB8ue170006IPP5LayerS3_EET0_T_S5_S4_, symObjAddr: 0x818C, symBinAddr: 0x100089768, symSize: 0x26C }
  - { offsetInCU: 0x4EA4, offset: 0x3234B, size: 0x8, addend: 0x0, symName: __ZNSt3__14swapB8ue170006IPP5LayerEENS_9enable_ifIXaasr21is_move_constructibleIT_EE5valuesr18is_move_assignableIS5_EE5valueEvE4typeERS5_S8_, symObjAddr: 0x8800, symBinAddr: 0x100089DDC, symSize: 0x134 }
  - { offsetInCU: 0x4EF5, offset: 0x3239C, size: 0x8, addend: 0x0, symName: __ZNSt3__16__moveB8ue170006INS_17_ClassicAlgPolicyEPP5LayerS4_S4_EENS_4pairIT0_T2_EES6_T1_S7_, symObjAddr: 0x8934, symBinAddr: 0x100089F10, symSize: 0x22C }
  - { offsetInCU: 0x4F64, offset: 0x3240B, size: 0x8, addend: 0x0, symName: __ZNSt3__123__dispatch_copy_or_moveB8ue170006INS_17_ClassicAlgPolicyENS_11__move_loopIS1_EENS_14__move_trivialEPP5LayerS7_S7_EENS_4pairIT2_T4_EES9_T3_SA_, symObjAddr: 0x8B60, symBinAddr: 0x10008A13C, symSize: 0x22C }
  - { offsetInCU: 0x4FE5, offset: 0x3248C, size: 0x8, addend: 0x0, symName: __ZNSt3__121__unwrap_and_dispatchB8ue170006INS_10__overloadINS_11__move_loopINS_17_ClassicAlgPolicyEEENS_14__move_trivialEEEPP5LayerS9_S9_Li0EEENS_4pairIT0_T2_EESB_T1_SC_, symObjAddr: 0x8D8C, symBinAddr: 0x10008A368, symSize: 0x5A4 }
  - { offsetInCU: 0x50C6, offset: 0x3256D, size: 0x8, addend: 0x0, symName: __ZNSt3__119__copy_trivial_implB8ue170006IP5LayerS2_EENS_4pairIPT_PT0_EES5_S5_S7_, symObjAddr: 0x9560, symBinAddr: 0x10008AB3C, symSize: 0x3B4 }
  - { offsetInCU: 0x5135, offset: 0x325DC, size: 0x8, addend: 0x0, symName: __ZNSt3__19make_pairB8ue170006IRPP5LayerS3_EENS_4pairINS_18__unwrap_ref_decayIT_E4typeENS6_IT0_E4typeEEEOS7_OSA_, symObjAddr: 0x9914, symBinAddr: 0x10008AEF0, symSize: 0x20C }
  - { offsetInCU: 0x5186, offset: 0x3262D, size: 0x8, addend: 0x0, symName: __ZNSt3__18distanceB8ue170006INS_13move_iteratorIPP5LayerEEEENS_15iterator_traitsIT_E15difference_typeES7_S7_, symObjAddr: 0xA118, symBinAddr: 0x10008B6F4, symSize: 0x350 }
  - { offsetInCU: 0x51D1, offset: 0x32678, size: 0x8, addend: 0x0, symName: __ZNSt3__110__distanceB8ue170006INS_13move_iteratorIPP5LayerEEEENS_15iterator_traitsIT_E15difference_typeES7_S7_NS_26random_access_iterator_tagE, symObjAddr: 0xA7FC, symBinAddr: 0x10008BDD8, symSize: 0x274 }
  - { offsetInCU: 0x5228, offset: 0x326CF, size: 0x8, addend: 0x0, symName: __ZNSt3__1miB8ue170006IPP5LayerS3_EEDTmicldtfp_4baseEcldtfp0_4baseEERKNS_13move_iteratorIT_EERKNS5_IT0_EE, symObjAddr: 0xAA70, symBinAddr: 0x10008C04C, symSize: 0x48 }
  - { offsetInCU: 0x5277, offset: 0x3271E, size: 0x8, addend: 0x0, symName: __ZNSt3__142__uninitialized_allocator_move_if_noexceptB8ue170006INS_9allocatorIP5LayerEENS_16reverse_iteratorIPS3_EES7_S3_vEET1_RT_T0_SB_S8_, symObjAddr: 0xAB88, symBinAddr: 0x10008C164, symSize: 0x4A8 }
  - { offsetInCU: 0x5302, offset: 0x327A9, size: 0x8, addend: 0x0, symName: __ZNSt3__142__uninitialized_allocator_move_if_noexceptB8ue170006INS_9allocatorIP5LayerEEPS3_S5_S3_vEET1_RT_T0_S9_S6_, symObjAddr: 0xB0C8, symBinAddr: 0x10008C6A4, symSize: 0x38 }
  - { offsetInCU: 0x537F, offset: 0x32826, size: 0x8, addend: 0x0, symName: __ZNSt3__14moveB8ue170006INS_16reverse_iteratorIPP5LayerEES5_EET0_T_S7_S6_, symObjAddr: 0xB1C0, symBinAddr: 0x10008C79C, symSize: 0x4B0 }
  - { offsetInCU: 0x53E6, offset: 0x3288D, size: 0x8, addend: 0x0, symName: __ZNSt3__16__moveB8ue170006INS_17_ClassicAlgPolicyENS_16reverse_iteratorIPP5LayerEES6_S6_EENS_4pairIT0_T2_EES8_T1_S9_, symObjAddr: 0xB670, symBinAddr: 0x10008CC4C, symSize: 0x424 }
  - { offsetInCU: 0x545E, offset: 0x32905, size: 0x8, addend: 0x0, symName: __ZNSt3__123__dispatch_copy_or_moveB8ue170006INS_17_ClassicAlgPolicyENS_11__move_loopIS1_EENS_14__move_trivialENS_16reverse_iteratorIPP5LayerEES9_S9_EENS_4pairIT2_T4_EESB_T3_SC_, symObjAddr: 0xBA94, symBinAddr: 0x10008D070, symSize: 0x424 }
  - { offsetInCU: 0x54E8, offset: 0x3298F, size: 0x8, addend: 0x0, symName: __ZNSt3__121__unwrap_and_dispatchB8ue170006INS_10__overloadINS_11__move_loopINS_17_ClassicAlgPolicyEEENS_14__move_trivialEEENS_16reverse_iteratorIPP5LayerEESB_SB_Li0EEENS_4pairIT0_T2_EESD_T1_SE_, symObjAddr: 0xBEB8, symBinAddr: 0x10008D494, symSize: 0x880 }
  - { offsetInCU: 0x558D, offset: 0x32A34, size: 0x8, addend: 0x0, symName: __ZNSt3__114__unwrap_rangeB8ue170006INS_16reverse_iteratorIPP5LayerEES5_EENS_4pairIT0_S7_EET_S9_, symObjAddr: 0xC738, symBinAddr: 0x10008DD14, symSize: 0x448 }
  - { offsetInCU: 0x5707, offset: 0x32BAE, size: 0x8, addend: 0x0, symName: __ZNSt3__113__unwrap_iterB8ue170006INS_16reverse_iteratorIPP5LayerEENS_18__unwrap_iter_implIS5_Lb0EEELi0EEEDTclsrT0_8__unwrapclsr3stdE7declvalIT_EEEES9_, symObjAddr: 0xCF28, symBinAddr: 0x10008E504, symSize: 0x2EC }
  - { offsetInCU: 0x5750, offset: 0x32BF7, size: 0x8, addend: 0x0, symName: __ZNSt3__19make_pairB8ue170006INS_16reverse_iteratorIPP5LayerEES5_EENS_4pairINS_18__unwrap_ref_decayIT_E4typeENS7_IT0_E4typeEEEOS8_OSB_, symObjAddr: 0xD214, symBinAddr: 0x10008E7F0, symSize: 0x38 }
  - { offsetInCU: 0x579F, offset: 0x32C46, size: 0x8, addend: 0x0, symName: __ZNSt3__114__rewrap_rangeB8ue170006INS_16reverse_iteratorIPP5LayerEES5_EET_S6_T0_, symObjAddr: 0xD24C, symBinAddr: 0x10008E828, symSize: 0x3D4 }
  - { offsetInCU: 0x57F3, offset: 0x32C9A, size: 0x8, addend: 0x0, symName: __ZNSt3__113__rewrap_iterB8ue170006INS_16reverse_iteratorIPP5LayerEES5_NS_18__unwrap_iter_implIS5_Lb0EEEEET_S8_T0_, symObjAddr: 0xD620, symBinAddr: 0x10008EBFC, symSize: 0x3E8 }
  - { offsetInCU: 0x5850, offset: 0x32CF7, size: 0x8, addend: 0x0, symName: __ZNSt3__1neB8ue170006IPP5LayerS3_EEbRKNS_16reverse_iteratorIT_EERKNS4_IT0_EE, symObjAddr: 0xDA08, symBinAddr: 0x10008EFE4, symSize: 0x48 }
  - { offsetInCU: 0x5DA2, offset: 0x33249, size: 0x8, addend: 0x0, symName: __ZNSt3__16vectorIP5LayerNS_9allocatorIS2_EEE26__swap_out_circular_bufferERNS_14__split_bufferIS2_RS4_EEPS2_, symObjAddr: 0x3D68, symBinAddr: 0x100085A54, symSize: 0x678 }
  - { offsetInCU: 0x7CB0, offset: 0x35157, size: 0x8, addend: 0x0, symName: __ZN10LayerStackD2Ev, symObjAddr: 0x0, symBinAddr: 0x100082738, symSize: 0x3C8 }
  - { offsetInCU: 0x7D34, offset: 0x351DB, size: 0x8, addend: 0x0, symName: __ZNSt3__16vectorIP5LayerNS_9allocatorIS2_EEED1B8ue170006Ev, symObjAddr: 0x998, symBinAddr: 0x100082B00, symSize: 0x2C }
  - { offsetInCU: 0x7D5C, offset: 0x35203, size: 0x8, addend: 0x0, symName: __ZN10LayerStackD1Ev, symObjAddr: 0x9C4, symBinAddr: 0x100082B2C, symSize: 0x2C }
  - { offsetInCU: 0x7D88, offset: 0x3522F, size: 0x8, addend: 0x0, symName: __ZN10LayerStack9PushLayerEP5Layer, symObjAddr: 0x9F0, symBinAddr: 0x100082B58, symSize: 0x3A8 }
  - { offsetInCU: 0x7DC0, offset: 0x35267, size: 0x8, addend: 0x0, symName: __ZNSt3__16vectorIP5LayerNS_9allocatorIS2_EEE7emplaceIJRS2_EEENS_11__wrap_iterIPS2_EENS8_IPKS2_EEDpOT_, symObjAddr: 0xD98, symBinAddr: 0x100082F00, symSize: 0x81C }
  - { offsetInCU: 0x7E77, offset: 0x3531E, size: 0x8, addend: 0x0, symName: __ZNSt3__111__wrap_iterIPKP5LayerEC1B8ue170006IPS2_EERKNS0_IT_EEPNS_9enable_ifIXsr14is_convertibleIS8_S4_EE5valueEvE4typeE, symObjAddr: 0x15B4, symBinAddr: 0x10008371C, symSize: 0x3C }
  - { offsetInCU: 0x7EC2, offset: 0x35369, size: 0x8, addend: 0x0, symName: __ZN10LayerStack11PushOverlayEP5Layer, symObjAddr: 0x15F0, symBinAddr: 0x100083758, symSize: 0xF8 }
  - { offsetInCU: 0x7EF5, offset: 0x3539C, size: 0x8, addend: 0x0, symName: __ZNSt3__111__wrap_iterIPKP5LayerEC2B8ue170006IPS2_EERKNS0_IT_EEPNS_9enable_ifIXsr14is_convertibleIS8_S4_EE5valueEvE4typeE, symObjAddr: 0x1790, symBinAddr: 0x100083850, symSize: 0x84 }
  - { offsetInCU: 0x7F3F, offset: 0x353E6, size: 0x8, addend: 0x0, symName: __ZNSt3__16vectorIP5LayerNS_9allocatorIS2_EEED2B8ue170006Ev, symObjAddr: 0x1814, symBinAddr: 0x1000838D4, symSize: 0x1F8 }
  - { offsetInCU: 0x7F68, offset: 0x3540F, size: 0x8, addend: 0x0, symName: __ZNSt3__16vectorIP5LayerNS_9allocatorIS2_EEE16__destroy_vectorC1B8ue170006ERS5_, symObjAddr: 0x1A0C, symBinAddr: 0x100083ACC, symSize: 0x34 }
  - { offsetInCU: 0x7F9F, offset: 0x35446, size: 0x8, addend: 0x0, symName: __ZNSt3__16vectorIP5LayerNS_9allocatorIS2_EEE16__destroy_vectorclB8ue170006Ev, symObjAddr: 0x1A4C, symBinAddr: 0x100083B00, symSize: 0x228 }
  - { offsetInCU: 0x7FC3, offset: 0x3546A, size: 0x8, addend: 0x0, symName: __ZNSt3__16vectorIP5LayerNS_9allocatorIS2_EEE16__destroy_vectorC2B8ue170006ERS5_, symObjAddr: 0x1C74, symBinAddr: 0x100083D28, symSize: 0x70 }
  - { offsetInCU: 0x7FFA, offset: 0x354A1, size: 0x8, addend: 0x0, symName: __ZNSt3__16vectorIP5LayerNS_9allocatorIS2_EEE7__clearB8ue170006Ev, symObjAddr: 0x1CE4, symBinAddr: 0x100083D98, symSize: 0x64 }
  - { offsetInCU: 0x801E, offset: 0x354C5, size: 0x8, addend: 0x0, symName: __ZNKSt3__16vectorIP5LayerNS_9allocatorIS2_EEE17__annotate_deleteB8ue170006Ev, symObjAddr: 0x1D48, symBinAddr: 0x100083DFC, symSize: 0xCC }
  - { offsetInCU: 0x8043, offset: 0x354EA, size: 0x8, addend: 0x0, symName: __ZNSt3__116allocator_traitsINS_9allocatorIP5LayerEEE10deallocateB8ue170006ERS4_PS3_m, symObjAddr: 0x1E14, symBinAddr: 0x100083EC8, symSize: 0x34 }
  - { offsetInCU: 0x8084, offset: 0x3552B, size: 0x8, addend: 0x0, symName: __ZNSt3__16vectorIP5LayerNS_9allocatorIS2_EEE7__allocB8ue170006Ev, symObjAddr: 0x1E48, symBinAddr: 0x100083EFC, symSize: 0x28 }
  - { offsetInCU: 0x80A8, offset: 0x3554F, size: 0x8, addend: 0x0, symName: __ZNKSt3__16vectorIP5LayerNS_9allocatorIS2_EEE8capacityB8ue170006Ev, symObjAddr: 0x1E70, symBinAddr: 0x100083F24, symSize: 0xBC }
  - { offsetInCU: 0x80CC, offset: 0x35573, size: 0x8, addend: 0x0, symName: __ZNSt3__16vectorIP5LayerNS_9allocatorIS2_EEE22__base_destruct_at_endB8ue170006EPS2_, symObjAddr: 0x1F2C, symBinAddr: 0x100083FE0, symSize: 0x114 }
  - { offsetInCU: 0x810F, offset: 0x355B6, size: 0x8, addend: 0x0, symName: __ZNSt3__116allocator_traitsINS_9allocatorIP5LayerEEE7destroyB8ue170006IS3_vEEvRS4_PT_, symObjAddr: 0x2040, symBinAddr: 0x1000840F4, symSize: 0x2C }
  - { offsetInCU: 0x814C, offset: 0x355F3, size: 0x8, addend: 0x0, symName: __ZNSt3__19allocatorIP5LayerE7destroyB8ue170006EPS2_, symObjAddr: 0x2080, symBinAddr: 0x100084134, symSize: 0x14 }
  - { offsetInCU: 0x817D, offset: 0x35624, size: 0x8, addend: 0x0, symName: __ZNKSt3__16vectorIP5LayerNS_9allocatorIS2_EEE31__annotate_contiguous_containerEPKvS7_S7_S7_, symObjAddr: 0x2094, symBinAddr: 0x100084148, symSize: 0x58 }
  - { offsetInCU: 0x81DD, offset: 0x35684, size: 0x8, addend: 0x0, symName: __ZNKSt3__16vectorIP5LayerNS_9allocatorIS2_EEE4dataB8ue170006Ev, symObjAddr: 0x20EC, symBinAddr: 0x1000841A0, symSize: 0x64 }
  - { offsetInCU: 0x8201, offset: 0x356A8, size: 0x8, addend: 0x0, symName: __ZNKSt3__16vectorIP5LayerNS_9allocatorIS2_EEE4sizeB8ue170006Ev, symObjAddr: 0x2150, symBinAddr: 0x100084204, symSize: 0xB0 }
  - { offsetInCU: 0x8225, offset: 0x356CC, size: 0x8, addend: 0x0, symName: __ZNSt3__19allocatorIP5LayerE10deallocateB8ue170006EPS2_m, symObjAddr: 0x2200, symBinAddr: 0x1000842B4, symSize: 0x4C }
  - { offsetInCU: 0x8265, offset: 0x3570C, size: 0x8, addend: 0x0, symName: __ZNSt3__117__compressed_pairIPP5LayerNS_9allocatorIS2_EEE6secondB8ue170006Ev, symObjAddr: 0x2374, symBinAddr: 0x100084300, symSize: 0x24 }
  - { offsetInCU: 0x828A, offset: 0x35731, size: 0x8, addend: 0x0, symName: __ZNSt3__122__compressed_pair_elemINS_9allocatorIP5LayerEELi1ELb1EE5__getB8ue170006Ev, symObjAddr: 0x2398, symBinAddr: 0x100084324, symSize: 0x14 }
  - { offsetInCU: 0x82AD, offset: 0x35754, size: 0x8, addend: 0x0, symName: __ZNKSt3__16vectorIP5LayerNS_9allocatorIS2_EEE9__end_capB8ue170006Ev, symObjAddr: 0x23AC, symBinAddr: 0x100084338, symSize: 0x28 }
  - { offsetInCU: 0x82D1, offset: 0x35778, size: 0x8, addend: 0x0, symName: __ZNKSt3__117__compressed_pairIPP5LayerNS_9allocatorIS2_EEE5firstB8ue170006Ev, symObjAddr: 0x23D4, symBinAddr: 0x100084360, symSize: 0x24 }
  - { offsetInCU: 0x82F6, offset: 0x3579D, size: 0x8, addend: 0x0, symName: __ZNKSt3__122__compressed_pair_elemIPP5LayerLi0ELb0EE5__getB8ue170006Ev, symObjAddr: 0x23F8, symBinAddr: 0x100084384, symSize: 0x14 }
  - { offsetInCU: 0x8319, offset: 0x357C0, size: 0x8, addend: 0x0, symName: __ZNSt3__16vectorIP5LayerNS_9allocatorIS2_EEE9__end_capB8ue170006Ev, symObjAddr: 0x26F4, symBinAddr: 0x1000843E0, symSize: 0x28 }
  - { offsetInCU: 0x833D, offset: 0x357E4, size: 0x8, addend: 0x0, symName: __ZNSt3__16vectorIP5LayerNS_9allocatorIS2_EEE22__construct_one_at_endB8ue170006IJRS2_EEEvDpOT_, symObjAddr: 0x271C, symBinAddr: 0x100084408, symSize: 0x36C }
  - { offsetInCU: 0x8397, offset: 0x3583E, size: 0x8, addend: 0x0, symName: __ZNSt3__112__temp_valueIP5LayerNS_9allocatorIS2_EEEC1B8ue170006IJRS2_EEERS4_DpOT_, symObjAddr: 0x2A88, symBinAddr: 0x100084774, symSize: 0x3C }
  - { offsetInCU: 0x83E8, offset: 0x3588F, size: 0x8, addend: 0x0, symName: __ZNSt3__16vectorIP5LayerNS_9allocatorIS2_EEE12__move_rangeEPS2_S6_S6_, symObjAddr: 0x2AC4, symBinAddr: 0x1000847B0, symSize: 0x450 }
  - { offsetInCU: 0x84AE, offset: 0x35955, size: 0x8, addend: 0x0, symName: __ZNSt3__112__temp_valueIP5LayerNS_9allocatorIS2_EEE3getB8ue170006Ev, symObjAddr: 0x2F14, symBinAddr: 0x100084C00, symSize: 0x24 }
  - { offsetInCU: 0x84D2, offset: 0x35979, size: 0x8, addend: 0x0, symName: __ZNSt3__112__temp_valueIP5LayerNS_9allocatorIS2_EEED1B8ue170006Ev, symObjAddr: 0x2F38, symBinAddr: 0x100084C24, symSize: 0x2C }
  - { offsetInCU: 0x84FA, offset: 0x359A1, size: 0x8, addend: 0x0, symName: __ZNKSt3__16vectorIP5LayerNS_9allocatorIS2_EEE11__recommendB8ue170006Em, symObjAddr: 0x2F64, symBinAddr: 0x100084C50, symSize: 0x384 }
  - { offsetInCU: 0x8555, offset: 0x359FC, size: 0x8, addend: 0x0, symName: __ZNSt3__114__split_bufferIP5LayerRNS_9allocatorIS2_EEEC1EmmS5_, symObjAddr: 0x32E8, symBinAddr: 0x100084FD4, symSize: 0x44 }
  - { offsetInCU: 0x85A9, offset: 0x35A50, size: 0x8, addend: 0x0, symName: __ZNSt3__114__split_bufferIP5LayerRNS_9allocatorIS2_EEE12emplace_backIJRS2_EEEvDpOT_, symObjAddr: 0x332C, symBinAddr: 0x100085018, symSize: 0xA3C }
  - { offsetInCU: 0x8635, offset: 0x35ADC, size: 0x8, addend: 0x0, symName: __ZNSt3__114__split_bufferIP5LayerRNS_9allocatorIS2_EEED1Ev, symObjAddr: 0x43E0, symBinAddr: 0x1000860CC, symSize: 0x2C }
  - { offsetInCU: 0x865F, offset: 0x35B06, size: 0x8, addend: 0x0, symName: __ZNKSt3__111__wrap_iterIPKP5LayerE4baseB8ue170006Ev, symObjAddr: 0x440C, symBinAddr: 0x1000860F8, symSize: 0x60 }
  - { offsetInCU: 0x8683, offset: 0x35B2A, size: 0x8, addend: 0x0, symName: __ZNSt3__117__compressed_pairIPP5LayerNS_9allocatorIS2_EEE5firstB8ue170006Ev, symObjAddr: 0x446C, symBinAddr: 0x100086158, symSize: 0x24 }
  - { offsetInCU: 0x86A8, offset: 0x35B4F, size: 0x8, addend: 0x0, symName: __ZNSt3__122__compressed_pair_elemIPP5LayerLi0ELb0EE5__getB8ue170006Ev, symObjAddr: 0x4490, symBinAddr: 0x10008617C, symSize: 0x14 }
  - { offsetInCU: 0x86E4, offset: 0x35B8B, size: 0x8, addend: 0x0, symName: __ZNSt3__16vectorIP5LayerNS_9allocatorIS2_EEE21_ConstructTransactionC1B8ue170006ERS5_m, symObjAddr: 0x44A4, symBinAddr: 0x100086190, symSize: 0x3C }
  - { offsetInCU: 0x872B, offset: 0x35BD2, size: 0x8, addend: 0x0, symName: __ZNSt3__116allocator_traitsINS_9allocatorIP5LayerEEE9constructB8ue170006IS3_JRS3_EvEEvRS4_PT_DpOT0_, symObjAddr: 0x44E0, symBinAddr: 0x1000861CC, symSize: 0x34 }
  - { offsetInCU: 0x8783, offset: 0x35C2A, size: 0x8, addend: 0x0, symName: __ZNSt3__16vectorIP5LayerNS_9allocatorIS2_EEE21_ConstructTransactionD1B8ue170006Ev, symObjAddr: 0x4514, symBinAddr: 0x100086200, symSize: 0x2C }
  - { offsetInCU: 0x87AB, offset: 0x35C52, size: 0x8, addend: 0x0, symName: __ZNSt3__16vectorIP5LayerNS_9allocatorIS2_EEE21_ConstructTransactionC2B8ue170006ERS5_m, symObjAddr: 0x4540, symBinAddr: 0x10008622C, symSize: 0x1D0 }
  - { offsetInCU: 0x87F1, offset: 0x35C98, size: 0x8, addend: 0x0, symName: __ZNKSt3__16vectorIP5LayerNS_9allocatorIS2_EEE19__annotate_increaseB8ue170006Em, symObjAddr: 0x4710, symBinAddr: 0x1000863FC, symSize: 0xD8 }
  - { offsetInCU: 0x8824, offset: 0x35CCB, size: 0x8, addend: 0x0, symName: __ZNSt3__19allocatorIP5LayerE9constructB8ue170006IS2_JRS2_EEEvPT_DpOT0_, symObjAddr: 0x47E8, symBinAddr: 0x1000864D4, symSize: 0xB4 }
  - { offsetInCU: 0x887A, offset: 0x35D21, size: 0x8, addend: 0x0, symName: __ZNSt3__16vectorIP5LayerNS_9allocatorIS2_EEE21_ConstructTransactionD2B8ue170006Ev, symObjAddr: 0x489C, symBinAddr: 0x100086588, symSize: 0x278 }
  - { offsetInCU: 0x88A2, offset: 0x35D49, size: 0x8, addend: 0x0, symName: __ZNKSt3__16vectorIP5LayerNS_9allocatorIS2_EEE17__annotate_shrinkB8ue170006Em, symObjAddr: 0x4B14, symBinAddr: 0x100086800, symSize: 0xC8 }
  - { offsetInCU: 0x88D5, offset: 0x35D7C, size: 0x8, addend: 0x0, symName: __ZNSt3__112__temp_valueIP5LayerNS_9allocatorIS2_EEEC2B8ue170006IJRS2_EEERS4_DpOT_, symObjAddr: 0x4BDC, symBinAddr: 0x1000868C8, symSize: 0xD0 }
  - { offsetInCU: 0x8927, offset: 0x35DCE, size: 0x8, addend: 0x0, symName: __ZNSt3__112__temp_valueIP5LayerNS_9allocatorIS2_EEE6__addrB8ue170006Ev, symObjAddr: 0x4CAC, symBinAddr: 0x100086998, symSize: 0x14 }
  - { offsetInCU: 0x894B, offset: 0x35DF2, size: 0x8, addend: 0x0, symName: __ZNSt3__116allocator_traitsINS_9allocatorIP5LayerEEE9constructB8ue170006IS3_JS3_EvEEvRS4_PT_DpOT0_, symObjAddr: 0x4CC0, symBinAddr: 0x1000869AC, symSize: 0x34 }
  - { offsetInCU: 0x89A3, offset: 0x35E4A, size: 0x8, addend: 0x0, symName: __ZNSt3__19allocatorIP5LayerE9constructB8ue170006IS2_JS2_EEEvPT_DpOT0_, symObjAddr: 0x4F60, symBinAddr: 0x100086C4C, symSize: 0xB4 }
  - { offsetInCU: 0x8A1C, offset: 0x35EC3, size: 0x8, addend: 0x0, symName: __ZNKSt3__123__move_backward_trivialclB8ue170006IP5LayerS3_Li0EEENS_4pairIPT_PT0_EES6_S6_S8_, symObjAddr: 0x5D60, symBinAddr: 0x100087A4C, symSize: 0x230 }
  - { offsetInCU: 0x8A87, offset: 0x35F2E, size: 0x8, addend: 0x0, symName: __ZNSt3__14pairIPP5LayerS3_EC1B8ue170006IRS3_S6_LPv0EEEOT_OT0_, symObjAddr: 0x6880, symBinAddr: 0x10008856C, symSize: 0x3C }
  - { offsetInCU: 0x8AE3, offset: 0x35F8A, size: 0x8, addend: 0x0, symName: __ZNSt3__14pairIPP5LayerS3_EC2B8ue170006IRS3_S6_LPv0EEEOT_OT0_, symObjAddr: 0x68BC, symBinAddr: 0x1000885A8, symSize: 0x138 }
  - { offsetInCU: 0x8B40, offset: 0x35FE7, size: 0x8, addend: 0x0, symName: __ZNSt3__118__unwrap_iter_implIPP5LayerLb1EE8__unwrapB8ue170006ES3_, symObjAddr: 0x69F4, symBinAddr: 0x1000886E0, symSize: 0x24 }
  - { offsetInCU: 0x8B67, offset: 0x3600E, size: 0x8, addend: 0x0, symName: __ZNSt3__14pairIPP5LayerS3_EC1B8ue170006IS3_S3_LPv0EEEOT_OT0_, symObjAddr: 0x6A18, symBinAddr: 0x100088704, symSize: 0x3C }
  - { offsetInCU: 0x8BC3, offset: 0x3606A, size: 0x8, addend: 0x0, symName: __ZNSt3__14pairIPP5LayerS3_EC2B8ue170006IS3_S3_LPv0EEEOT_OT0_, symObjAddr: 0x6A54, symBinAddr: 0x100088740, symSize: 0x138 }
  - { offsetInCU: 0x8C20, offset: 0x360C7, size: 0x8, addend: 0x0, symName: __ZNSt3__118__unwrap_iter_implIPP5LayerLb1EE8__rewrapB8ue170006ES3_S3_, symObjAddr: 0x6B8C, symBinAddr: 0x100088878, symSize: 0x50 }
  - { offsetInCU: 0x8C50, offset: 0x360F7, size: 0x8, addend: 0x0, symName: __ZNSt3__112__temp_valueIP5LayerNS_9allocatorIS2_EEED2B8ue170006Ev, symObjAddr: 0x6BDC, symBinAddr: 0x1000888C8, symSize: 0x90 }
  - { offsetInCU: 0x8C78, offset: 0x3611F, size: 0x8, addend: 0x0, symName: __ZNKSt3__16vectorIP5LayerNS_9allocatorIS2_EEE8max_sizeEv, symObjAddr: 0x6C6C, symBinAddr: 0x100088958, symSize: 0x2FC }
  - { offsetInCU: 0x8C9F, offset: 0x36146, size: 0x8, addend: 0x0, symName: __ZNKSt3__16vectorIP5LayerNS_9allocatorIS2_EEE20__throw_length_errorB8ue170006Ev, symObjAddr: 0x6F68, symBinAddr: 0x100088C54, symSize: 0x20 }
  - { offsetInCU: 0x8CCE, offset: 0x36175, size: 0x8, addend: 0x0, symName: __ZNSt3__116allocator_traitsINS_9allocatorIP5LayerEEE8max_sizeB8ue170006IS4_vEEmRKS4_, symObjAddr: 0x6FE0, symBinAddr: 0x100088C74, symSize: 0x24 }
  - { offsetInCU: 0x8CFB, offset: 0x361A2, size: 0x8, addend: 0x0, symName: __ZNKSt3__16vectorIP5LayerNS_9allocatorIS2_EEE7__allocB8ue170006Ev, symObjAddr: 0x7004, symBinAddr: 0x100088C98, symSize: 0x28 }
  - { offsetInCU: 0x8D20, offset: 0x361C7, size: 0x8, addend: 0x0, symName: __ZNKSt3__19allocatorIP5LayerE8max_sizeB8ue170006Ev, symObjAddr: 0x72E4, symBinAddr: 0x100088CC0, symSize: 0x14 }
  - { offsetInCU: 0x8D43, offset: 0x361EA, size: 0x8, addend: 0x0, symName: __ZNKSt3__117__compressed_pairIPP5LayerNS_9allocatorIS2_EEE6secondB8ue170006Ev, symObjAddr: 0x72F8, symBinAddr: 0x100088CD4, symSize: 0x24 }
  - { offsetInCU: 0x8D68, offset: 0x3620F, size: 0x8, addend: 0x0, symName: __ZNKSt3__122__compressed_pair_elemINS_9allocatorIP5LayerEELi1ELb1EE5__getB8ue170006Ev, symObjAddr: 0x731C, symBinAddr: 0x100088CF8, symSize: 0x14 }
  - { offsetInCU: 0x8D8C, offset: 0x36233, size: 0x8, addend: 0x0, symName: __ZNSt3__114__split_bufferIP5LayerRNS_9allocatorIS2_EEEC2EmmS5_, symObjAddr: 0x7648, symBinAddr: 0x100088D0C, symSize: 0x520 }
  - { offsetInCU: 0x8E0A, offset: 0x362B1, size: 0x8, addend: 0x0, symName: __ZNSt3__117__compressed_pairIPP5LayerRNS_9allocatorIS2_EEEC1B8ue170006IDnS6_EEOT_OT0_, symObjAddr: 0x7B68, symBinAddr: 0x10008922C, symSize: 0x3C }
  - { offsetInCU: 0x8E60, offset: 0x36307, size: 0x8, addend: 0x0, symName: __ZNSt3__114__split_bufferIP5LayerRNS_9allocatorIS2_EEE7__allocB8ue170006Ev, symObjAddr: 0x7E30, symBinAddr: 0x1000894F4, symSize: 0x28 }
  - { offsetInCU: 0x8E84, offset: 0x3632B, size: 0x8, addend: 0x0, symName: __ZNSt3__114__split_bufferIP5LayerRNS_9allocatorIS2_EEE9__end_capB8ue170006Ev, symObjAddr: 0x7E58, symBinAddr: 0x10008951C, symSize: 0x28 }
  - { offsetInCU: 0x8EA8, offset: 0x3634F, size: 0x8, addend: 0x0, symName: __ZNSt3__117__compressed_pairIPP5LayerRNS_9allocatorIS2_EEEC2B8ue170006IDnS6_EEOT_OT0_, symObjAddr: 0x7E80, symBinAddr: 0x100089544, symSize: 0x48 }
  - { offsetInCU: 0x8EFE, offset: 0x363A5, size: 0x8, addend: 0x0, symName: __ZNSt3__122__compressed_pair_elemIPP5LayerLi0ELb0EEC2B8ue170006IDnvEEOT_, symObjAddr: 0x7EC8, symBinAddr: 0x10008958C, symSize: 0x64 }
  - { offsetInCU: 0x8F3E, offset: 0x363E5, size: 0x8, addend: 0x0, symName: __ZNSt3__122__compressed_pair_elemIRNS_9allocatorIP5LayerEELi1ELb0EEC2B8ue170006IS5_vEEOT_, symObjAddr: 0x7F2C, symBinAddr: 0x1000895F0, symSize: 0x70 }
  - { offsetInCU: 0x8F7E, offset: 0x36425, size: 0x8, addend: 0x0, symName: __ZNSt3__19allocatorIP5LayerE8allocateB8ue170006Em, symObjAddr: 0x7F9C, symBinAddr: 0x100089660, symSize: 0x5C }
  - { offsetInCU: 0x8FB0, offset: 0x36457, size: 0x8, addend: 0x0, symName: __ZNSt3__117__compressed_pairIPP5LayerRNS_9allocatorIS2_EEE6secondB8ue170006Ev, symObjAddr: 0x80E0, symBinAddr: 0x1000896BC, symSize: 0x28 }
  - { offsetInCU: 0x8FD4, offset: 0x3647B, size: 0x8, addend: 0x0, symName: __ZNSt3__122__compressed_pair_elemIRNS_9allocatorIP5LayerEELi1ELb0EE5__getB8ue170006Ev, symObjAddr: 0x8108, symBinAddr: 0x1000896E4, symSize: 0x60 }
  - { offsetInCU: 0x8FF8, offset: 0x3649F, size: 0x8, addend: 0x0, symName: __ZNSt3__117__compressed_pairIPP5LayerRNS_9allocatorIS2_EEE5firstB8ue170006Ev, symObjAddr: 0x8168, symBinAddr: 0x100089744, symSize: 0x24 }
  - { offsetInCU: 0x901C, offset: 0x364C3, size: 0x8, addend: 0x0, symName: __ZNSt3__114__split_bufferIP5LayerRNS_9allocatorIS2_EEE18__construct_at_endINS_13move_iteratorIPS2_EEEENS_9enable_ifIXsr31__has_forward_iterator_categoryIT_EE5valueEvE4typeESC_SC_, symObjAddr: 0x83F8, symBinAddr: 0x1000899D4, symSize: 0x3D4 }
  - { offsetInCU: 0x9070, offset: 0x36517, size: 0x8, addend: 0x0, symName: __ZNSt3__113move_iteratorIPP5LayerEC1B8ue170006ES3_, symObjAddr: 0x87CC, symBinAddr: 0x100089DA8, symSize: 0x34 }
  - { offsetInCU: 0x90B0, offset: 0x36557, size: 0x8, addend: 0x0, symName: __ZNKSt3__114__move_trivialclB8ue170006IP5LayerS3_Li0EEENS_4pairIPT_PT0_EES6_S6_S8_, symObjAddr: 0x9330, symBinAddr: 0x10008A90C, symSize: 0x230 }
  - { offsetInCU: 0x911B, offset: 0x365C2, size: 0x8, addend: 0x0, symName: __ZNSt3__14pairIPP5LayerS3_EC1B8ue170006IRS3_S3_LPv0EEEOT_OT0_, symObjAddr: 0x9B20, symBinAddr: 0x10008B0FC, symSize: 0x3C }
  - { offsetInCU: 0x9177, offset: 0x3661E, size: 0x8, addend: 0x0, symName: __ZNSt3__14pairIPP5LayerS3_EC2B8ue170006IRS3_S3_LPv0EEEOT_OT0_, symObjAddr: 0x9B5C, symBinAddr: 0x10008B138, symSize: 0x138 }
  - { offsetInCU: 0x91D3, offset: 0x3667A, size: 0x8, addend: 0x0, symName: __ZNSt3__114__split_bufferIP5LayerRNS_9allocatorIS2_EEE28__construct_at_end_with_sizeINS_13move_iteratorIPS2_EEEEvT_m, symObjAddr: 0x9C94, symBinAddr: 0x10008B270, symSize: 0x484 }
  - { offsetInCU: 0x9241, offset: 0x366E8, size: 0x8, addend: 0x0, symName: __ZNSt3__114__split_bufferIP5LayerRNS_9allocatorIS2_EEE21_ConstructTransactionC1B8ue170006EPPS2_m, symObjAddr: 0xA468, symBinAddr: 0x10008BA44, symSize: 0x3C }
  - { offsetInCU: 0x9285, offset: 0x3672C, size: 0x8, addend: 0x0, symName: __ZNKSt3__113move_iteratorIPP5LayerEdeB8ue170006Ev, symObjAddr: 0xA4A4, symBinAddr: 0x10008BA80, symSize: 0x60 }
  - { offsetInCU: 0x92A9, offset: 0x36750, size: 0x8, addend: 0x0, symName: __ZNSt3__113move_iteratorIPP5LayerEppB8ue170006Ev, symObjAddr: 0xA504, symBinAddr: 0x10008BAE0, symSize: 0x68 }
  - { offsetInCU: 0x92CD, offset: 0x36774, size: 0x8, addend: 0x0, symName: __ZNSt3__114__split_bufferIP5LayerRNS_9allocatorIS2_EEE21_ConstructTransactionD1B8ue170006Ev, symObjAddr: 0xA56C, symBinAddr: 0x10008BB48, symSize: 0x2C }
  - { offsetInCU: 0x92F5, offset: 0x3679C, size: 0x8, addend: 0x0, symName: __ZNSt3__114__split_bufferIP5LayerRNS_9allocatorIS2_EEE21_ConstructTransactionC2B8ue170006EPPS2_m, symObjAddr: 0xA598, symBinAddr: 0x10008BB74, symSize: 0x184 }
  - { offsetInCU: 0x9339, offset: 0x367E0, size: 0x8, addend: 0x0, symName: __ZNSt3__114__split_bufferIP5LayerRNS_9allocatorIS2_EEE21_ConstructTransactionD2B8ue170006Ev, symObjAddr: 0xA71C, symBinAddr: 0x10008BCF8, symSize: 0xE0 }
  - { offsetInCU: 0x9361, offset: 0x36808, size: 0x8, addend: 0x0, symName: __ZNKSt3__113move_iteratorIPP5LayerE4baseB8ue170006Ev, symObjAddr: 0xAAB8, symBinAddr: 0x10008C094, symSize: 0x60 }
  - { offsetInCU: 0x9385, offset: 0x3682C, size: 0x8, addend: 0x0, symName: __ZNSt3__113move_iteratorIPP5LayerEC2B8ue170006ES3_, symObjAddr: 0xAB18, symBinAddr: 0x10008C0F4, symSize: 0x70 }
  - { offsetInCU: 0x93BB, offset: 0x36862, size: 0x8, addend: 0x0, symName: __ZNSt3__116reverse_iteratorIPP5LayerEC1B8ue170006ES3_, symObjAddr: 0xB030, symBinAddr: 0x10008C60C, symSize: 0x34 }
  - { offsetInCU: 0x93F1, offset: 0x36898, size: 0x8, addend: 0x0, symName: __ZNKSt3__116reverse_iteratorIPP5LayerE4baseB8ue170006Ev, symObjAddr: 0xB064, symBinAddr: 0x10008C640, symSize: 0x64 }
  - { offsetInCU: 0x9415, offset: 0x368BC, size: 0x8, addend: 0x0, symName: __ZNKSt3__16vectorIP5LayerNS_9allocatorIS2_EEE14__annotate_newB8ue170006Em, symObjAddr: 0xB100, symBinAddr: 0x10008C6DC, symSize: 0xC0 }
  - { offsetInCU: 0x946B, offset: 0x36912, size: 0x8, addend: 0x0, symName: __ZNKSt3__111__move_loopINS_17_ClassicAlgPolicyEEclB8ue170006INS_16reverse_iteratorIPP5LayerEES8_S8_EENS_4pairIT_T1_EESA_T0_SB_, symObjAddr: 0xCB80, symBinAddr: 0x10008E15C, symSize: 0x3A8 }
  - { offsetInCU: 0x94E2, offset: 0x36989, size: 0x8, addend: 0x0, symName: __ZNSt3__18_IterOpsINS_17_ClassicAlgPolicyEE11__iter_moveB8ue170006IRNS_16reverse_iteratorIPP5LayerEEEENS_9enable_ifIXsr12is_referenceIDTdeclsr3stdE7declvalIRT_EEEEE5valueEDTclsr3stdE4movedeclsr3stdE7declvalISC_EEEEE4typeEOSB_, symObjAddr: 0xDA50, symBinAddr: 0x10008F02C, symSize: 0x28 }
  - { offsetInCU: 0x950D, offset: 0x369B4, size: 0x8, addend: 0x0, symName: __ZNKSt3__116reverse_iteratorIPP5LayerEdeB8ue170006Ev, symObjAddr: 0xDA78, symBinAddr: 0x10008F054, symSize: 0x74 }
  - { offsetInCU: 0x953F, offset: 0x369E6, size: 0x8, addend: 0x0, symName: __ZNSt3__116reverse_iteratorIPP5LayerEppB8ue170006Ev, symObjAddr: 0xDAEC, symBinAddr: 0x10008F0C8, symSize: 0x6C }
  - { offsetInCU: 0x9564, offset: 0x36A0B, size: 0x8, addend: 0x0, symName: __ZNSt3__18_IterOpsINS_17_ClassicAlgPolicyEE25__validate_iter_referenceB8ue170006IRNS_16reverse_iteratorIPP5LayerEEEEvv, symObjAddr: 0xDB58, symBinAddr: 0x10008F134, symSize: 0x4 }
  - { offsetInCU: 0x9582, offset: 0x36A29, size: 0x8, addend: 0x0, symName: __ZNSt3__118__unwrap_iter_implINS_16reverse_iteratorIPP5LayerEELb0EE8__unwrapB8ue170006ES5_, symObjAddr: 0xDB5C, symBinAddr: 0x10008F138, symSize: 0x274 }
  - { offsetInCU: 0x95AD, offset: 0x36A54, size: 0x8, addend: 0x0, symName: __ZNSt3__14pairINS_16reverse_iteratorIPP5LayerEES5_EC1B8ue170006IS5_S5_LPv0EEEOT_OT0_, symObjAddr: 0xDDD0, symBinAddr: 0x10008F3AC, symSize: 0x3C }
  - { offsetInCU: 0x9609, offset: 0x36AB0, size: 0x8, addend: 0x0, symName: __ZNSt3__14pairINS_16reverse_iteratorIPP5LayerEES5_EC2B8ue170006IS5_S5_LPv0EEEOT_OT0_, symObjAddr: 0xDE0C, symBinAddr: 0x10008F3E8, symSize: 0x54 }
  - { offsetInCU: 0x9666, offset: 0x36B0D, size: 0x8, addend: 0x0, symName: __ZNSt3__118__unwrap_iter_implINS_16reverse_iteratorIPP5LayerEELb0EE8__rewrapB8ue170006ES5_S5_, symObjAddr: 0xDE60, symBinAddr: 0x10008F43C, symSize: 0x2E0 }
  - { offsetInCU: 0x969B, offset: 0x36B42, size: 0x8, addend: 0x0, symName: __ZNSt3__116reverse_iteratorIPP5LayerEC2B8ue170006ES3_, symObjAddr: 0xE140, symBinAddr: 0x10008F71C, symSize: 0xB8 }
  - { offsetInCU: 0x96D2, offset: 0x36B79, size: 0x8, addend: 0x0, symName: __ZNSt3__114__split_bufferIP5LayerRNS_9allocatorIS2_EEED2Ev, symObjAddr: 0xE1F8, symBinAddr: 0x10008F7D4, symSize: 0x104 }
  - { offsetInCU: 0x96FC, offset: 0x36BA3, size: 0x8, addend: 0x0, symName: __ZNSt3__114__split_bufferIP5LayerRNS_9allocatorIS2_EEE5clearB8ue170006Ev, symObjAddr: 0xE2FC, symBinAddr: 0x10008F8D8, symSize: 0x68 }
  - { offsetInCU: 0x9720, offset: 0x36BC7, size: 0x8, addend: 0x0, symName: __ZNKSt3__114__split_bufferIP5LayerRNS_9allocatorIS2_EEE8capacityB8ue170006Ev, symObjAddr: 0xE364, symBinAddr: 0x10008F940, symSize: 0xBC }
  - { offsetInCU: 0x9744, offset: 0x36BEB, size: 0x8, addend: 0x0, symName: __ZNSt3__114__split_bufferIP5LayerRNS_9allocatorIS2_EEE17__destruct_at_endB8ue170006EPS2_, symObjAddr: 0xE420, symBinAddr: 0x10008F9FC, symSize: 0x2C }
  - { offsetInCU: 0x9776, offset: 0x36C1D, size: 0x8, addend: 0x0, symName: __ZNSt3__114__split_bufferIP5LayerRNS_9allocatorIS2_EEE17__destruct_at_endB8ue170006EPS2_NS_17integral_constantIbLb0EEE, symObjAddr: 0xE44C, symBinAddr: 0x10008FA28, symSize: 0x10C }
  - { offsetInCU: 0x97B5, offset: 0x36C5C, size: 0x8, addend: 0x0, symName: __ZNKSt3__114__split_bufferIP5LayerRNS_9allocatorIS2_EEE9__end_capB8ue170006Ev, symObjAddr: 0xE558, symBinAddr: 0x10008FB34, symSize: 0x28 }
  - { offsetInCU: 0x97D9, offset: 0x36C80, size: 0x8, addend: 0x0, symName: __ZNKSt3__117__compressed_pairIPP5LayerRNS_9allocatorIS2_EEE5firstB8ue170006Ev, symObjAddr: 0xE580, symBinAddr: 0x10008FB5C, symSize: 0x24 }
  - { offsetInCU: 0x3C, offset: 0x36D76, size: 0x8, addend: 0x0, symName: _.str, symObjAddr: 0xB360, symBinAddr: 0x1004F1FE0, symSize: 0x0 }
  - { offsetInCU: 0x7A4C, offset: 0x3E786, size: 0x8, addend: 0x0, symName: __ZNSt3__134__libcpp_atomic_refcount_incrementB8ue170006IlEET_RS1_, symObjAddr: 0x2A58, symBinAddr: 0x100091414, symSize: 0x80 }
  - { offsetInCU: 0x7A81, offset: 0x3E7BB, size: 0x8, addend: 0x0, symName: __ZNSt3__111make_sharedB8ue170006INS_6vectorI11SceneObjectNS_9allocatorIS2_EEEEJRKS5_EvEENS_10shared_ptrIT_EEDpOT0_, symObjAddr: 0x2AD8, symBinAddr: 0x100091494, symSize: 0x1E8 }
  - { offsetInCU: 0x7AC7, offset: 0x3E801, size: 0x8, addend: 0x0, symName: __ZNSt3__115allocate_sharedB8ue170006INS_6vectorI11SceneObjectNS_9allocatorIS2_EEEENS3_IS5_EEJRKS5_EvEENS_10shared_ptrIT_EERKT0_DpOT1_, symObjAddr: 0x2CC0, symBinAddr: 0x10009167C, symSize: 0x300 }
  - { offsetInCU: 0x7E48, offset: 0x3EB82, size: 0x8, addend: 0x0, symName: __ZNSt3__122__make_exception_guardB8ue170006INS_6vectorI11SceneObjectNS_9allocatorIS2_EEE16__destroy_vectorEEENS_28__exception_guard_exceptionsIT_EES8_, symObjAddr: 0x4874, symBinAddr: 0x100093128, symSize: 0x278 }
  - { offsetInCU: 0x7E81, offset: 0x3EBBB, size: 0x8, addend: 0x0, symName: __ZNSt3__119__allocate_at_leastB8ue170006INS_9allocatorI11SceneObjectEEEENS_19__allocation_resultINS_16allocator_traitsIT_E7pointerEEERS6_m, symObjAddr: 0x5BA8, symBinAddr: 0x10009445C, symSize: 0x28C }
  - { offsetInCU: 0x7EC6, offset: 0x3EC00, size: 0x8, addend: 0x0, symName: __ZNSt3__112__to_addressB8ue170006I11SceneObjectEEPT_S3_, symObjAddr: 0x660C, symBinAddr: 0x100094AA0, symSize: 0x14 }
  - { offsetInCU: 0x7EFB, offset: 0x3EC35, size: 0x8, addend: 0x0, symName: __ZNSt3__130__uninitialized_allocator_copyB8ue170006INS_9allocatorI11SceneObjectEEPS2_S4_S4_EET2_RT_T0_T1_S5_, symObjAddr: 0x66BC, symBinAddr: 0x100094B50, symSize: 0x2DC }
  - { offsetInCU: 0x7FA1, offset: 0x3ECDB, size: 0x8, addend: 0x0, symName: __ZNSt3__114__unwrap_rangeB8ue170006IP11SceneObjectS2_EENS_4pairIT0_S4_EET_S6_, symObjAddr: 0x6C94, symBinAddr: 0x100095128, symSize: 0x350 }
  - { offsetInCU: 0x7FEF, offset: 0x3ED29, size: 0x8, addend: 0x0, symName: __ZNSt3__135__uninitialized_allocator_copy_implB8ue170006INS_9allocatorI11SceneObjectEES2_S2_S2_LPv0EEEPT2_RT_PT0_SA_S6_, symObjAddr: 0x6FE4, symBinAddr: 0x100095478, symSize: 0x38 }
  - { offsetInCU: 0x8071, offset: 0x3EDAB, size: 0x8, addend: 0x0, symName: __ZNSt3__113__unwrap_iterB8ue170006IP11SceneObjectNS_18__unwrap_iter_implIS2_Lb1EEELi0EEEDTclsrT0_8__unwrapclsr3stdE7declvalIT_EEEES6_, symObjAddr: 0x701C, symBinAddr: 0x1000954B0, symSize: 0x24 }
  - { offsetInCU: 0x80B6, offset: 0x3EDF0, size: 0x8, addend: 0x0, symName: __ZNSt3__113__rewrap_iterB8ue170006IP11SceneObjectS2_NS_18__unwrap_iter_implIS2_Lb1EEEEET_S5_T0_, symObjAddr: 0x7040, symBinAddr: 0x1000954D4, symSize: 0x48 }
  - { offsetInCU: 0x810B, offset: 0x3EE45, size: 0x8, addend: 0x0, symName: __ZNSt3__19make_pairB8ue170006IP11SceneObjectS2_EENS_4pairINS_18__unwrap_ref_decayIT_E4typeENS4_IT0_E4typeEEEOS5_OS8_, symObjAddr: 0x7088, symBinAddr: 0x10009551C, symSize: 0x20C }
  - { offsetInCU: 0x825F, offset: 0x3EF99, size: 0x8, addend: 0x0, symName: __ZNSt3__14copyB8ue170006IP11SceneObjectS2_EET0_T_S4_S3_, symObjAddr: 0x7408, symBinAddr: 0x10009589C, symSize: 0x26C }
  - { offsetInCU: 0x82BC, offset: 0x3EFF6, size: 0x8, addend: 0x0, symName: __ZNSt3__16__copyB8ue170006INS_17_ClassicAlgPolicyEP11SceneObjectS3_S3_EENS_4pairIT0_T2_EES5_T1_S6_, symObjAddr: 0x7674, symBinAddr: 0x100095B08, symSize: 0x22C }
  - { offsetInCU: 0x832B, offset: 0x3F065, size: 0x8, addend: 0x0, symName: __ZNSt3__123__dispatch_copy_or_moveB8ue170006INS_17_ClassicAlgPolicyENS_11__copy_loopIS1_EENS_14__copy_trivialEP11SceneObjectS6_S6_EENS_4pairIT2_T4_EES8_T3_S9_, symObjAddr: 0x78A0, symBinAddr: 0x100095D34, symSize: 0x22C }
  - { offsetInCU: 0x83AC, offset: 0x3F0E6, size: 0x8, addend: 0x0, symName: __ZNSt3__121__unwrap_and_dispatchB8ue170006INS_10__overloadINS_11__copy_loopINS_17_ClassicAlgPolicyEEENS_14__copy_trivialEEEP11SceneObjectS8_S8_Li0EEENS_4pairIT0_T2_EESA_T1_SB_, symObjAddr: 0x7ACC, symBinAddr: 0x100095F60, symSize: 0x5A4 }
  - { offsetInCU: 0x848D, offset: 0x3F1C7, size: 0x8, addend: 0x0, symName: __ZNSt3__114__rewrap_rangeB8ue170006IP11SceneObjectS2_EET_S3_T0_, symObjAddr: 0x82A0, symBinAddr: 0x100096734, symSize: 0x2C }
  - { offsetInCU: 0x84D9, offset: 0x3F213, size: 0x8, addend: 0x0, symName: __ZNSt3__119__copy_trivial_implB8ue170006I11SceneObjectS1_EENS_4pairIPT_PT0_EES4_S4_S6_, symObjAddr: 0x82CC, symBinAddr: 0x100096760, symSize: 0x3BC }
  - { offsetInCU: 0x8548, offset: 0x3F282, size: 0x8, addend: 0x0, symName: __ZNSt3__119__constexpr_memmoveB8ue170006I11SceneObjectS1_Li0EEEPT_S3_PT0_NS_15__element_countE, symObjAddr: 0x8688, symBinAddr: 0x100096B1C, symSize: 0x68 }
  - { offsetInCU: 0x85B7, offset: 0x3F2F1, size: 0x8, addend: 0x0, symName: __ZNSt3__19make_pairB8ue170006IRP11SceneObjectS2_EENS_4pairINS_18__unwrap_ref_decayIT_E4typeENS5_IT0_E4typeEEEOS6_OS9_, symObjAddr: 0x86F0, symBinAddr: 0x100096B84, symSize: 0x20C }
  - { offsetInCU: 0x868E, offset: 0x3F3C8, size: 0x8, addend: 0x0, symName: __ZNSt3__134__libcpp_atomic_refcount_decrementB8ue170006IlEET_RS1_, symObjAddr: 0x9FD4, symBinAddr: 0x1000981A0, symSize: 0x80 }
  - { offsetInCU: 0x86C3, offset: 0x3F3FD, size: 0x8, addend: 0x0, symName: __ZNSt3__120__throw_out_of_rangeB8ue170006EPKc, symObjAddr: 0xAABC, symBinAddr: 0x100098308, symSize: 0x68 }
  - { offsetInCU: 0x8C4C, offset: 0x3F986, size: 0x8, addend: 0x0, symName: __Z3powB8ue170006IfiENSt3__19enable_ifIXaasr3std13is_arithmeticIT_EE5valuesr3std13is_arithmeticIT0_EE5valueENS0_9__promoteIS2_S3_vEEE4type4typeES2_S3_, symObjAddr: 0xFA4, symBinAddr: 0x100090660, symSize: 0x3C }
  - { offsetInCU: 0xAB5C, offset: 0x41896, size: 0x8, addend: 0x0, symName: __ZN9Raytracer8TraceRayEP3Ray, symObjAddr: 0x0, symBinAddr: 0x10008FC18, symSize: 0x78C }
  - { offsetInCU: 0xB70D, offset: 0x42447, size: 0x8, addend: 0x0, symName: __ZN8Renderer14GetActiveSceneEv, symObjAddr: 0x78C, symBinAddr: 0x1000903A4, symSize: 0x30 }
  - { offsetInCU: 0xB720, offset: 0x4245A, size: 0x8, addend: 0x0, symName: __ZNKSt3__110shared_ptrIK5SceneEptB8ue170006Ev, symObjAddr: 0x7BC, symBinAddr: 0x1000903D4, symSize: 0x60 }
  - { offsetInCU: 0xB744, offset: 0x4247E, size: 0x8, addend: 0x0, symName: __ZNK5Scene15GetSceneObjectsEv, symObjAddr: 0x81C, symBinAddr: 0x100090434, symSize: 0x30 }
  - { offsetInCU: 0xB768, offset: 0x424A2, size: 0x8, addend: 0x0, symName: __ZNSt3__110shared_ptrIK5SceneED1B8ue170006Ev, symObjAddr: 0x84C, symBinAddr: 0x100090464, symSize: 0x2C }
  - { offsetInCU: 0xB790, offset: 0x424CA, size: 0x8, addend: 0x0, symName: __ZNSt3__114numeric_limitsIfE3maxB8ue170006Ev, symObjAddr: 0x878, symBinAddr: 0x100090490, symSize: 0x14 }
  - { offsetInCU: 0xB7A3, offset: 0x424DD, size: 0x8, addend: 0x0, symName: __ZNKSt3__110shared_ptrINS_6vectorI11SceneObjectNS_9allocatorIS2_EEEEEptB8ue170006Ev, symObjAddr: 0x8B8, symBinAddr: 0x1000904A4, symSize: 0x60 }
  - { offsetInCU: 0xB7C7, offset: 0x42501, size: 0x8, addend: 0x0, symName: __ZNKSt3__16vectorI11SceneObjectNS_9allocatorIS1_EEE4sizeB8ue170006Ev, symObjAddr: 0x918, symBinAddr: 0x100090504, symSize: 0xB0 }
  - { offsetInCU: 0xB7EB, offset: 0x42525, size: 0x8, addend: 0x0, symName: __ZNSt3__16vectorI11SceneObjectNS_9allocatorIS1_EEE2atEm, symObjAddr: 0x9C8, symBinAddr: 0x1000905B4, symSize: 0xAC }
  - { offsetInCU: 0xB820, offset: 0x4255A, size: 0x8, addend: 0x0, symName: __ZN9Raytracer12RegisterMissEP3Ray, symObjAddr: 0xFF8, symBinAddr: 0x10009069C, symSize: 0xA4 }
  - { offsetInCU: 0xB854, offset: 0x4258E, size: 0x8, addend: 0x0, symName: __ZN9Raytracer15HandleCollisionEP3Rayfj, symObjAddr: 0x109C, symBinAddr: 0x100090740, symSize: 0xA30 }
  - { offsetInCU: 0xB8A7, offset: 0x425E1, size: 0x8, addend: 0x0, symName: __ZNSt3__110shared_ptrINS_6vectorI11SceneObjectNS_9allocatorIS2_EEEEED1B8ue170006Ev, symObjAddr: 0x1ACC, symBinAddr: 0x100091170, symSize: 0x2C }
  - { offsetInCU: 0xB8D4, offset: 0x4260E, size: 0x8, addend: 0x0, symName: __ZN13CollisionDataC1Ev, symObjAddr: 0x1AF8, symBinAddr: 0x10009119C, symSize: 0x2C }
  - { offsetInCU: 0xB8FF, offset: 0x42639, size: 0x8, addend: 0x0, symName: __ZNSt3__110shared_ptrIK5SceneEC1B8ue170006IS1_vEERKNS0_IT_EE, symObjAddr: 0x280C, symBinAddr: 0x1000911C8, symSize: 0x34 }
  - { offsetInCU: 0xB940, offset: 0x4267A, size: 0x8, addend: 0x0, symName: __ZNSt3__110shared_ptrIK5SceneEC2B8ue170006IS1_vEERKNS0_IT_EE, symObjAddr: 0x2840, symBinAddr: 0x1000911FC, symSize: 0x1CC }
  - { offsetInCU: 0xB981, offset: 0x426BB, size: 0x8, addend: 0x0, symName: __ZNSt3__119__shared_weak_count12__add_sharedB8ue170006Ev, symObjAddr: 0x2A0C, symBinAddr: 0x1000913C8, symSize: 0x24 }
  - { offsetInCU: 0xB9A5, offset: 0x426DF, size: 0x8, addend: 0x0, symName: __ZNSt3__114__shared_count12__add_sharedB8ue170006Ev, symObjAddr: 0x2A30, symBinAddr: 0x1000913EC, symSize: 0x28 }
  - { offsetInCU: 0xB9C9, offset: 0x42703, size: 0x8, addend: 0x0, symName: __ZNSt3__19allocatorINS_6vectorI11SceneObjectNS0_IS2_EEEEEC1B8ue170006Ev, symObjAddr: 0x2FC0, symBinAddr: 0x10009197C, symSize: 0x2C }
  - { offsetInCU: 0xBA3C, offset: 0x42776, size: 0x8, addend: 0x0, symName: __ZNSt3__118__allocation_guardINS_9allocatorINS_20__shared_ptr_emplaceINS_6vectorI11SceneObjectNS1_IS4_EEEENS1_IS6_EEEEEEEC1B8ue170006IS7_EET_m, symObjAddr: 0x2FEC, symBinAddr: 0x1000919A8, symSize: 0x34 }
  - { offsetInCU: 0xBA89, offset: 0x427C3, size: 0x8, addend: 0x0, symName: __ZNKSt3__118__allocation_guardINS_9allocatorINS_20__shared_ptr_emplaceINS_6vectorI11SceneObjectNS1_IS4_EEEENS1_IS6_EEEEEEE5__getB8ue170006Ev, symObjAddr: 0x3020, symBinAddr: 0x1000919DC, symSize: 0x64 }
  - { offsetInCU: 0xBAAD, offset: 0x427E7, size: 0x8, addend: 0x0, symName: __ZNSt3__120__shared_ptr_emplaceINS_6vectorI11SceneObjectNS_9allocatorIS2_EEEENS3_IS5_EEEC1B8ue170006IJRKS5_EEES6_DpOT_, symObjAddr: 0x3084, symBinAddr: 0x100091A40, symSize: 0x34 }
  - { offsetInCU: 0xBB00, offset: 0x4283A, size: 0x8, addend: 0x0, symName: __ZNSt3__118__allocation_guardINS_9allocatorINS_20__shared_ptr_emplaceINS_6vectorI11SceneObjectNS1_IS4_EEEENS1_IS6_EEEEEEE13__release_ptrB8ue170006Ev, symObjAddr: 0x30B8, symBinAddr: 0x100091A74, symSize: 0xA8 }
  - { offsetInCU: 0xBB32, offset: 0x4286C, size: 0x8, addend: 0x0, symName: __ZNSt3__110shared_ptrINS_6vectorI11SceneObjectNS_9allocatorIS2_EEEEE27__create_with_control_blockB8ue170006IS5_NS_20__shared_ptr_emplaceIS5_NS3_IS5_EEEEEES6_PT_PT0_, symObjAddr: 0x3160, symBinAddr: 0x100091B1C, symSize: 0x188 }
  - { offsetInCU: 0xBB87, offset: 0x428C1, size: 0x8, addend: 0x0, symName: __ZNSt3__120__shared_ptr_emplaceINS_6vectorI11SceneObjectNS_9allocatorIS2_EEEENS3_IS5_EEE10__get_elemB8ue170006Ev, symObjAddr: 0x32E8, symBinAddr: 0x100091CA4, symSize: 0x28 }
  - { offsetInCU: 0xBBAB, offset: 0x428E5, size: 0x8, addend: 0x0, symName: __ZNSt3__118__allocation_guardINS_9allocatorINS_20__shared_ptr_emplaceINS_6vectorI11SceneObjectNS1_IS4_EEEENS1_IS6_EEEEEEED1B8ue170006Ev, symObjAddr: 0x3310, symBinAddr: 0x100091CCC, symSize: 0x2C }
  - { offsetInCU: 0xBBD3, offset: 0x4290D, size: 0x8, addend: 0x0, symName: __ZNSt3__118__allocation_guardINS_9allocatorINS_20__shared_ptr_emplaceINS_6vectorI11SceneObjectNS1_IS4_EEEENS1_IS6_EEEEEEEC2B8ue170006IS7_EET_m, symObjAddr: 0x333C, symBinAddr: 0x100091CF8, symSize: 0x28C }
  - { offsetInCU: 0xBC26, offset: 0x42960, size: 0x8, addend: 0x0, symName: __ZNSt3__19allocatorINS_20__shared_ptr_emplaceINS_6vectorI11SceneObjectNS0_IS3_EEEENS0_IS5_EEEEEC1B8ue170006IS5_EERKNS0_IT_EE, symObjAddr: 0x35C8, symBinAddr: 0x100091F84, symSize: 0x34 }
  - { offsetInCU: 0xBC62, offset: 0x4299C, size: 0x8, addend: 0x0, symName: __ZNSt3__116allocator_traitsINS_9allocatorINS_20__shared_ptr_emplaceINS_6vectorI11SceneObjectNS1_IS4_EEEENS1_IS6_EEEEEEE8allocateB8ue170006ERS9_m, symObjAddr: 0x35FC, symBinAddr: 0x100091FB8, symSize: 0x2C }
  - { offsetInCU: 0xBC95, offset: 0x429CF, size: 0x8, addend: 0x0, symName: __ZNSt3__19allocatorINS_20__shared_ptr_emplaceINS_6vectorI11SceneObjectNS0_IS3_EEEENS0_IS5_EEEEEC2B8ue170006IS5_EERKNS0_IT_EE, symObjAddr: 0x3628, symBinAddr: 0x100091FE4, symSize: 0x30 }
  - { offsetInCU: 0xBCD1, offset: 0x42A0B, size: 0x8, addend: 0x0, symName: __ZNSt3__116__non_trivial_ifILb1ENS_9allocatorINS_20__shared_ptr_emplaceINS_6vectorI11SceneObjectNS1_IS4_EEEENS1_IS6_EEEEEEEC2B8ue170006Ev, symObjAddr: 0x3658, symBinAddr: 0x100092014, symSize: 0x14 }
  - { offsetInCU: 0xBCFA, offset: 0x42A34, size: 0x8, addend: 0x0, symName: __ZNSt3__19allocatorINS_20__shared_ptr_emplaceINS_6vectorI11SceneObjectNS0_IS3_EEEENS0_IS5_EEEEE8allocateB8ue170006Em, symObjAddr: 0x366C, symBinAddr: 0x100092028, symSize: 0x60 }
  - { offsetInCU: 0xBD36, offset: 0x42A70, size: 0x8, addend: 0x0, symName: __ZNSt3__116allocator_traitsINS_9allocatorINS_20__shared_ptr_emplaceINS_6vectorI11SceneObjectNS1_IS4_EEEENS1_IS6_EEEEEEE8max_sizeB8ue170006IS9_vEEmRKS9_, symObjAddr: 0x36CC, symBinAddr: 0x100092088, symSize: 0x24 }
  - { offsetInCU: 0xBD64, offset: 0x42A9E, size: 0x8, addend: 0x0, symName: __ZNKSt3__19allocatorINS_20__shared_ptr_emplaceINS_6vectorI11SceneObjectNS0_IS3_EEEENS0_IS5_EEEEE8max_sizeB8ue170006Ev, symObjAddr: 0x3788, symBinAddr: 0x1000920AC, symSize: 0x18 }
  - { offsetInCU: 0xBD88, offset: 0x42AC2, size: 0x8, addend: 0x0, symName: __ZNSt3__120__shared_ptr_emplaceINS_6vectorI11SceneObjectNS_9allocatorIS2_EEEENS3_IS5_EEEC2B8ue170006IJRKS5_EEES6_DpOT_, symObjAddr: 0x3810, symBinAddr: 0x1000920C4, symSize: 0x2E4 }
  - { offsetInCU: 0xBDE1, offset: 0x42B1B, size: 0x8, addend: 0x0, symName: __ZNSt3__119__shared_weak_countC2B8ue170006El, symObjAddr: 0x3AF4, symBinAddr: 0x1000923A8, symSize: 0xD0 }
  - { offsetInCU: 0xBE17, offset: 0x42B51, size: 0x8, addend: 0x0, symName: __ZNSt3__120__shared_ptr_emplaceINS_6vectorI11SceneObjectNS_9allocatorIS2_EEEENS3_IS5_EEE8_StorageC1B8ue170006EOS6_, symObjAddr: 0x3BC4, symBinAddr: 0x100092478, symSize: 0x34 }
  - { offsetInCU: 0xBE4E, offset: 0x42B88, size: 0x8, addend: 0x0, symName: __ZNSt3__16vectorI11SceneObjectNS_9allocatorIS1_EEEC1ERKS4_, symObjAddr: 0x3BF8, symBinAddr: 0x1000924AC, symSize: 0x34 }
  - { offsetInCU: 0xBE88, offset: 0x42BC2, size: 0x8, addend: 0x0, symName: __ZNSt3__120__shared_ptr_emplaceINS_6vectorI11SceneObjectNS_9allocatorIS2_EEEENS3_IS5_EEE8_StorageD1B8ue170006Ev, symObjAddr: 0x3C2C, symBinAddr: 0x1000924E0, symSize: 0x2C }
  - { offsetInCU: 0xBEB0, offset: 0x42BEA, size: 0x8, addend: 0x0, symName: __ZNSt3__120__shared_ptr_emplaceINS_6vectorI11SceneObjectNS_9allocatorIS2_EEEENS3_IS5_EEED1Ev, symObjAddr: 0x3C58, symBinAddr: 0x10009250C, symSize: 0x2C }
  - { offsetInCU: 0xBEDC, offset: 0x42C16, size: 0x8, addend: 0x0, symName: __ZNSt3__120__shared_ptr_emplaceINS_6vectorI11SceneObjectNS_9allocatorIS2_EEEENS3_IS5_EEED0Ev, symObjAddr: 0x3C84, symBinAddr: 0x100092538, symSize: 0x30 }
  - { offsetInCU: 0xBF08, offset: 0x42C42, size: 0x8, addend: 0x0, symName: __ZNSt3__120__shared_ptr_emplaceINS_6vectorI11SceneObjectNS_9allocatorIS2_EEEENS3_IS5_EEE16__on_zero_sharedEv, symObjAddr: 0x3CB4, symBinAddr: 0x100092568, symSize: 0x28 }
  - { offsetInCU: 0xBF2C, offset: 0x42C66, size: 0x8, addend: 0x0, symName: __ZNSt3__120__shared_ptr_emplaceINS_6vectorI11SceneObjectNS_9allocatorIS2_EEEENS3_IS5_EEE21__on_zero_shared_weakEv, symObjAddr: 0x3CDC, symBinAddr: 0x100092590, symSize: 0x208 }
  - { offsetInCU: 0xBF70, offset: 0x42CAA, size: 0x8, addend: 0x0, symName: __ZNSt3__114__shared_countC2B8ue170006El, symObjAddr: 0x3EE4, symBinAddr: 0x100092798, symSize: 0xC0 }
  - { offsetInCU: 0xBFA6, offset: 0x42CE0, size: 0x8, addend: 0x0, symName: __ZNSt3__120__shared_ptr_emplaceINS_6vectorI11SceneObjectNS_9allocatorIS2_EEEENS3_IS5_EEE8_StorageC2B8ue170006EOS6_, symObjAddr: 0x3FA4, symBinAddr: 0x100092858, symSize: 0x30 }
  - { offsetInCU: 0xBFDD, offset: 0x42D17, size: 0x8, addend: 0x0, symName: __ZNSt3__120__shared_ptr_emplaceINS_6vectorI11SceneObjectNS_9allocatorIS2_EEEENS3_IS5_EEE8_Storage11__get_allocB8ue170006Ev, symObjAddr: 0x3FD4, symBinAddr: 0x100092888, symSize: 0x3C }
  - { offsetInCU: 0xC02E, offset: 0x42D68, size: 0x8, addend: 0x0, symName: __ZNSt3__117__compressed_pairINS_9allocatorINS_6vectorI11SceneObjectNS1_IS3_EEEEEES5_E16__get_first_baseB8ue170006EPS7_, symObjAddr: 0x4010, symBinAddr: 0x1000928C4, symSize: 0x14 }
  - { offsetInCU: 0xC051, offset: 0x42D8B, size: 0x8, addend: 0x0, symName: __ZNSt3__16vectorI11SceneObjectNS_9allocatorIS1_EEEC2ERKS4_, symObjAddr: 0x4024, symBinAddr: 0x1000928D8, symSize: 0x388 }
  - { offsetInCU: 0xC097, offset: 0x42DD1, size: 0x8, addend: 0x0, symName: __ZNSt3__116allocator_traitsINS_9allocatorI11SceneObjectEEE37select_on_container_copy_constructionB8ue170006IS3_vvEES3_RKS3_, symObjAddr: 0x43AC, symBinAddr: 0x100092C60, symSize: 0x10 }
  - { offsetInCU: 0xC0C6, offset: 0x42E00, size: 0x8, addend: 0x0, symName: __ZNKSt3__16vectorI11SceneObjectNS_9allocatorIS1_EEE7__allocB8ue170006Ev, symObjAddr: 0x43BC, symBinAddr: 0x100092C70, symSize: 0x28 }
  - { offsetInCU: 0xC0F4, offset: 0x42E2E, size: 0x8, addend: 0x0, symName: __ZNSt3__117__compressed_pairIP11SceneObjectNS_9allocatorIS1_EEEC1B8ue170006IDnS4_EEOT_OT0_, symObjAddr: 0x43E4, symBinAddr: 0x100092C98, symSize: 0x3C }
  - { offsetInCU: 0xC14A, offset: 0x42E84, size: 0x8, addend: 0x0, symName: __ZNSt3__16vectorI11SceneObjectNS_9allocatorIS1_EEE16__init_with_sizeB8ue170006IPS1_S6_EEvT_T0_m, symObjAddr: 0x4420, symBinAddr: 0x100092CD4, symSize: 0x35C }
  - { offsetInCU: 0xC1C4, offset: 0x42EFE, size: 0x8, addend: 0x0, symName: __ZNKSt3__117__compressed_pairIP11SceneObjectNS_9allocatorIS1_EEE6secondB8ue170006Ev, symObjAddr: 0x477C, symBinAddr: 0x100093030, symSize: 0x24 }
  - { offsetInCU: 0xC1E8, offset: 0x42F22, size: 0x8, addend: 0x0, symName: __ZNKSt3__122__compressed_pair_elemINS_9allocatorI11SceneObjectEELi1ELb1EE5__getB8ue170006Ev, symObjAddr: 0x47A0, symBinAddr: 0x100093054, symSize: 0x14 }
  - { offsetInCU: 0xC20C, offset: 0x42F46, size: 0x8, addend: 0x0, symName: __ZNSt3__117__compressed_pairIP11SceneObjectNS_9allocatorIS1_EEEC2B8ue170006IDnS4_EEOT_OT0_, symObjAddr: 0x47B4, symBinAddr: 0x100093068, symSize: 0x44 }
  - { offsetInCU: 0xC262, offset: 0x42F9C, size: 0x8, addend: 0x0, symName: __ZNSt3__122__compressed_pair_elemIP11SceneObjectLi0ELb0EEC2B8ue170006IDnvEEOT_, symObjAddr: 0x47F8, symBinAddr: 0x1000930AC, symSize: 0x64 }
  - { offsetInCU: 0xC2A2, offset: 0x42FDC, size: 0x8, addend: 0x0, symName: __ZNSt3__122__compressed_pair_elemINS_9allocatorI11SceneObjectEELi1ELb1EEC2B8ue170006IS3_vEEOT_, symObjAddr: 0x485C, symBinAddr: 0x100093110, symSize: 0x18 }
  - { offsetInCU: 0xC2E3, offset: 0x4301D, size: 0x8, addend: 0x0, symName: __ZNSt3__16vectorI11SceneObjectNS_9allocatorIS1_EEE16__destroy_vectorC1B8ue170006ERS4_, symObjAddr: 0x4AEC, symBinAddr: 0x1000933A0, symSize: 0x34 }
  - { offsetInCU: 0xC31A, offset: 0x43054, size: 0x8, addend: 0x0, symName: __ZNSt3__16vectorI11SceneObjectNS_9allocatorIS1_EEE11__vallocateB8ue170006Em, symObjAddr: 0x4B20, symBinAddr: 0x1000933D4, symSize: 0x428 }
  - { offsetInCU: 0xC362, offset: 0x4309C, size: 0x8, addend: 0x0, symName: __ZNSt3__16vectorI11SceneObjectNS_9allocatorIS1_EEE18__construct_at_endIPS1_S6_EEvT_T0_m, symObjAddr: 0x4F48, symBinAddr: 0x1000937FC, symSize: 0x380 }
  - { offsetInCU: 0xC3DE, offset: 0x43118, size: 0x8, addend: 0x0, symName: __ZNSt3__128__exception_guard_exceptionsINS_6vectorI11SceneObjectNS_9allocatorIS2_EEE16__destroy_vectorEE10__completeB8ue170006Ev, symObjAddr: 0x52C8, symBinAddr: 0x100093B7C, symSize: 0x8C }
  - { offsetInCU: 0xC402, offset: 0x4313C, size: 0x8, addend: 0x0, symName: __ZNSt3__128__exception_guard_exceptionsINS_6vectorI11SceneObjectNS_9allocatorIS2_EEE16__destroy_vectorEED1B8ue170006Ev, symObjAddr: 0x5354, symBinAddr: 0x100093C08, symSize: 0x2C }
  - { offsetInCU: 0xC42A, offset: 0x43164, size: 0x8, addend: 0x0, symName: __ZNSt3__128__exception_guard_exceptionsINS_6vectorI11SceneObjectNS_9allocatorIS2_EEE16__destroy_vectorEEC1B8ue170006ES6_, symObjAddr: 0x5380, symBinAddr: 0x100093C34, symSize: 0x238 }
  - { offsetInCU: 0xC465, offset: 0x4319F, size: 0x8, addend: 0x0, symName: __ZNSt3__128__exception_guard_exceptionsINS_6vectorI11SceneObjectNS_9allocatorIS2_EEE16__destroy_vectorEEC2B8ue170006ES6_, symObjAddr: 0x55B8, symBinAddr: 0x100093E6C, symSize: 0x264 }
  - { offsetInCU: 0xC4A0, offset: 0x431DA, size: 0x8, addend: 0x0, symName: __ZNSt3__16vectorI11SceneObjectNS_9allocatorIS1_EEE16__destroy_vectorC2B8ue170006ERS4_, symObjAddr: 0x581C, symBinAddr: 0x1000940D0, symSize: 0x70 }
  - { offsetInCU: 0xC4D7, offset: 0x43211, size: 0x8, addend: 0x0, symName: __ZNKSt3__16vectorI11SceneObjectNS_9allocatorIS1_EEE8max_sizeEv, symObjAddr: 0x588C, symBinAddr: 0x100094140, symSize: 0x2FC }
  - { offsetInCU: 0xC4FE, offset: 0x43238, size: 0x8, addend: 0x0, symName: __ZNKSt3__16vectorI11SceneObjectNS_9allocatorIS1_EEE20__throw_length_errorB8ue170006Ev, symObjAddr: 0x5B88, symBinAddr: 0x10009443C, symSize: 0x20 }
  - { offsetInCU: 0xC522, offset: 0x4325C, size: 0x8, addend: 0x0, symName: __ZNSt3__16vectorI11SceneObjectNS_9allocatorIS1_EEE7__allocB8ue170006Ev, symObjAddr: 0x5E34, symBinAddr: 0x1000946E8, symSize: 0x28 }
  - { offsetInCU: 0xC546, offset: 0x43280, size: 0x8, addend: 0x0, symName: __ZNSt3__16vectorI11SceneObjectNS_9allocatorIS1_EEE9__end_capB8ue170006Ev, symObjAddr: 0x5E5C, symBinAddr: 0x100094710, symSize: 0x28 }
  - { offsetInCU: 0xC56A, offset: 0x432A4, size: 0x8, addend: 0x0, symName: __ZNKSt3__16vectorI11SceneObjectNS_9allocatorIS1_EEE14__annotate_newB8ue170006Em, symObjAddr: 0x5E84, symBinAddr: 0x100094738, symSize: 0xDC }
  - { offsetInCU: 0xC59D, offset: 0x432D7, size: 0x8, addend: 0x0, symName: __ZNSt3__116allocator_traitsINS_9allocatorI11SceneObjectEEE8max_sizeB8ue170006IS3_vEEmRKS3_, symObjAddr: 0x5F8C, symBinAddr: 0x100094814, symSize: 0x24 }
  - { offsetInCU: 0xC5CB, offset: 0x43305, size: 0x8, addend: 0x0, symName: __ZNKSt3__19allocatorI11SceneObjectE8max_sizeB8ue170006Ev, symObjAddr: 0x6274, symBinAddr: 0x100094838, symSize: 0x20 }
  - { offsetInCU: 0xC5EF, offset: 0x43329, size: 0x8, addend: 0x0, symName: __ZNSt3__19allocatorI11SceneObjectE8allocateB8ue170006Em, symObjAddr: 0x63C4, symBinAddr: 0x100094858, symSize: 0x60 }
  - { offsetInCU: 0xC621, offset: 0x4335B, size: 0x8, addend: 0x0, symName: __ZNSt3__117__compressed_pairIP11SceneObjectNS_9allocatorIS1_EEE6secondB8ue170006Ev, symObjAddr: 0x6424, symBinAddr: 0x1000948B8, symSize: 0x24 }
  - { offsetInCU: 0xC645, offset: 0x4337F, size: 0x8, addend: 0x0, symName: __ZNSt3__122__compressed_pair_elemINS_9allocatorI11SceneObjectEELi1ELb1EE5__getB8ue170006Ev, symObjAddr: 0x6448, symBinAddr: 0x1000948DC, symSize: 0x14 }
  - { offsetInCU: 0xC669, offset: 0x433A3, size: 0x8, addend: 0x0, symName: __ZNSt3__117__compressed_pairIP11SceneObjectNS_9allocatorIS1_EEE5firstB8ue170006Ev, symObjAddr: 0x645C, symBinAddr: 0x1000948F0, symSize: 0x24 }
  - { offsetInCU: 0xC68D, offset: 0x433C7, size: 0x8, addend: 0x0, symName: __ZNSt3__122__compressed_pair_elemIP11SceneObjectLi0ELb0EE5__getB8ue170006Ev, symObjAddr: 0x6480, symBinAddr: 0x100094914, symSize: 0x14 }
  - { offsetInCU: 0xC6B1, offset: 0x433EB, size: 0x8, addend: 0x0, symName: __ZNKSt3__16vectorI11SceneObjectNS_9allocatorIS1_EEE31__annotate_contiguous_containerEPKvS6_S6_S6_, symObjAddr: 0x6494, symBinAddr: 0x100094928, symSize: 0x58 }
  - { offsetInCU: 0xC711, offset: 0x4344B, size: 0x8, addend: 0x0, symName: __ZNKSt3__16vectorI11SceneObjectNS_9allocatorIS1_EEE4dataB8ue170006Ev, symObjAddr: 0x64EC, symBinAddr: 0x100094980, symSize: 0x64 }
  - { offsetInCU: 0xC735, offset: 0x4346F, size: 0x8, addend: 0x0, symName: __ZNKSt3__16vectorI11SceneObjectNS_9allocatorIS1_EEE8capacityB8ue170006Ev, symObjAddr: 0x6550, symBinAddr: 0x1000949E4, symSize: 0xBC }
  - { offsetInCU: 0xC759, offset: 0x43493, size: 0x8, addend: 0x0, symName: __ZNKSt3__16vectorI11SceneObjectNS_9allocatorIS1_EEE9__end_capB8ue170006Ev, symObjAddr: 0x6620, symBinAddr: 0x100094AB4, symSize: 0x28 }
  - { offsetInCU: 0xC77D, offset: 0x434B7, size: 0x8, addend: 0x0, symName: __ZNKSt3__117__compressed_pairIP11SceneObjectNS_9allocatorIS1_EEE5firstB8ue170006Ev, symObjAddr: 0x6648, symBinAddr: 0x100094ADC, symSize: 0x24 }
  - { offsetInCU: 0xC7A1, offset: 0x434DB, size: 0x8, addend: 0x0, symName: __ZNKSt3__122__compressed_pair_elemIP11SceneObjectLi0ELb0EE5__getB8ue170006Ev, symObjAddr: 0x666C, symBinAddr: 0x100094B00, symSize: 0x14 }
  - { offsetInCU: 0xC7DE, offset: 0x43518, size: 0x8, addend: 0x0, symName: __ZNSt3__16vectorI11SceneObjectNS_9allocatorIS1_EEE21_ConstructTransactionC1B8ue170006ERS4_m, symObjAddr: 0x6680, symBinAddr: 0x100094B14, symSize: 0x3C }
  - { offsetInCU: 0xC824, offset: 0x4355E, size: 0x8, addend: 0x0, symName: __ZNSt3__16vectorI11SceneObjectNS_9allocatorIS1_EEE21_ConstructTransactionD1B8ue170006Ev, symObjAddr: 0x6998, symBinAddr: 0x100094E2C, symSize: 0x2C }
  - { offsetInCU: 0xC84C, offset: 0x43586, size: 0x8, addend: 0x0, symName: __ZNSt3__16vectorI11SceneObjectNS_9allocatorIS1_EEE21_ConstructTransactionC2B8ue170006ERS4_m, symObjAddr: 0x69C4, symBinAddr: 0x100094E58, symSize: 0x1D8 }
  - { offsetInCU: 0xC892, offset: 0x435CC, size: 0x8, addend: 0x0, symName: __ZNKSt3__16vectorI11SceneObjectNS_9allocatorIS1_EEE19__annotate_increaseB8ue170006Em, symObjAddr: 0x6B9C, symBinAddr: 0x100095030, symSize: 0xF8 }
  - { offsetInCU: 0xC8E3, offset: 0x4361D, size: 0x8, addend: 0x0, symName: __ZNSt3__14pairIP11SceneObjectS2_EC1B8ue170006IS2_S2_LPv0EEEOT_OT0_, symObjAddr: 0x7294, symBinAddr: 0x100095728, symSize: 0x3C }
  - { offsetInCU: 0xC93F, offset: 0x43679, size: 0x8, addend: 0x0, symName: __ZNSt3__14pairIP11SceneObjectS2_EC2B8ue170006IS2_S2_LPv0EEEOT_OT0_, symObjAddr: 0x72D0, symBinAddr: 0x100095764, symSize: 0x138 }
  - { offsetInCU: 0xC9A5, offset: 0x436DF, size: 0x8, addend: 0x0, symName: __ZNKSt3__114__copy_trivialclB8ue170006I11SceneObjectS2_Li0EEENS_4pairIPT_PT0_EES5_S5_S7_, symObjAddr: 0x8070, symBinAddr: 0x100096504, symSize: 0x230 }
  - { offsetInCU: 0xCA10, offset: 0x4374A, size: 0x8, addend: 0x0, symName: __ZNSt3__14pairIP11SceneObjectS2_EC1B8ue170006IRS2_S2_LPv0EEEOT_OT0_, symObjAddr: 0x88FC, symBinAddr: 0x100096D90, symSize: 0x3C }
  - { offsetInCU: 0xCA6C, offset: 0x437A6, size: 0x8, addend: 0x0, symName: __ZNSt3__14pairIP11SceneObjectS2_EC2B8ue170006IRS2_S2_LPv0EEEOT_OT0_, symObjAddr: 0x8938, symBinAddr: 0x100096DCC, symSize: 0x138 }
  - { offsetInCU: 0xCAC8, offset: 0x43802, size: 0x8, addend: 0x0, symName: __ZNSt3__118__unwrap_iter_implIP11SceneObjectLb1EE8__unwrapB8ue170006ES2_, symObjAddr: 0x8A70, symBinAddr: 0x100096F04, symSize: 0x24 }
  - { offsetInCU: 0xCAEB, offset: 0x43825, size: 0x8, addend: 0x0, symName: __ZNSt3__118__unwrap_iter_implIP11SceneObjectLb1EE8__rewrapB8ue170006ES2_S2_, symObjAddr: 0x8A94, symBinAddr: 0x100096F28, symSize: 0x58 }
  - { offsetInCU: 0xCB1C, offset: 0x43856, size: 0x8, addend: 0x0, symName: __ZNSt3__16vectorI11SceneObjectNS_9allocatorIS1_EEE21_ConstructTransactionD2B8ue170006Ev, symObjAddr: 0x8AEC, symBinAddr: 0x100096F80, symSize: 0x278 }
  - { offsetInCU: 0xCB44, offset: 0x4387E, size: 0x8, addend: 0x0, symName: __ZNKSt3__16vectorI11SceneObjectNS_9allocatorIS1_EEE17__annotate_shrinkB8ue170006Em, symObjAddr: 0x8D64, symBinAddr: 0x1000971F8, symSize: 0xE4 }
  - { offsetInCU: 0xCB77, offset: 0x438B1, size: 0x8, addend: 0x0, symName: __ZNSt3__128__exception_guard_exceptionsINS_6vectorI11SceneObjectNS_9allocatorIS2_EEE16__destroy_vectorEED2B8ue170006Ev, symObjAddr: 0x8E48, symBinAddr: 0x1000972DC, symSize: 0xBC }
  - { offsetInCU: 0xCB9F, offset: 0x438D9, size: 0x8, addend: 0x0, symName: __ZNSt3__16vectorI11SceneObjectNS_9allocatorIS1_EEE16__destroy_vectorclB8ue170006Ev, symObjAddr: 0x8F04, symBinAddr: 0x100097398, symSize: 0x228 }
  - { offsetInCU: 0xCBC3, offset: 0x438FD, size: 0x8, addend: 0x0, symName: __ZNSt3__16vectorI11SceneObjectNS_9allocatorIS1_EEE7__clearB8ue170006Ev, symObjAddr: 0x912C, symBinAddr: 0x1000975C0, symSize: 0x64 }
  - { offsetInCU: 0xCBE7, offset: 0x43921, size: 0x8, addend: 0x0, symName: __ZNKSt3__16vectorI11SceneObjectNS_9allocatorIS1_EEE17__annotate_deleteB8ue170006Ev, symObjAddr: 0x9190, symBinAddr: 0x100097624, symSize: 0xE8 }
  - { offsetInCU: 0xCC0B, offset: 0x43945, size: 0x8, addend: 0x0, symName: __ZNSt3__116allocator_traitsINS_9allocatorI11SceneObjectEEE10deallocateB8ue170006ERS3_PS2_m, symObjAddr: 0x9278, symBinAddr: 0x10009770C, symSize: 0x34 }
  - { offsetInCU: 0xCC4D, offset: 0x43987, size: 0x8, addend: 0x0, symName: __ZNSt3__16vectorI11SceneObjectNS_9allocatorIS1_EEE22__base_destruct_at_endB8ue170006EPS1_, symObjAddr: 0x92AC, symBinAddr: 0x100097740, symSize: 0x114 }
  - { offsetInCU: 0xCC8F, offset: 0x439C9, size: 0x8, addend: 0x0, symName: __ZNSt3__116allocator_traitsINS_9allocatorI11SceneObjectEEE7destroyB8ue170006IS2_vEEvRS3_PT_, symObjAddr: 0x93C0, symBinAddr: 0x100097854, symSize: 0x2C }
  - { offsetInCU: 0xCCCC, offset: 0x43A06, size: 0x8, addend: 0x0, symName: __ZNSt3__19allocatorI11SceneObjectE7destroyB8ue170006EPS1_, symObjAddr: 0x93EC, symBinAddr: 0x100097880, symSize: 0x14 }
  - { offsetInCU: 0xCCFE, offset: 0x43A38, size: 0x8, addend: 0x0, symName: __ZNSt3__19allocatorI11SceneObjectE10deallocateB8ue170006EPS1_m, symObjAddr: 0x9400, symBinAddr: 0x100097894, symSize: 0x50 }
  - { offsetInCU: 0xCD3E, offset: 0x43A78, size: 0x8, addend: 0x0, symName: __ZNSt3__120__shared_ptr_emplaceINS_6vectorI11SceneObjectNS_9allocatorIS2_EEEENS3_IS5_EEE8_StorageD2B8ue170006Ev, symObjAddr: 0x9558, symBinAddr: 0x1000978E4, symSize: 0x2C }
  - { offsetInCU: 0xCD66, offset: 0x43AA0, size: 0x8, addend: 0x0, symName: __ZNSt3__120__shared_ptr_emplaceINS_6vectorI11SceneObjectNS_9allocatorIS2_EEEENS3_IS5_EEED2Ev, symObjAddr: 0x9584, symBinAddr: 0x100097910, symSize: 0x88 }
  - { offsetInCU: 0xCD92, offset: 0x43ACC, size: 0x8, addend: 0x0, symName: __ZNSt3__16vectorI11SceneObjectNS_9allocatorIS1_EEED1B8ue170006Ev, symObjAddr: 0x960C, symBinAddr: 0x100097998, symSize: 0x2C }
  - { offsetInCU: 0xCDBA, offset: 0x43AF4, size: 0x8, addend: 0x0, symName: __ZNSt3__16vectorI11SceneObjectNS_9allocatorIS1_EEED2B8ue170006Ev, symObjAddr: 0x9638, symBinAddr: 0x1000979C4, symSize: 0x1F4 }
  - { offsetInCU: 0xCDE3, offset: 0x43B1D, size: 0x8, addend: 0x0, symName: __ZNSt3__120__shared_ptr_emplaceINS_6vectorI11SceneObjectNS_9allocatorIS2_EEEENS3_IS5_EEE11__get_allocB8ue170006Ev, symObjAddr: 0x982C, symBinAddr: 0x100097BB8, symSize: 0x28 }
  - { offsetInCU: 0xCE07, offset: 0x43B41, size: 0x8, addend: 0x0, symName: __ZNSt3__116allocator_traitsINS_9allocatorINS_20__shared_ptr_emplaceINS_6vectorI11SceneObjectNS1_IS4_EEEENS1_IS6_EEEEEEE10deallocateB8ue170006ERS9_PS8_m, symObjAddr: 0x9854, symBinAddr: 0x100097BE0, symSize: 0x34 }
  - { offsetInCU: 0xCE49, offset: 0x43B83, size: 0x8, addend: 0x0, symName: __ZNSt3__114pointer_traitsIPNS_20__shared_ptr_emplaceINS_6vectorI11SceneObjectNS_9allocatorIS3_EEEENS4_IS6_EEEEE10pointer_toB8ue170006ERS8_, symObjAddr: 0x9888, symBinAddr: 0x100097C14, symSize: 0x14 }
  - { offsetInCU: 0xCE6C, offset: 0x43BA6, size: 0x8, addend: 0x0, symName: __ZNSt3__19allocatorINS_20__shared_ptr_emplaceINS_6vectorI11SceneObjectNS0_IS3_EEEENS0_IS5_EEEEE10deallocateB8ue170006EPS7_m, symObjAddr: 0x989C, symBinAddr: 0x100097C28, symSize: 0x50 }
  - { offsetInCU: 0xCEAC, offset: 0x43BE6, size: 0x8, addend: 0x0, symName: __ZNSt3__110shared_ptrINS_6vectorI11SceneObjectNS_9allocatorIS2_EEEEEC1B8ue170006Ev, symObjAddr: 0x98EC, symBinAddr: 0x100097C78, symSize: 0x2C }
  - { offsetInCU: 0xCED4, offset: 0x43C0E, size: 0x8, addend: 0x0, symName: __ZNSt3__110shared_ptrINS_6vectorI11SceneObjectNS_9allocatorIS2_EEEEE18__enable_weak_thisB8ue170006Ez, symObjAddr: 0x9918, symBinAddr: 0x100097CA4, symSize: 0x10 }
  - { offsetInCU: 0xCEF9, offset: 0x43C33, size: 0x8, addend: 0x0, symName: __ZNSt3__110shared_ptrINS_6vectorI11SceneObjectNS_9allocatorIS2_EEEEEC2B8ue170006Ev, symObjAddr: 0x9928, symBinAddr: 0x100097CB4, symSize: 0x9C }
  - { offsetInCU: 0xCF21, offset: 0x43C5B, size: 0x8, addend: 0x0, symName: __ZNSt3__120__shared_ptr_emplaceINS_6vectorI11SceneObjectNS_9allocatorIS2_EEEENS3_IS5_EEE8_Storage10__get_elemB8ue170006Ev, symObjAddr: 0x99C4, symBinAddr: 0x100097D50, symSize: 0x3C }
  - { offsetInCU: 0xCF72, offset: 0x43CAC, size: 0x8, addend: 0x0, symName: __ZNSt3__117__compressed_pairINS_9allocatorINS_6vectorI11SceneObjectNS1_IS3_EEEEEES5_E17__get_second_baseB8ue170006EPS7_, symObjAddr: 0x9A00, symBinAddr: 0x100097D8C, symSize: 0x14 }
  - { offsetInCU: 0xCF95, offset: 0x43CCF, size: 0x8, addend: 0x0, symName: __ZNSt3__118__allocation_guardINS_9allocatorINS_20__shared_ptr_emplaceINS_6vectorI11SceneObjectNS1_IS4_EEEENS1_IS6_EEEEEEED2B8ue170006Ev, symObjAddr: 0x9A14, symBinAddr: 0x100097DA0, symSize: 0x2C }
  - { offsetInCU: 0xCFBD, offset: 0x43CF7, size: 0x8, addend: 0x0, symName: __ZNSt3__118__allocation_guardINS_9allocatorINS_20__shared_ptr_emplaceINS_6vectorI11SceneObjectNS1_IS4_EEEENS1_IS6_EEEEEEE9__destroyB8ue170006Ev, symObjAddr: 0x9A40, symBinAddr: 0x100097DCC, symSize: 0xFC }
  - { offsetInCU: 0xCFE1, offset: 0x43D1B, size: 0x8, addend: 0x0, symName: __ZNSt3__19allocatorINS_6vectorI11SceneObjectNS0_IS2_EEEEEC2B8ue170006Ev, symObjAddr: 0x9B3C, symBinAddr: 0x100097EC8, symSize: 0x2C }
  - { offsetInCU: 0xD009, offset: 0x43D43, size: 0x8, addend: 0x0, symName: __ZNSt3__116__non_trivial_ifILb1ENS_9allocatorINS_6vectorI11SceneObjectNS1_IS3_EEEEEEEC2B8ue170006Ev, symObjAddr: 0x9B68, symBinAddr: 0x100097EF4, symSize: 0x14 }
  - { offsetInCU: 0xD032, offset: 0x43D6C, size: 0x8, addend: 0x0, symName: __ZNSt3__123__libcpp_numeric_limitsIfLb1EE3maxB8ue170006Ev, symObjAddr: 0x9B7C, symBinAddr: 0x100097F08, symSize: 0xC }
  - { offsetInCU: 0xD046, offset: 0x43D80, size: 0x8, addend: 0x0, symName: __ZN13CollisionDataC2Ev, symObjAddr: 0x9D48, symBinAddr: 0x100097F14, symSize: 0x90 }
  - { offsetInCU: 0xD071, offset: 0x43DAB, size: 0x8, addend: 0x0, symName: __ZNSt3__110shared_ptrINS_6vectorI11SceneObjectNS_9allocatorIS2_EEEEED2B8ue170006Ev, symObjAddr: 0x9DD8, symBinAddr: 0x100097FA4, symSize: 0xC8 }
  - { offsetInCU: 0xD099, offset: 0x43DD3, size: 0x8, addend: 0x0, symName: __ZNSt3__119__shared_weak_count16__release_sharedB8ue170006Ev, symObjAddr: 0x9EA0, symBinAddr: 0x10009806C, symSize: 0x3C }
  - { offsetInCU: 0xD0BD, offset: 0x43DF7, size: 0x8, addend: 0x0, symName: __ZNSt3__114__shared_count16__release_sharedB8ue170006Ev, symObjAddr: 0x9EDC, symBinAddr: 0x1000980A8, symSize: 0xF8 }
  - { offsetInCU: 0xD0E1, offset: 0x43E1B, size: 0x8, addend: 0x0, symName: __ZNSt3__110shared_ptrIK5SceneED2B8ue170006Ev, symObjAddr: 0xA054, symBinAddr: 0x100098220, symSize: 0xC8 }
  - { offsetInCU: 0xD109, offset: 0x43E43, size: 0x8, addend: 0x0, symName: __ZNKSt3__16vectorI11SceneObjectNS_9allocatorIS1_EEE20__throw_out_of_rangeB8ue170006Ev, symObjAddr: 0xAA9C, symBinAddr: 0x1000982E8, symSize: 0x20 }
  - { offsetInCU: 0xD12D, offset: 0x43E67, size: 0x8, addend: 0x0, symName: __ZNSt12out_of_rangeC1B8ue170006EPKc, symObjAddr: 0xAB24, symBinAddr: 0x100098370, symSize: 0x34 }
  - { offsetInCU: 0xD163, offset: 0x43E9D, size: 0x8, addend: 0x0, symName: __ZNSt12out_of_rangeC2B8ue170006EPKc, symObjAddr: 0xAB58, symBinAddr: 0x1000983A4, symSize: 0x8C }
  - { offsetInCU: 0x26, offset: 0x43F7A, size: 0x8, addend: 0x0, symName: __ZN13RenderCommand5FlushEj, symObjAddr: 0x0, symBinAddr: 0x1000984C8, symSize: 0x140 }
  - { offsetInCU: 0x29E7, offset: 0x4693B, size: 0x8, addend: 0x0, symName: __ZN13RenderCommand5FlushEj, symObjAddr: 0x0, symBinAddr: 0x1000984C8, symSize: 0x140 }
  - { offsetInCU: 0x2A0C, offset: 0x46960, size: 0x8, addend: 0x0, symName: __ZN13RenderCommand13SetClearColorEN3glm3vecILi4EfLNS0_9qualifierE0EEE, symObjAddr: 0x140, symBinAddr: 0x100098608, symSize: 0x474 }
  - { offsetInCU: 0x2A35, offset: 0x46989, size: 0x8, addend: 0x0, symName: __ZN13RenderCommand11SwapBuffersEP10GLFWwindow, symObjAddr: 0x5B4, symBinAddr: 0x100098A7C, symSize: 0x24 }
  - { offsetInCU: 0x2A5A, offset: 0x469AE, size: 0x8, addend: 0x0, symName: __ZN13RenderCommand14ListenToEventsEv, symObjAddr: 0x5D8, symBinAddr: 0x100098AA0, symSize: 0x14 }
  - { offsetInCU: 0x2A70, offset: 0x469C4, size: 0x8, addend: 0x0, symName: __ZN13RenderCommand21SetViewportDimensionsEjj, symObjAddr: 0x5EC, symBinAddr: 0x100098AB4, symSize: 0x7C }
  - { offsetInCU: 0x2AA3, offset: 0x469F7, size: 0x8, addend: 0x0, symName: __ZN13RenderCommand6EnableEj, symObjAddr: 0x668, symBinAddr: 0x100098B30, symSize: 0xEC }
  - { offsetInCU: 0x39, offset: 0x46A55, size: 0x8, addend: 0x0, symName: __ZN8Renderer7m_sceneE, symObjAddr: 0x75320, symBinAddr: 0x10060E740, symSize: 0x0 }
  - { offsetInCU: 0x5EA7, offset: 0x4C8C3, size: 0x8, addend: 0x0, symName: __ZNSt3__114in_place_indexILm0EEE, symObjAddr: 0x1B926, symBinAddr: 0x1004E7C97, symSize: 0x0 }
  - { offsetInCU: 0x797A, offset: 0x4E396, size: 0x8, addend: 0x0, symName: __ZNSt3__111make_sharedB8ue170006I5ImageJRjS2_11ImageFormatEvEENS_10shared_ptrIT_EEDpOT0_, symObjAddr: 0x1E94, symBinAddr: 0x10009AAC8, symSize: 0x1F8 }
  - { offsetInCU: 0x79EC, offset: 0x4E408, size: 0x8, addend: 0x0, symName: __ZNSt3__16get_ifB8ue170006I10PointLightJS1_EEEu13__add_pointerIT_EPNS_7variantIJDpT0_EEE, symObjAddr: 0x4DD4, symBinAddr: 0x10009D944, symSize: 0x24 }
  - { offsetInCU: 0x7A30, offset: 0x4E44C, size: 0x8, addend: 0x0, symName: __ZNSt3__111make_sharedB8ue170006INS_6vectorINS_7variantIJ10PointLightEEENS_9allocatorIS4_EEEEJRKS7_EvEENS_10shared_ptrIT_EEDpOT0_, symObjAddr: 0x9508, symBinAddr: 0x1000A01A0, symSize: 0x1E8 }
  - { offsetInCU: 0x7A76, offset: 0x4E492, size: 0x8, addend: 0x0, symName: __ZNSt3__115allocate_sharedB8ue170006INS_6vectorINS_7variantIJ10PointLightEEENS_9allocatorIS4_EEEENS5_IS7_EEJRKS7_EvEENS_10shared_ptrIT_EERKT0_DpOT1_, symObjAddr: 0x96F0, symBinAddr: 0x1000A0388, symSize: 0x300 }
  - { offsetInCU: 0x7DF7, offset: 0x4E813, size: 0x8, addend: 0x0, symName: __ZNSt3__122__make_exception_guardB8ue170006INS_6vectorINS_7variantIJ10PointLightEEENS_9allocatorIS4_EEE16__destroy_vectorEEENS_28__exception_guard_exceptionsIT_EESA_, symObjAddr: 0xB2A4, symBinAddr: 0x1000A1CA4, symSize: 0x278 }
  - { offsetInCU: 0x7E30, offset: 0x4E84C, size: 0x8, addend: 0x0, symName: __ZNSt3__119__allocate_at_leastB8ue170006INS_9allocatorINS_7variantIJ10PointLightEEEEEEENS_19__allocation_resultINS_16allocator_traitsIT_E7pointerEEERS8_m, symObjAddr: 0xC5D0, symBinAddr: 0x1000A2FD0, symSize: 0x28C }
  - { offsetInCU: 0x7E75, offset: 0x4E891, size: 0x8, addend: 0x0, symName: __ZNSt3__112__to_addressB8ue170006INS_7variantIJ10PointLightEEEEEPT_S5_, symObjAddr: 0xD008, symBinAddr: 0x1000A35E8, symSize: 0x14 }
  - { offsetInCU: 0x7EAA, offset: 0x4E8C6, size: 0x8, addend: 0x0, symName: __ZNSt3__130__uninitialized_allocator_copyB8ue170006INS_9allocatorINS_7variantIJ10PointLightEEEEEPS4_S6_S6_EET2_RT_T0_T1_S7_, symObjAddr: 0xD0B8, symBinAddr: 0x1000A3698, symSize: 0x2DC }
  - { offsetInCU: 0x7F50, offset: 0x4E96C, size: 0x8, addend: 0x0, symName: __ZNSt3__114__unwrap_rangeB8ue170006IPNS_7variantIJ10PointLightEEES4_EENS_4pairIT0_S6_EET_S8_, symObjAddr: 0xD668, symBinAddr: 0x1000A3C48, symSize: 0x350 }
  - { offsetInCU: 0x7F9E, offset: 0x4E9BA, size: 0x8, addend: 0x0, symName: __ZNSt3__135__uninitialized_allocator_copy_implB8ue170006INS_9allocatorINS_7variantIJ10PointLightEEEEES4_S4_S4_LPv0EEEPT2_RT_PT0_SC_S8_, symObjAddr: 0xD9B8, symBinAddr: 0x1000A3F98, symSize: 0x38 }
  - { offsetInCU: 0x8020, offset: 0x4EA3C, size: 0x8, addend: 0x0, symName: __ZNSt3__113__unwrap_iterB8ue170006IPNS_7variantIJ10PointLightEEENS_18__unwrap_iter_implIS4_Lb1EEELi0EEEDTclsrT0_8__unwrapclsr3stdE7declvalIT_EEEES8_, symObjAddr: 0xD9F0, symBinAddr: 0x1000A3FD0, symSize: 0x24 }
  - { offsetInCU: 0x8065, offset: 0x4EA81, size: 0x8, addend: 0x0, symName: __ZNSt3__113__rewrap_iterB8ue170006IPNS_7variantIJ10PointLightEEES4_NS_18__unwrap_iter_implIS4_Lb1EEEEET_S7_T0_, symObjAddr: 0xDA14, symBinAddr: 0x1000A3FF4, symSize: 0x48 }
  - { offsetInCU: 0x80BA, offset: 0x4EAD6, size: 0x8, addend: 0x0, symName: __ZNSt3__19make_pairB8ue170006IPNS_7variantIJ10PointLightEEES4_EENS_4pairINS_18__unwrap_ref_decayIT_E4typeENS6_IT0_E4typeEEEOS7_OSA_, symObjAddr: 0xDA5C, symBinAddr: 0x1000A403C, symSize: 0x20C }
  - { offsetInCU: 0x820E, offset: 0x4EC2A, size: 0x8, addend: 0x0, symName: __ZNSt3__14copyB8ue170006IPNS_7variantIJ10PointLightEEES4_EET0_T_S6_S5_, symObjAddr: 0xDDDC, symBinAddr: 0x1000A43BC, symSize: 0x26C }
  - { offsetInCU: 0x826B, offset: 0x4EC87, size: 0x8, addend: 0x0, symName: __ZNSt3__16__copyB8ue170006INS_17_ClassicAlgPolicyEPNS_7variantIJ10PointLightEEES5_S5_EENS_4pairIT0_T2_EES7_T1_S8_, symObjAddr: 0xE048, symBinAddr: 0x1000A4628, symSize: 0x22C }
  - { offsetInCU: 0x82DA, offset: 0x4ECF6, size: 0x8, addend: 0x0, symName: __ZNSt3__123__dispatch_copy_or_moveB8ue170006INS_17_ClassicAlgPolicyENS_11__copy_loopIS1_EENS_14__copy_trivialEPNS_7variantIJ10PointLightEEES8_S8_EENS_4pairIT2_T4_EESA_T3_SB_, symObjAddr: 0xE274, symBinAddr: 0x1000A4854, symSize: 0x22C }
  - { offsetInCU: 0x835B, offset: 0x4ED77, size: 0x8, addend: 0x0, symName: __ZNSt3__121__unwrap_and_dispatchB8ue170006INS_10__overloadINS_11__copy_loopINS_17_ClassicAlgPolicyEEENS_14__copy_trivialEEEPNS_7variantIJ10PointLightEEESA_SA_Li0EEENS_4pairIT0_T2_EESC_T1_SD_, symObjAddr: 0xE4A0, symBinAddr: 0x1000A4A80, symSize: 0x5A4 }
  - { offsetInCU: 0x8479, offset: 0x4EE95, size: 0x8, addend: 0x0, symName: __ZNSt3__114__rewrap_rangeB8ue170006IPNS_7variantIJ10PointLightEEES4_EET_S5_T0_, symObjAddr: 0xEC74, symBinAddr: 0x1000A5254, symSize: 0x2C }
  - { offsetInCU: 0x84C5, offset: 0x4EEE1, size: 0x8, addend: 0x0, symName: __ZNSt3__119__copy_trivial_implB8ue170006INS_7variantIJ10PointLightEEES3_EENS_4pairIPT_PT0_EES6_S6_S8_, symObjAddr: 0xECA0, symBinAddr: 0x1000A5280, symSize: 0x3B4 }
  - { offsetInCU: 0x8534, offset: 0x4EF50, size: 0x8, addend: 0x0, symName: __ZNSt3__119__constexpr_memmoveB8ue170006INS_7variantIJ10PointLightEEES3_Li0EEEPT_S5_PT0_NS_15__element_countE, symObjAddr: 0xF054, symBinAddr: 0x1000A5634, symSize: 0x64 }
  - { offsetInCU: 0x85A3, offset: 0x4EFBF, size: 0x8, addend: 0x0, symName: __ZNSt3__19make_pairB8ue170006IRPNS_7variantIJ10PointLightEEES4_EENS_4pairINS_18__unwrap_ref_decayIT_E4typeENS7_IT0_E4typeEEEOS8_OSB_, symObjAddr: 0xF0B8, symBinAddr: 0x1000A5698, symSize: 0x20C }
  - { offsetInCU: 0x867A, offset: 0x4F096, size: 0x8, addend: 0x0, symName: __ZNSt3__111make_sharedB8ue170006INS_6vectorI11PBRMaterialNS_9allocatorIS2_EEEEJRKS5_EvEENS_10shared_ptrIT_EEDpOT0_, symObjAddr: 0x10500, symBinAddr: 0x1000A69D8, symSize: 0x1E8 }
  - { offsetInCU: 0x86C0, offset: 0x4F0DC, size: 0x8, addend: 0x0, symName: __ZNSt3__115allocate_sharedB8ue170006INS_6vectorI11PBRMaterialNS_9allocatorIS2_EEEENS3_IS5_EEJRKS5_EvEENS_10shared_ptrIT_EERKT0_DpOT1_, symObjAddr: 0x106E8, symBinAddr: 0x1000A6BC0, symSize: 0x300 }
  - { offsetInCU: 0x8A41, offset: 0x4F45D, size: 0x8, addend: 0x0, symName: __ZNSt3__122__make_exception_guardB8ue170006INS_6vectorI11PBRMaterialNS_9allocatorIS2_EEE16__destroy_vectorEEENS_28__exception_guard_exceptionsIT_EES8_, symObjAddr: 0x120B4, symBinAddr: 0x1000A858C, symSize: 0x278 }
  - { offsetInCU: 0x8A7A, offset: 0x4F496, size: 0x8, addend: 0x0, symName: __ZNSt3__119__allocate_at_leastB8ue170006INS_9allocatorI11PBRMaterialEEEENS_19__allocation_resultINS_16allocator_traitsIT_E7pointerEEERS6_m, symObjAddr: 0x133E8, symBinAddr: 0x1000A98C0, symSize: 0x28C }
  - { offsetInCU: 0x8ABF, offset: 0x4F4DB, size: 0x8, addend: 0x0, symName: __ZNSt3__112__to_addressB8ue170006I11PBRMaterialEEPT_S3_, symObjAddr: 0x13A24, symBinAddr: 0x1000A9EFC, symSize: 0x14 }
  - { offsetInCU: 0x8AF4, offset: 0x4F510, size: 0x8, addend: 0x0, symName: __ZNSt3__130__uninitialized_allocator_copyB8ue170006INS_9allocatorI11PBRMaterialEEPS2_S4_S4_EET2_RT_T0_T1_S5_, symObjAddr: 0x13AD4, symBinAddr: 0x1000A9FAC, symSize: 0x2DC }
  - { offsetInCU: 0x8B9A, offset: 0x4F5B6, size: 0x8, addend: 0x0, symName: __ZNSt3__114__unwrap_rangeB8ue170006IP11PBRMaterialS2_EENS_4pairIT0_S4_EET_S6_, symObjAddr: 0x140AC, symBinAddr: 0x1000AA584, symSize: 0x350 }
  - { offsetInCU: 0x8BE8, offset: 0x4F604, size: 0x8, addend: 0x0, symName: __ZNSt3__135__uninitialized_allocator_copy_implB8ue170006INS_9allocatorI11PBRMaterialEES2_S2_S2_LPv0EEEPT2_RT_PT0_SA_S6_, symObjAddr: 0x143FC, symBinAddr: 0x1000AA8D4, symSize: 0x38 }
  - { offsetInCU: 0x8C6A, offset: 0x4F686, size: 0x8, addend: 0x0, symName: __ZNSt3__113__unwrap_iterB8ue170006IP11PBRMaterialNS_18__unwrap_iter_implIS2_Lb1EEELi0EEEDTclsrT0_8__unwrapclsr3stdE7declvalIT_EEEES6_, symObjAddr: 0x14434, symBinAddr: 0x1000AA90C, symSize: 0x24 }
  - { offsetInCU: 0x8CAF, offset: 0x4F6CB, size: 0x8, addend: 0x0, symName: __ZNSt3__113__rewrap_iterB8ue170006IP11PBRMaterialS2_NS_18__unwrap_iter_implIS2_Lb1EEEEET_S5_T0_, symObjAddr: 0x14458, symBinAddr: 0x1000AA930, symSize: 0x48 }
  - { offsetInCU: 0x8D04, offset: 0x4F720, size: 0x8, addend: 0x0, symName: __ZNSt3__19make_pairB8ue170006IP11PBRMaterialS2_EENS_4pairINS_18__unwrap_ref_decayIT_E4typeENS4_IT0_E4typeEEEOS5_OS8_, symObjAddr: 0x144A0, symBinAddr: 0x1000AA978, symSize: 0x20C }
  - { offsetInCU: 0x8E58, offset: 0x4F874, size: 0x8, addend: 0x0, symName: __ZNSt3__14copyB8ue170006IP11PBRMaterialS2_EET0_T_S4_S3_, symObjAddr: 0x14820, symBinAddr: 0x1000AACF8, symSize: 0x26C }
  - { offsetInCU: 0x8EB5, offset: 0x4F8D1, size: 0x8, addend: 0x0, symName: __ZNSt3__16__copyB8ue170006INS_17_ClassicAlgPolicyEP11PBRMaterialS3_S3_EENS_4pairIT0_T2_EES5_T1_S6_, symObjAddr: 0x14A8C, symBinAddr: 0x1000AAF64, symSize: 0x22C }
  - { offsetInCU: 0x8F24, offset: 0x4F940, size: 0x8, addend: 0x0, symName: __ZNSt3__123__dispatch_copy_or_moveB8ue170006INS_17_ClassicAlgPolicyENS_11__copy_loopIS1_EENS_14__copy_trivialEP11PBRMaterialS6_S6_EENS_4pairIT2_T4_EES8_T3_S9_, symObjAddr: 0x14CB8, symBinAddr: 0x1000AB190, symSize: 0x22C }
  - { offsetInCU: 0x8FA5, offset: 0x4F9C1, size: 0x8, addend: 0x0, symName: __ZNSt3__121__unwrap_and_dispatchB8ue170006INS_10__overloadINS_11__copy_loopINS_17_ClassicAlgPolicyEEENS_14__copy_trivialEEEP11PBRMaterialS8_S8_Li0EEENS_4pairIT0_T2_EESA_T1_SB_, symObjAddr: 0x14EE4, symBinAddr: 0x1000AB3BC, symSize: 0x5A4 }
  - { offsetInCU: 0x903F, offset: 0x4FA5B, size: 0x8, addend: 0x0, symName: __ZNSt3__114__rewrap_rangeB8ue170006IP11PBRMaterialS2_EET_S3_T0_, symObjAddr: 0x156B8, symBinAddr: 0x1000ABB90, symSize: 0x2C }
  - { offsetInCU: 0x908B, offset: 0x4FAA7, size: 0x8, addend: 0x0, symName: __ZNSt3__119__copy_trivial_implB8ue170006I11PBRMaterialS1_EENS_4pairIPT_PT0_EES4_S4_S6_, symObjAddr: 0x156E4, symBinAddr: 0x1000ABBBC, symSize: 0x3BC }
  - { offsetInCU: 0x90FA, offset: 0x4FB16, size: 0x8, addend: 0x0, symName: __ZNSt3__119__constexpr_memmoveB8ue170006I11PBRMaterialS1_Li0EEEPT_S3_PT0_NS_15__element_countE, symObjAddr: 0x15AA0, symBinAddr: 0x1000ABF78, symSize: 0x68 }
  - { offsetInCU: 0x9169, offset: 0x4FB85, size: 0x8, addend: 0x0, symName: __ZNSt3__19make_pairB8ue170006IRP11PBRMaterialS2_EENS_4pairINS_18__unwrap_ref_decayIT_E4typeENS5_IT0_E4typeEEEOS6_OS9_, symObjAddr: 0x15B08, symBinAddr: 0x1000ABFE0, symSize: 0x20C }
  - { offsetInCU: 0x9240, offset: 0x4FC5C, size: 0x8, addend: 0x0, symName: __ZNSt3__16get_ifB8ue170006ILm0EJ10PointLightEEEu13__add_pointerINS_19variant_alternativeIXT_ENS_7variantIJDpT0_EEEE4typeEEPS6_, symObjAddr: 0x16E8C, symBinAddr: 0x1000AD364, symSize: 0x24 }
  - { offsetInCU: 0x9285, offset: 0x4FCA1, size: 0x8, addend: 0x0, symName: __ZNSt3__116__generic_get_ifB8ue170006ILm0ENS_7variantIJ10PointLightEEEEEPDaPT0_, symObjAddr: 0x16EB0, symBinAddr: 0x1000AD388, symSize: 0x7C }
  - { offsetInCU: 0x92CE, offset: 0x4FCEA, size: 0x8, addend: 0x0, symName: __ZNSt3__119__holds_alternativeB8ue170006ILm0EJ10PointLightEEEbRKNS_7variantIJDpT0_EEE, symObjAddr: 0x16F2C, symBinAddr: 0x1000AD404, symSize: 0x30 }
  - { offsetInCU: 0x9313, offset: 0x4FD2F, size: 0x8, addend: 0x0, symName: __ZNSt3__14swapB8ue170006IP17PerspectiveCameraEENS_9enable_ifIXaasr21is_move_constructibleIT_EE5valuesr18is_move_assignableIS4_EE5valueEvE4typeERS4_S7_, symObjAddr: 0x18170, symBinAddr: 0x1000AE26C, symSize: 0x134 }
  - { offsetInCU: 0x9364, offset: 0x4FD80, size: 0x8, addend: 0x0, symName: __ZNSt3__14swapB8ue170006IPNS_19__shared_weak_countEEENS_9enable_ifIXaasr21is_move_constructibleIT_EE5valuesr18is_move_assignableIS4_EE5valueEvE4typeERS4_S7_, symObjAddr: 0x182A4, symBinAddr: 0x1000AE3A0, symSize: 0x134 }
  - { offsetInCU: 0x93B5, offset: 0x4FDD1, size: 0x8, addend: 0x0, symName: __ZNSt3__14swapB8ue170006IP5ImageEENS_9enable_ifIXaasr21is_move_constructibleIT_EE5valuesr18is_move_assignableIS4_EE5valueEvE4typeERS4_S7_, symObjAddr: 0x184E4, symBinAddr: 0x1000AE5E0, symSize: 0x134 }
  - { offsetInCU: 0x9406, offset: 0x4FE22, size: 0x8, addend: 0x0, symName: __ZNSt3__115allocate_sharedB8ue170006I5ImageNS_9allocatorIS1_EEJRjS4_11ImageFormatEvEENS_10shared_ptrIT_EERKT0_DpOT1_, symObjAddr: 0x18678, symBinAddr: 0x1000AE774, symSize: 0x310 }
  - { offsetInCU: 0x97E6, offset: 0x50202, size: 0x8, addend: 0x0, symName: __ZNSt3__14swapB8ue170006IP5SceneEENS_9enable_ifIXaasr21is_move_constructibleIT_EE5valuesr18is_move_assignableIS4_EE5valueEvE4typeERS4_S7_, symObjAddr: 0x19FE4, symBinAddr: 0x1000B00E0, symSize: 0x134 }
  - { offsetInCU: 0x9DA6, offset: 0x507C2, size: 0x8, addend: 0x0, symName: __ZN3glm5clampILi4EfLNS_9qualifierE0EEENS_3vecIXT_ET0_XT1_EEERKS4_S6_S6_, symObjAddr: 0x40F8, symBinAddr: 0x10009CCE8, symSize: 0x44C }
  - { offsetInCU: 0x9E12, offset: 0x5082E, size: 0x8, addend: 0x0, symName: __ZN3glm3maxIfEET_S1_S1_, symObjAddr: 0x5794, symBinAddr: 0x10009DA0C, symSize: 0x48 }
  - { offsetInCU: 0x9E55, offset: 0x50871, size: 0x8, addend: 0x0, symName: __ZN3glmngIfLNS_9qualifierE0EEENS_3vecILi3ET_XT0_EEERKS4_, symObjAddr: 0x5808, symBinAddr: 0x10009DA54, symSize: 0x3E0 }
  - { offsetInCU: 0x9FD3, offset: 0x509EF, size: 0x8, addend: 0x0, symName: __ZN3glm3minILi4EfLNS_9qualifierE0EEENS_3vecIXT_ET0_XT1_EEERKS4_S6_, symObjAddr: 0x74F0, symBinAddr: 0x10009E9E0, symSize: 0x444 }
  - { offsetInCU: 0xA02D, offset: 0x50A49, size: 0x8, addend: 0x0, symName: __ZN3glm3maxILi4EfLNS_9qualifierE0EEENS_3vecIXT_ET0_XT1_EEERKS4_S6_, symObjAddr: 0x7934, symBinAddr: 0x10009EE24, symSize: 0x444 }
  - { offsetInCU: 0xA087, offset: 0x50AA3, size: 0x8, addend: 0x0, symName: __ZN3glm3minIfEET_S1_S1_, symObjAddr: 0x881C, symBinAddr: 0x10009FD0C, symSize: 0x48 }
  - { offsetInCU: 0xA6F5, offset: 0x51111, size: 0x8, addend: 0x0, symName: _.str, symObjAddr: 0x1B560, symBinAddr: 0x1004F2000, symSize: 0x0 }
  - { offsetInCU: 0xA712, offset: 0x5112E, size: 0x8, addend: 0x0, symName: _.str.1, symObjAddr: 0x1B580, symBinAddr: 0x1004F2020, symSize: 0x0 }
  - { offsetInCU: 0xA72F, offset: 0x5114B, size: 0x8, addend: 0x0, symName: _.str.2, symObjAddr: 0x1B5A0, symBinAddr: 0x1004F2040, symSize: 0x0 }
  - { offsetInCU: 0xA74C, offset: 0x51168, size: 0x8, addend: 0x0, symName: _.str.3, symObjAddr: 0x1B5C0, symBinAddr: 0x1004F2060, symSize: 0x0 }
  - { offsetInCU: 0xA75D, offset: 0x51179, size: 0x8, addend: 0x0, symName: _.str.4, symObjAddr: 0x1B5E0, symBinAddr: 0x1004F2080, symSize: 0x0 }
  - { offsetInCU: 0xA77B, offset: 0x51197, size: 0x8, addend: 0x0, symName: _.str.5, symObjAddr: 0x1B620, symBinAddr: 0x1004F20C0, symSize: 0x0 }
  - { offsetInCU: 0xC713, offset: 0x5312F, size: 0x8, addend: 0x0, symName: __ZNSt3__110shared_ptrI5SceneED1B8ue170006Ev, symObjAddr: 0x0, symBinAddr: 0x100098C34, symSize: 0x2C }
  - { offsetInCU: 0xC73B, offset: 0x53157, size: 0x8, addend: 0x0, symName: __ZN8RendererC2EPNSt3__110shared_ptrI17PerspectiveCameraEE, symObjAddr: 0x2C, symBinAddr: 0x100098C60, symSize: 0x4B0 }
  - { offsetInCU: 0xC77B, offset: 0x53197, size: 0x8, addend: 0x0, symName: __ZNSt3__112basic_stringIcNS_11char_traitsIcEENS_9allocatorIcEEEC1B8ue170006ILi0EEEPKc, symObjAddr: 0x4DC, symBinAddr: 0x100099110, symSize: 0x34 }
  - { offsetInCU: 0xC7B9, offset: 0x531D5, size: 0x8, addend: 0x0, symName: __ZN5LayerC2ERKNSt3__112basic_stringIcNS0_11char_traitsIcEENS0_9allocatorIcEEEE, symObjAddr: 0x510, symBinAddr: 0x100099144, symSize: 0xEC }
  - { offsetInCU: 0xC7EF, offset: 0x5320B, size: 0x8, addend: 0x0, symName: __ZNSt3__110shared_ptrI5ImageEC1B8ue170006EDn, symObjAddr: 0x5FC, symBinAddr: 0x100099230, symSize: 0x34 }
  - { offsetInCU: 0xC823, offset: 0x5323F, size: 0x8, addend: 0x0, symName: __ZNSt3__110shared_ptrI17PerspectiveCameraEC1B8ue170006EDn, symObjAddr: 0x630, symBinAddr: 0x100099264, symSize: 0x34 }
  - { offsetInCU: 0xC857, offset: 0x53273, size: 0x8, addend: 0x0, symName: __ZNSt3__110shared_ptrI17PerspectiveCameraEaSB8ue170006ERKS2_, symObjAddr: 0x664, symBinAddr: 0x100099298, symSize: 0x1F4 }
  - { offsetInCU: 0xC88C, offset: 0x532A8, size: 0x8, addend: 0x0, symName: __ZN8RendererC1EPNSt3__110shared_ptrI17PerspectiveCameraEE, symObjAddr: 0x858, symBinAddr: 0x10009948C, symSize: 0x34 }
  - { offsetInCU: 0xC8C5, offset: 0x532E1, size: 0x8, addend: 0x0, symName: __ZN8Renderer8OnAttachEv, symObjAddr: 0x88C, symBinAddr: 0x1000994C0, symSize: 0x10 }
  - { offsetInCU: 0xC8EC, offset: 0x53308, size: 0x8, addend: 0x0, symName: __ZN8Renderer8OnDetachEv, symObjAddr: 0x89C, symBinAddr: 0x1000994D0, symSize: 0x84 }
  - { offsetInCU: 0xC912, offset: 0x5332E, size: 0x8, addend: 0x0, symName: __ZN8Renderer6UpdateEv, symObjAddr: 0x920, symBinAddr: 0x100099554, symSize: 0x124 }
  - { offsetInCU: 0xC938, offset: 0x53354, size: 0x8, addend: 0x0, symName: __ZNKSt3__110shared_ptrI17PerspectiveCameraEptB8ue170006Ev, symObjAddr: 0xA44, symBinAddr: 0x100099678, symSize: 0x60 }
  - { offsetInCU: 0xC95C, offset: 0x53378, size: 0x8, addend: 0x0, symName: __ZN8Renderer12PrepareImageEv, symObjAddr: 0xAA4, symBinAddr: 0x1000996D8, symSize: 0x1C8 }
  - { offsetInCU: 0xC982, offset: 0x5339E, size: 0x8, addend: 0x0, symName: __ZN8Renderer9PassImageEv, symObjAddr: 0xC6C, symBinAddr: 0x1000998A0, symSize: 0x3C8 }
  - { offsetInCU: 0xC9A9, offset: 0x533C5, size: 0x8, addend: 0x0, symName: __ZNKSt3__110shared_ptrI5ImageEptB8ue170006Ev, symObjAddr: 0x1034, symBinAddr: 0x100099C68, symSize: 0x60 }
  - { offsetInCU: 0xC9CD, offset: 0x533E9, size: 0x8, addend: 0x0, symName: __ZNK5Image8GetWidthEv, symObjAddr: 0x1094, symBinAddr: 0x100099CC8, symSize: 0x8C }
  - { offsetInCU: 0xC9F1, offset: 0x5340D, size: 0x8, addend: 0x0, symName: __ZNK5Image9GetHeightEv, symObjAddr: 0x1120, symBinAddr: 0x100099D54, symSize: 0x8C }
  - { offsetInCU: 0xCAA5, offset: 0x534C1, size: 0x8, addend: 0x0, symName: __ZN6ImVec2C1Eff, symObjAddr: 0x11AC, symBinAddr: 0x100099DE0, symSize: 0x3C }
  - { offsetInCU: 0xCB5F, offset: 0x5357B, size: 0x8, addend: 0x0, symName: __ZN6ImVec4C1Effff, symObjAddr: 0x11E8, symBinAddr: 0x100099E1C, symSize: 0x4C }
  - { offsetInCU: 0xCBC3, offset: 0x535DF, size: 0x8, addend: 0x0, symName: __ZN8Renderer15UpdateInterfaceEv, symObjAddr: 0x1234, symBinAddr: 0x100099E68, symSize: 0xA48 }
  - { offsetInCU: 0xCBEA, offset: 0x53606, size: 0x8, addend: 0x0, symName: __ZNSt3__110shared_ptrI5ImageE5resetB8ue170006Ev, symObjAddr: 0x1C7C, symBinAddr: 0x10009A8B0, symSize: 0x1E8 }
  - { offsetInCU: 0xCC0F, offset: 0x5362B, size: 0x8, addend: 0x0, symName: __ZNKSt3__110shared_ptrI5ImageEcvbB8ue170006Ev, symObjAddr: 0x1E64, symBinAddr: 0x10009AA98, symSize: 0x30 }
  - { offsetInCU: 0xCC33, offset: 0x5364F, size: 0x8, addend: 0x0, symName: __ZNSt3__110shared_ptrI5ImageEaSB8ue170006EOS2_, symObjAddr: 0x208C, symBinAddr: 0x10009ACC0, symSize: 0x1F4 }
  - { offsetInCU: 0xCC68, offset: 0x53684, size: 0x8, addend: 0x0, symName: __ZNSt3__110shared_ptrI5ImageED1B8ue170006Ev, symObjAddr: 0x2280, symBinAddr: 0x10009AEB4, symSize: 0x2C }
  - { offsetInCU: 0xCC90, offset: 0x536AC, size: 0x8, addend: 0x0, symName: __ZN8Renderer6RenderEv, symObjAddr: 0x22AC, symBinAddr: 0x10009AEE0, symSize: 0xAD0 }
  - { offsetInCU: 0xCD1D, offset: 0x53739, size: 0x8, addend: 0x0, symName: __ZNK17PerspectiveCamera16GetRayDirectionsEv, symObjAddr: 0x2DC0, symBinAddr: 0x10009B9B0, symSize: 0x18 }
  - { offsetInCU: 0xCD41, offset: 0x5375D, size: 0x8, addend: 0x0, symName: __ZNKSt3__16vectorIN3glm3vecILi3EfLNS1_9qualifierE0EEENS_9allocatorIS4_EEEixB8ue170006Em, symObjAddr: 0x2DD8, symBinAddr: 0x10009B9C8, symSize: 0x74 }
  - { offsetInCU: 0xCD76, offset: 0x53792, size: 0x8, addend: 0x0, symName: __ZN8Renderer14FragmentShaderEP3Ray, symObjAddr: 0x2E4C, symBinAddr: 0x10009BA3C, symSize: 0x12AC }
  - { offsetInCU: 0xCE81, offset: 0x5389D, size: 0x8, addend: 0x0, symName: __ZL15ConvertFromRGBARKN3glm3vecILi4EfLNS_9qualifierE0EEE, symObjAddr: 0x4578, symBinAddr: 0x10009D134, symSize: 0x234 }
  - { offsetInCU: 0xCF60, offset: 0x5397C, size: 0x8, addend: 0x0, symName: __ZN2WR4Core6Logger10PrintFloatEf, symObjAddr: 0x47AC, symBinAddr: 0x10009D368, symSize: 0x38 }
  - { offsetInCU: 0xCF83, offset: 0x5399F, size: 0x8, addend: 0x0, symName: __ZN5Image7SetDataEPj, symObjAddr: 0x47E4, symBinAddr: 0x10009D3A0, symSize: 0x78 }
  - { offsetInCU: 0xCFB5, offset: 0x539D1, size: 0x8, addend: 0x0, symName: __ZN8Renderer14SetActiveSceneENSt3__110shared_ptrI5SceneEE, symObjAddr: 0x485C, symBinAddr: 0x10009D418, symSize: 0x30 }
  - { offsetInCU: 0xCFDB, offset: 0x539F7, size: 0x8, addend: 0x0, symName: __ZNSt3__110shared_ptrI5SceneEaSB8ue170006ERKS2_, symObjAddr: 0x488C, symBinAddr: 0x10009D448, symSize: 0x1F4 }
  - { offsetInCU: 0xD010, offset: 0x53A2C, size: 0x8, addend: 0x0, symName: __ZNKSt3__110shared_ptrI5SceneEptB8ue170006Ev, symObjAddr: 0x4ACC, symBinAddr: 0x10009D63C, symSize: 0x60 }
  - { offsetInCU: 0xD034, offset: 0x53A50, size: 0x8, addend: 0x0, symName: __ZNK5Scene9GetLightsEv, symObjAddr: 0x4B2C, symBinAddr: 0x10009D69C, symSize: 0x30 }
  - { offsetInCU: 0xD058, offset: 0x53A74, size: 0x8, addend: 0x0, symName: __ZNK5Scene15GetPBRMaterialsEv, symObjAddr: 0x4B5C, symBinAddr: 0x10009D6CC, symSize: 0x30 }
  - { offsetInCU: 0xD07C, offset: 0x53A98, size: 0x8, addend: 0x0, symName: __ZNKSt3__110shared_ptrINS_6vectorI11PBRMaterialNS_9allocatorIS2_EEEEEptB8ue170006Ev, symObjAddr: 0x4B8C, symBinAddr: 0x10009D6FC, symSize: 0x60 }
  - { offsetInCU: 0xD0A0, offset: 0x53ABC, size: 0x8, addend: 0x0, symName: __ZNSt3__16vectorI11PBRMaterialNS_9allocatorIS1_EEE2atEm, symObjAddr: 0x4BEC, symBinAddr: 0x10009D75C, symSize: 0xAC }
  - { offsetInCU: 0xD0D5, offset: 0x53AF1, size: 0x8, addend: 0x0, symName: __ZNSt3__110shared_ptrINS_6vectorI11PBRMaterialNS_9allocatorIS2_EEEEED1B8ue170006Ev, symObjAddr: 0x4C98, symBinAddr: 0x10009D808, symSize: 0x2C }
  - { offsetInCU: 0xD0FD, offset: 0x53B19, size: 0x8, addend: 0x0, symName: __ZNKSt3__110shared_ptrINS_6vectorINS_7variantIJ10PointLightEEENS_9allocatorIS4_EEEEEptB8ue170006Ev, symObjAddr: 0x4CC4, symBinAddr: 0x10009D834, symSize: 0x60 }
  - { offsetInCU: 0xD121, offset: 0x53B3D, size: 0x8, addend: 0x0, symName: __ZNKSt3__16vectorINS_7variantIJ10PointLightEEENS_9allocatorIS3_EEE4sizeB8ue170006Ev, symObjAddr: 0x4D24, symBinAddr: 0x10009D894, symSize: 0xB0 }
  - { offsetInCU: 0xD145, offset: 0x53B61, size: 0x8, addend: 0x0, symName: __ZNSt3__16vectorINS_7variantIJ10PointLightEEENS_9allocatorIS3_EEE2atEm, symObjAddr: 0x4DF8, symBinAddr: 0x10009D968, symSize: 0xA4 }
  - { offsetInCU: 0xD17A, offset: 0x53B96, size: 0x8, addend: 0x0, symName: __ZN3glm3vecILi4EfLNS_9qualifierE0EEC1IffLS1_0EEERKNS0_ILi3ET_XT1_EEET0_, symObjAddr: 0x67C8, symBinAddr: 0x10009DE34, symSize: 0x3C }
  - { offsetInCU: 0xD1DE, offset: 0x53BFA, size: 0x8, addend: 0x0, symName: __ZNSt3__110shared_ptrINS_6vectorINS_7variantIJ10PointLightEEENS_9allocatorIS4_EEEEED1B8ue170006Ev, symObjAddr: 0x6804, symBinAddr: 0x10009DE70, symSize: 0x2C }
  - { offsetInCU: 0xD206, offset: 0x53C22, size: 0x8, addend: 0x0, symName: __ZN8RendererD1Ev, symObjAddr: 0x6830, symBinAddr: 0x10009DE9C, symSize: 0x2C }
  - { offsetInCU: 0xD22E, offset: 0x53C4A, size: 0x8, addend: 0x0, symName: __ZN8RendererD0Ev, symObjAddr: 0x685C, symBinAddr: 0x10009DEC8, symSize: 0x30 }
  - { offsetInCU: 0xD256, offset: 0x53C72, size: 0x8, addend: 0x0, symName: __ZN5Layer5BeginEv, symObjAddr: 0x688C, symBinAddr: 0x10009DEF8, symSize: 0x10 }
  - { offsetInCU: 0xD27A, offset: 0x53C96, size: 0x8, addend: 0x0, symName: __ZN5Layer3EndEv, symObjAddr: 0x689C, symBinAddr: 0x10009DF08, symSize: 0x10 }
  - { offsetInCU: 0xD29E, offset: 0x53CBA, size: 0x8, addend: 0x0, symName: __ZN5LayerD1Ev, symObjAddr: 0x68AC, symBinAddr: 0x10009DF18, symSize: 0x20 }
  - { offsetInCU: 0xD2C6, offset: 0x53CE2, size: 0x8, addend: 0x0, symName: __ZN5LayerD0Ev, symObjAddr: 0x68CC, symBinAddr: 0x10009DF38, symSize: 0x18 }
  - { offsetInCU: 0xD2EE, offset: 0x53D0A, size: 0x8, addend: 0x0, symName: __ZN5Layer6UpdateEv, symObjAddr: 0x68E4, symBinAddr: 0x10009DF50, symSize: 0x10 }
  - { offsetInCU: 0xD312, offset: 0x53D2E, size: 0x8, addend: 0x0, symName: __ZN5Layer15UpdateInterfaceEv, symObjAddr: 0x68F4, symBinAddr: 0x10009DF60, symSize: 0x10 }
  - { offsetInCU: 0xD336, offset: 0x53D52, size: 0x8, addend: 0x0, symName: __ZNSt3__110shared_ptrI5ImageEC2B8ue170006EDn, symObjAddr: 0x6904, symBinAddr: 0x10009DF70, symSize: 0xA0 }
  - { offsetInCU: 0xD36A, offset: 0x53D86, size: 0x8, addend: 0x0, symName: __ZNSt3__110shared_ptrI17PerspectiveCameraEC2B8ue170006EDn, symObjAddr: 0x69A4, symBinAddr: 0x10009E010, symSize: 0xA0 }
  - { offsetInCU: 0xD39E, offset: 0x53DBA, size: 0x8, addend: 0x0, symName: __ZN6ImVec2C2Eff, symObjAddr: 0x6A44, symBinAddr: 0x10009E0B0, symSize: 0x10C }
  - { offsetInCU: 0xD3E4, offset: 0x53E00, size: 0x8, addend: 0x0, symName: __ZN6ImVec4C2Effff, symObjAddr: 0x6B50, symBinAddr: 0x10009E1BC, symSize: 0x1EC }
  - { offsetInCU: 0xD448, offset: 0x53E64, size: 0x8, addend: 0x0, symName: __ZN3glm6detail20compute_clamp_vectorILi4EfLNS_9qualifierE0ELb0EE4callERKNS_3vecILi4EfLS2_0EEES7_S7_, symObjAddr: 0x6EB8, symBinAddr: 0x10009E3A8, symSize: 0x638 }
  - { offsetInCU: 0xD48A, offset: 0x53EA6, size: 0x8, addend: 0x0, symName: __ZN3glm6detail18compute_min_vectorILi4EfLNS_9qualifierE0ELb0EE4callERKNS_3vecILi4EfLS2_0EEES7_, symObjAddr: 0x7D78, symBinAddr: 0x10009F268, symSize: 0x44C }
  - { offsetInCU: 0xD4D2, offset: 0x53EEE, size: 0x8, addend: 0x0, symName: __ZN3glm6detail8functor2INS_3vecELi4EfLNS_9qualifierE0EE4callEPFfffERKNS2_ILi4EfLS3_0EEES9_, symObjAddr: 0x81C4, symBinAddr: 0x10009F6B4, symSize: 0x658 }
  - { offsetInCU: 0xD514, offset: 0x53F30, size: 0x8, addend: 0x0, symName: __ZN3glm6detail18compute_max_vectorILi4EfLNS_9qualifierE0ELb0EE4callERKNS_3vecILi4EfLS2_0EEES7_, symObjAddr: 0x8864, symBinAddr: 0x10009FD54, symSize: 0x44C }
  - { offsetInCU: 0xD547, offset: 0x53F63, size: 0x8, addend: 0x0, symName: __ZNSt3__19allocatorINS_6vectorINS_7variantIJ10PointLightEEENS0_IS4_EEEEEC1B8ue170006Ev, symObjAddr: 0x99F0, symBinAddr: 0x1000A0688, symSize: 0x2C }
  - { offsetInCU: 0xD5BA, offset: 0x53FD6, size: 0x8, addend: 0x0, symName: __ZNSt3__118__allocation_guardINS_9allocatorINS_20__shared_ptr_emplaceINS_6vectorINS_7variantIJ10PointLightEEENS1_IS6_EEEENS1_IS8_EEEEEEEC1B8ue170006IS9_EET_m, symObjAddr: 0x9A1C, symBinAddr: 0x1000A06B4, symSize: 0x34 }
  - { offsetInCU: 0xD607, offset: 0x54023, size: 0x8, addend: 0x0, symName: __ZNKSt3__118__allocation_guardINS_9allocatorINS_20__shared_ptr_emplaceINS_6vectorINS_7variantIJ10PointLightEEENS1_IS6_EEEENS1_IS8_EEEEEEE5__getB8ue170006Ev, symObjAddr: 0x9A50, symBinAddr: 0x1000A06E8, symSize: 0x64 }
  - { offsetInCU: 0xD62B, offset: 0x54047, size: 0x8, addend: 0x0, symName: __ZNSt3__120__shared_ptr_emplaceINS_6vectorINS_7variantIJ10PointLightEEENS_9allocatorIS4_EEEENS5_IS7_EEEC1B8ue170006IJRKS7_EEES8_DpOT_, symObjAddr: 0x9AB4, symBinAddr: 0x1000A074C, symSize: 0x34 }
  - { offsetInCU: 0xD67E, offset: 0x5409A, size: 0x8, addend: 0x0, symName: __ZNSt3__118__allocation_guardINS_9allocatorINS_20__shared_ptr_emplaceINS_6vectorINS_7variantIJ10PointLightEEENS1_IS6_EEEENS1_IS8_EEEEEEE13__release_ptrB8ue170006Ev, symObjAddr: 0x9AE8, symBinAddr: 0x1000A0780, symSize: 0xA8 }
  - { offsetInCU: 0xD6B0, offset: 0x540CC, size: 0x8, addend: 0x0, symName: __ZNSt3__110shared_ptrINS_6vectorINS_7variantIJ10PointLightEEENS_9allocatorIS4_EEEEE27__create_with_control_blockB8ue170006IS7_NS_20__shared_ptr_emplaceIS7_NS5_IS7_EEEEEES8_PT_PT0_, symObjAddr: 0x9B90, symBinAddr: 0x1000A0828, symSize: 0x188 }
  - { offsetInCU: 0xD705, offset: 0x54121, size: 0x8, addend: 0x0, symName: __ZNSt3__120__shared_ptr_emplaceINS_6vectorINS_7variantIJ10PointLightEEENS_9allocatorIS4_EEEENS5_IS7_EEE10__get_elemB8ue170006Ev, symObjAddr: 0x9D18, symBinAddr: 0x1000A09B0, symSize: 0x28 }
  - { offsetInCU: 0xD729, offset: 0x54145, size: 0x8, addend: 0x0, symName: __ZNSt3__118__allocation_guardINS_9allocatorINS_20__shared_ptr_emplaceINS_6vectorINS_7variantIJ10PointLightEEENS1_IS6_EEEENS1_IS8_EEEEEEED1B8ue170006Ev, symObjAddr: 0x9D40, symBinAddr: 0x1000A09D8, symSize: 0x2C }
  - { offsetInCU: 0xD751, offset: 0x5416D, size: 0x8, addend: 0x0, symName: __ZNSt3__118__allocation_guardINS_9allocatorINS_20__shared_ptr_emplaceINS_6vectorINS_7variantIJ10PointLightEEENS1_IS6_EEEENS1_IS8_EEEEEEEC2B8ue170006IS9_EET_m, symObjAddr: 0x9D6C, symBinAddr: 0x1000A0A04, symSize: 0x28C }
  - { offsetInCU: 0xD7A4, offset: 0x541C0, size: 0x8, addend: 0x0, symName: __ZNSt3__19allocatorINS_20__shared_ptr_emplaceINS_6vectorINS_7variantIJ10PointLightEEENS0_IS5_EEEENS0_IS7_EEEEEC1B8ue170006IS7_EERKNS0_IT_EE, symObjAddr: 0x9FF8, symBinAddr: 0x1000A0C90, symSize: 0x34 }
  - { offsetInCU: 0xD7E0, offset: 0x541FC, size: 0x8, addend: 0x0, symName: __ZNSt3__116allocator_traitsINS_9allocatorINS_20__shared_ptr_emplaceINS_6vectorINS_7variantIJ10PointLightEEENS1_IS6_EEEENS1_IS8_EEEEEEE8allocateB8ue170006ERSB_m, symObjAddr: 0xA02C, symBinAddr: 0x1000A0CC4, symSize: 0x2C }
  - { offsetInCU: 0xD813, offset: 0x5422F, size: 0x8, addend: 0x0, symName: __ZNSt3__19allocatorINS_20__shared_ptr_emplaceINS_6vectorINS_7variantIJ10PointLightEEENS0_IS5_EEEENS0_IS7_EEEEEC2B8ue170006IS7_EERKNS0_IT_EE, symObjAddr: 0xA058, symBinAddr: 0x1000A0CF0, symSize: 0x30 }
  - { offsetInCU: 0xD84F, offset: 0x5426B, size: 0x8, addend: 0x0, symName: __ZNSt3__116__non_trivial_ifILb1ENS_9allocatorINS_20__shared_ptr_emplaceINS_6vectorINS_7variantIJ10PointLightEEENS1_IS6_EEEENS1_IS8_EEEEEEEC2B8ue170006Ev, symObjAddr: 0xA088, symBinAddr: 0x1000A0D20, symSize: 0x14 }
  - { offsetInCU: 0xD878, offset: 0x54294, size: 0x8, addend: 0x0, symName: __ZNSt3__19allocatorINS_20__shared_ptr_emplaceINS_6vectorINS_7variantIJ10PointLightEEENS0_IS5_EEEENS0_IS7_EEEEE8allocateB8ue170006Em, symObjAddr: 0xA09C, symBinAddr: 0x1000A0D34, symSize: 0x60 }
  - { offsetInCU: 0xD8B4, offset: 0x542D0, size: 0x8, addend: 0x0, symName: __ZNSt3__116allocator_traitsINS_9allocatorINS_20__shared_ptr_emplaceINS_6vectorINS_7variantIJ10PointLightEEENS1_IS6_EEEENS1_IS8_EEEEEEE8max_sizeB8ue170006ISB_vEEmRKSB_, symObjAddr: 0xA0FC, symBinAddr: 0x1000A0D94, symSize: 0x24 }
  - { offsetInCU: 0xD8E2, offset: 0x542FE, size: 0x8, addend: 0x0, symName: __ZNKSt3__19allocatorINS_20__shared_ptr_emplaceINS_6vectorINS_7variantIJ10PointLightEEENS0_IS5_EEEENS0_IS7_EEEEE8max_sizeB8ue170006Ev, symObjAddr: 0xA1B8, symBinAddr: 0x1000A0DB8, symSize: 0x18 }
  - { offsetInCU: 0xD906, offset: 0x54322, size: 0x8, addend: 0x0, symName: __ZNSt3__120__shared_ptr_emplaceINS_6vectorINS_7variantIJ10PointLightEEENS_9allocatorIS4_EEEENS5_IS7_EEEC2B8ue170006IJRKS7_EEES8_DpOT_, symObjAddr: 0xA240, symBinAddr: 0x1000A0DD0, symSize: 0x2E4 }
  - { offsetInCU: 0xD95F, offset: 0x5437B, size: 0x8, addend: 0x0, symName: __ZNSt3__120__shared_ptr_emplaceINS_6vectorINS_7variantIJ10PointLightEEENS_9allocatorIS4_EEEENS5_IS7_EEE8_StorageC1B8ue170006EOS8_, symObjAddr: 0xA5F4, symBinAddr: 0x1000A10B4, symSize: 0x34 }
  - { offsetInCU: 0xD996, offset: 0x543B2, size: 0x8, addend: 0x0, symName: __ZNSt3__16vectorINS_7variantIJ10PointLightEEENS_9allocatorIS3_EEEC1ERKS6_, symObjAddr: 0xA628, symBinAddr: 0x1000A10E8, symSize: 0x34 }
  - { offsetInCU: 0xD9D0, offset: 0x543EC, size: 0x8, addend: 0x0, symName: __ZNSt3__120__shared_ptr_emplaceINS_6vectorINS_7variantIJ10PointLightEEENS_9allocatorIS4_EEEENS5_IS7_EEE8_StorageD1B8ue170006Ev, symObjAddr: 0xA65C, symBinAddr: 0x1000A111C, symSize: 0x2C }
  - { offsetInCU: 0xD9F8, offset: 0x54414, size: 0x8, addend: 0x0, symName: __ZNSt3__120__shared_ptr_emplaceINS_6vectorINS_7variantIJ10PointLightEEENS_9allocatorIS4_EEEENS5_IS7_EEED1Ev, symObjAddr: 0xA688, symBinAddr: 0x1000A1148, symSize: 0x2C }
  - { offsetInCU: 0xDA24, offset: 0x54440, size: 0x8, addend: 0x0, symName: __ZNSt3__120__shared_ptr_emplaceINS_6vectorINS_7variantIJ10PointLightEEENS_9allocatorIS4_EEEENS5_IS7_EEED0Ev, symObjAddr: 0xA6B4, symBinAddr: 0x1000A1174, symSize: 0x30 }
  - { offsetInCU: 0xDA50, offset: 0x5446C, size: 0x8, addend: 0x0, symName: __ZNSt3__120__shared_ptr_emplaceINS_6vectorINS_7variantIJ10PointLightEEENS_9allocatorIS4_EEEENS5_IS7_EEE16__on_zero_sharedEv, symObjAddr: 0xA6E4, symBinAddr: 0x1000A11A4, symSize: 0x28 }
  - { offsetInCU: 0xDA74, offset: 0x54490, size: 0x8, addend: 0x0, symName: __ZNSt3__120__shared_ptr_emplaceINS_6vectorINS_7variantIJ10PointLightEEENS_9allocatorIS4_EEEENS5_IS7_EEE21__on_zero_shared_weakEv, symObjAddr: 0xA70C, symBinAddr: 0x1000A11CC, symSize: 0x208 }
  - { offsetInCU: 0xDAB8, offset: 0x544D4, size: 0x8, addend: 0x0, symName: __ZNSt3__120__shared_ptr_emplaceINS_6vectorINS_7variantIJ10PointLightEEENS_9allocatorIS4_EEEENS5_IS7_EEE8_StorageC2B8ue170006EOS8_, symObjAddr: 0xA9D4, symBinAddr: 0x1000A13D4, symSize: 0x30 }
  - { offsetInCU: 0xDAEF, offset: 0x5450B, size: 0x8, addend: 0x0, symName: __ZNSt3__120__shared_ptr_emplaceINS_6vectorINS_7variantIJ10PointLightEEENS_9allocatorIS4_EEEENS5_IS7_EEE8_Storage11__get_allocB8ue170006Ev, symObjAddr: 0xAA04, symBinAddr: 0x1000A1404, symSize: 0x3C }
  - { offsetInCU: 0xDB40, offset: 0x5455C, size: 0x8, addend: 0x0, symName: __ZNSt3__117__compressed_pairINS_9allocatorINS_6vectorINS_7variantIJ10PointLightEEENS1_IS5_EEEEEES7_E16__get_first_baseB8ue170006EPS9_, symObjAddr: 0xAA40, symBinAddr: 0x1000A1440, symSize: 0x14 }
  - { offsetInCU: 0xDB63, offset: 0x5457F, size: 0x8, addend: 0x0, symName: __ZNSt3__16vectorINS_7variantIJ10PointLightEEENS_9allocatorIS3_EEEC2ERKS6_, symObjAddr: 0xAA54, symBinAddr: 0x1000A1454, symSize: 0x388 }
  - { offsetInCU: 0xDBA9, offset: 0x545C5, size: 0x8, addend: 0x0, symName: __ZNSt3__116allocator_traitsINS_9allocatorINS_7variantIJ10PointLightEEEEEE37select_on_container_copy_constructionB8ue170006IS5_vvEES5_RKS5_, symObjAddr: 0xADDC, symBinAddr: 0x1000A17DC, symSize: 0x10 }
  - { offsetInCU: 0xDBD8, offset: 0x545F4, size: 0x8, addend: 0x0, symName: __ZNKSt3__16vectorINS_7variantIJ10PointLightEEENS_9allocatorIS3_EEE7__allocB8ue170006Ev, symObjAddr: 0xADEC, symBinAddr: 0x1000A17EC, symSize: 0x28 }
  - { offsetInCU: 0xDC06, offset: 0x54622, size: 0x8, addend: 0x0, symName: __ZNSt3__117__compressed_pairIPNS_7variantIJ10PointLightEEENS_9allocatorIS3_EEEC1B8ue170006IDnS6_EEOT_OT0_, symObjAddr: 0xAE14, symBinAddr: 0x1000A1814, symSize: 0x3C }
  - { offsetInCU: 0xDC5C, offset: 0x54678, size: 0x8, addend: 0x0, symName: __ZNSt3__16vectorINS_7variantIJ10PointLightEEENS_9allocatorIS3_EEE16__init_with_sizeB8ue170006IPS3_S8_EEvT_T0_m, symObjAddr: 0xAE50, symBinAddr: 0x1000A1850, symSize: 0x35C }
  - { offsetInCU: 0xDCD6, offset: 0x546F2, size: 0x8, addend: 0x0, symName: __ZNKSt3__117__compressed_pairIPNS_7variantIJ10PointLightEEENS_9allocatorIS3_EEE6secondB8ue170006Ev, symObjAddr: 0xB1AC, symBinAddr: 0x1000A1BAC, symSize: 0x24 }
  - { offsetInCU: 0xDCFA, offset: 0x54716, size: 0x8, addend: 0x0, symName: __ZNKSt3__122__compressed_pair_elemINS_9allocatorINS_7variantIJ10PointLightEEEEELi1ELb1EE5__getB8ue170006Ev, symObjAddr: 0xB1D0, symBinAddr: 0x1000A1BD0, symSize: 0x14 }
  - { offsetInCU: 0xDD1E, offset: 0x5473A, size: 0x8, addend: 0x0, symName: __ZNSt3__117__compressed_pairIPNS_7variantIJ10PointLightEEENS_9allocatorIS3_EEEC2B8ue170006IDnS6_EEOT_OT0_, symObjAddr: 0xB1E4, symBinAddr: 0x1000A1BE4, symSize: 0x44 }
  - { offsetInCU: 0xDD74, offset: 0x54790, size: 0x8, addend: 0x0, symName: __ZNSt3__122__compressed_pair_elemIPNS_7variantIJ10PointLightEEELi0ELb0EEC2B8ue170006IDnvEEOT_, symObjAddr: 0xB228, symBinAddr: 0x1000A1C28, symSize: 0x64 }
  - { offsetInCU: 0xDDB4, offset: 0x547D0, size: 0x8, addend: 0x0, symName: __ZNSt3__122__compressed_pair_elemINS_9allocatorINS_7variantIJ10PointLightEEEEELi1ELb1EEC2B8ue170006IS5_vEEOT_, symObjAddr: 0xB28C, symBinAddr: 0x1000A1C8C, symSize: 0x18 }
  - { offsetInCU: 0xDDF5, offset: 0x54811, size: 0x8, addend: 0x0, symName: __ZNSt3__16vectorINS_7variantIJ10PointLightEEENS_9allocatorIS3_EEE16__destroy_vectorC1B8ue170006ERS6_, symObjAddr: 0xB51C, symBinAddr: 0x1000A1F1C, symSize: 0x34 }
  - { offsetInCU: 0xDE2C, offset: 0x54848, size: 0x8, addend: 0x0, symName: __ZNSt3__16vectorINS_7variantIJ10PointLightEEENS_9allocatorIS3_EEE11__vallocateB8ue170006Em, symObjAddr: 0xB550, symBinAddr: 0x1000A1F50, symSize: 0x420 }
  - { offsetInCU: 0xDE74, offset: 0x54890, size: 0x8, addend: 0x0, symName: __ZNSt3__16vectorINS_7variantIJ10PointLightEEENS_9allocatorIS3_EEE18__construct_at_endIPS3_S8_EEvT_T0_m, symObjAddr: 0xB970, symBinAddr: 0x1000A2370, symSize: 0x380 }
  - { offsetInCU: 0xDEF0, offset: 0x5490C, size: 0x8, addend: 0x0, symName: __ZNSt3__128__exception_guard_exceptionsINS_6vectorINS_7variantIJ10PointLightEEENS_9allocatorIS4_EEE16__destroy_vectorEE10__completeB8ue170006Ev, symObjAddr: 0xBCF0, symBinAddr: 0x1000A26F0, symSize: 0x8C }
  - { offsetInCU: 0xDF14, offset: 0x54930, size: 0x8, addend: 0x0, symName: __ZNSt3__128__exception_guard_exceptionsINS_6vectorINS_7variantIJ10PointLightEEENS_9allocatorIS4_EEE16__destroy_vectorEED1B8ue170006Ev, symObjAddr: 0xBD7C, symBinAddr: 0x1000A277C, symSize: 0x2C }
  - { offsetInCU: 0xDF3C, offset: 0x54958, size: 0x8, addend: 0x0, symName: __ZNSt3__128__exception_guard_exceptionsINS_6vectorINS_7variantIJ10PointLightEEENS_9allocatorIS4_EEE16__destroy_vectorEEC1B8ue170006ES8_, symObjAddr: 0xBDA8, symBinAddr: 0x1000A27A8, symSize: 0x238 }
  - { offsetInCU: 0xDF77, offset: 0x54993, size: 0x8, addend: 0x0, symName: __ZNSt3__128__exception_guard_exceptionsINS_6vectorINS_7variantIJ10PointLightEEENS_9allocatorIS4_EEE16__destroy_vectorEEC2B8ue170006ES8_, symObjAddr: 0xBFE0, symBinAddr: 0x1000A29E0, symSize: 0x264 }
  - { offsetInCU: 0xDFB2, offset: 0x549CE, size: 0x8, addend: 0x0, symName: __ZNSt3__16vectorINS_7variantIJ10PointLightEEENS_9allocatorIS3_EEE16__destroy_vectorC2B8ue170006ERS6_, symObjAddr: 0xC244, symBinAddr: 0x1000A2C44, symSize: 0x70 }
  - { offsetInCU: 0xDFE9, offset: 0x54A05, size: 0x8, addend: 0x0, symName: __ZNKSt3__16vectorINS_7variantIJ10PointLightEEENS_9allocatorIS3_EEE8max_sizeEv, symObjAddr: 0xC2B4, symBinAddr: 0x1000A2CB4, symSize: 0x2FC }
  - { offsetInCU: 0xE010, offset: 0x54A2C, size: 0x8, addend: 0x0, symName: __ZNKSt3__16vectorINS_7variantIJ10PointLightEEENS_9allocatorIS3_EEE20__throw_length_errorB8ue170006Ev, symObjAddr: 0xC5B0, symBinAddr: 0x1000A2FB0, symSize: 0x20 }
  - { offsetInCU: 0xE034, offset: 0x54A50, size: 0x8, addend: 0x0, symName: __ZNSt3__16vectorINS_7variantIJ10PointLightEEENS_9allocatorIS3_EEE7__allocB8ue170006Ev, symObjAddr: 0xC85C, symBinAddr: 0x1000A325C, symSize: 0x28 }
  - { offsetInCU: 0xE058, offset: 0x54A74, size: 0x8, addend: 0x0, symName: __ZNSt3__16vectorINS_7variantIJ10PointLightEEENS_9allocatorIS3_EEE9__end_capB8ue170006Ev, symObjAddr: 0xC884, symBinAddr: 0x1000A3284, symSize: 0x28 }
  - { offsetInCU: 0xE07C, offset: 0x54A98, size: 0x8, addend: 0x0, symName: __ZNKSt3__16vectorINS_7variantIJ10PointLightEEENS_9allocatorIS3_EEE14__annotate_newB8ue170006Em, symObjAddr: 0xC8AC, symBinAddr: 0x1000A32AC, symSize: 0xC0 }
  - { offsetInCU: 0xE0AF, offset: 0x54ACB, size: 0x8, addend: 0x0, symName: __ZNSt3__116allocator_traitsINS_9allocatorINS_7variantIJ10PointLightEEEEEE8max_sizeB8ue170006IS5_vEEmRKS5_, symObjAddr: 0xC998, symBinAddr: 0x1000A336C, symSize: 0x24 }
  - { offsetInCU: 0xE0DD, offset: 0x54AF9, size: 0x8, addend: 0x0, symName: __ZNKSt3__19allocatorINS_7variantIJ10PointLightEEEE8max_sizeB8ue170006Ev, symObjAddr: 0xCC80, symBinAddr: 0x1000A3390, symSize: 0x14 }
  - { offsetInCU: 0xE101, offset: 0x54B1D, size: 0x8, addend: 0x0, symName: __ZNSt3__19allocatorINS_7variantIJ10PointLightEEEE8allocateB8ue170006Em, symObjAddr: 0xCDC4, symBinAddr: 0x1000A33A4, symSize: 0x5C }
  - { offsetInCU: 0xE133, offset: 0x54B4F, size: 0x8, addend: 0x0, symName: __ZNSt3__117__compressed_pairIPNS_7variantIJ10PointLightEEENS_9allocatorIS3_EEE6secondB8ue170006Ev, symObjAddr: 0xCE20, symBinAddr: 0x1000A3400, symSize: 0x24 }
  - { offsetInCU: 0xE157, offset: 0x54B73, size: 0x8, addend: 0x0, symName: __ZNSt3__122__compressed_pair_elemINS_9allocatorINS_7variantIJ10PointLightEEEEELi1ELb1EE5__getB8ue170006Ev, symObjAddr: 0xCE44, symBinAddr: 0x1000A3424, symSize: 0x14 }
  - { offsetInCU: 0xE17B, offset: 0x54B97, size: 0x8, addend: 0x0, symName: __ZNSt3__117__compressed_pairIPNS_7variantIJ10PointLightEEENS_9allocatorIS3_EEE5firstB8ue170006Ev, symObjAddr: 0xCE58, symBinAddr: 0x1000A3438, symSize: 0x24 }
  - { offsetInCU: 0xE19F, offset: 0x54BBB, size: 0x8, addend: 0x0, symName: __ZNSt3__122__compressed_pair_elemIPNS_7variantIJ10PointLightEEELi0ELb0EE5__getB8ue170006Ev, symObjAddr: 0xCE7C, symBinAddr: 0x1000A345C, symSize: 0x14 }
  - { offsetInCU: 0xE1C3, offset: 0x54BDF, size: 0x8, addend: 0x0, symName: __ZNKSt3__16vectorINS_7variantIJ10PointLightEEENS_9allocatorIS3_EEE31__annotate_contiguous_containerEPKvS8_S8_S8_, symObjAddr: 0xCE90, symBinAddr: 0x1000A3470, symSize: 0x58 }
  - { offsetInCU: 0xE223, offset: 0x54C3F, size: 0x8, addend: 0x0, symName: __ZNKSt3__16vectorINS_7variantIJ10PointLightEEENS_9allocatorIS3_EEE4dataB8ue170006Ev, symObjAddr: 0xCEE8, symBinAddr: 0x1000A34C8, symSize: 0x64 }
  - { offsetInCU: 0xE247, offset: 0x54C63, size: 0x8, addend: 0x0, symName: __ZNKSt3__16vectorINS_7variantIJ10PointLightEEENS_9allocatorIS3_EEE8capacityB8ue170006Ev, symObjAddr: 0xCF4C, symBinAddr: 0x1000A352C, symSize: 0xBC }
  - { offsetInCU: 0xE26B, offset: 0x54C87, size: 0x8, addend: 0x0, symName: __ZNKSt3__16vectorINS_7variantIJ10PointLightEEENS_9allocatorIS3_EEE9__end_capB8ue170006Ev, symObjAddr: 0xD01C, symBinAddr: 0x1000A35FC, symSize: 0x28 }
  - { offsetInCU: 0xE28F, offset: 0x54CAB, size: 0x8, addend: 0x0, symName: __ZNKSt3__117__compressed_pairIPNS_7variantIJ10PointLightEEENS_9allocatorIS3_EEE5firstB8ue170006Ev, symObjAddr: 0xD044, symBinAddr: 0x1000A3624, symSize: 0x24 }
  - { offsetInCU: 0xE2B3, offset: 0x54CCF, size: 0x8, addend: 0x0, symName: __ZNKSt3__122__compressed_pair_elemIPNS_7variantIJ10PointLightEEELi0ELb0EE5__getB8ue170006Ev, symObjAddr: 0xD068, symBinAddr: 0x1000A3648, symSize: 0x14 }
  - { offsetInCU: 0xE2F0, offset: 0x54D0C, size: 0x8, addend: 0x0, symName: __ZNSt3__16vectorINS_7variantIJ10PointLightEEENS_9allocatorIS3_EEE21_ConstructTransactionC1B8ue170006ERS6_m, symObjAddr: 0xD07C, symBinAddr: 0x1000A365C, symSize: 0x3C }
  - { offsetInCU: 0xE336, offset: 0x54D52, size: 0x8, addend: 0x0, symName: __ZNSt3__16vectorINS_7variantIJ10PointLightEEENS_9allocatorIS3_EEE21_ConstructTransactionD1B8ue170006Ev, symObjAddr: 0xD394, symBinAddr: 0x1000A3974, symSize: 0x2C }
  - { offsetInCU: 0xE35E, offset: 0x54D7A, size: 0x8, addend: 0x0, symName: __ZNSt3__16vectorINS_7variantIJ10PointLightEEENS_9allocatorIS3_EEE21_ConstructTransactionC2B8ue170006ERS6_m, symObjAddr: 0xD3C0, symBinAddr: 0x1000A39A0, symSize: 0x1D0 }
  - { offsetInCU: 0xE3A4, offset: 0x54DC0, size: 0x8, addend: 0x0, symName: __ZNKSt3__16vectorINS_7variantIJ10PointLightEEENS_9allocatorIS3_EEE19__annotate_increaseB8ue170006Em, symObjAddr: 0xD590, symBinAddr: 0x1000A3B70, symSize: 0xD8 }
  - { offsetInCU: 0xE3F5, offset: 0x54E11, size: 0x8, addend: 0x0, symName: __ZNSt3__14pairIPNS_7variantIJ10PointLightEEES4_EC1B8ue170006IS4_S4_LPv0EEEOT_OT0_, symObjAddr: 0xDC68, symBinAddr: 0x1000A4248, symSize: 0x3C }
  - { offsetInCU: 0xE451, offset: 0x54E6D, size: 0x8, addend: 0x0, symName: __ZNSt3__14pairIPNS_7variantIJ10PointLightEEES4_EC2B8ue170006IS4_S4_LPv0EEEOT_OT0_, symObjAddr: 0xDCA4, symBinAddr: 0x1000A4284, symSize: 0x138 }
  - { offsetInCU: 0xE4B7, offset: 0x54ED3, size: 0x8, addend: 0x0, symName: __ZNKSt3__114__copy_trivialclB8ue170006INS_7variantIJ10PointLightEEES4_Li0EEENS_4pairIPT_PT0_EES7_S7_S9_, symObjAddr: 0xEA44, symBinAddr: 0x1000A5024, symSize: 0x230 }
  - { offsetInCU: 0xE522, offset: 0x54F3E, size: 0x8, addend: 0x0, symName: __ZNSt3__14pairIPNS_7variantIJ10PointLightEEES4_EC1B8ue170006IRS4_S4_LPv0EEEOT_OT0_, symObjAddr: 0xF2C4, symBinAddr: 0x1000A58A4, symSize: 0x3C }
  - { offsetInCU: 0xE57E, offset: 0x54F9A, size: 0x8, addend: 0x0, symName: __ZNSt3__14pairIPNS_7variantIJ10PointLightEEES4_EC2B8ue170006IRS4_S4_LPv0EEEOT_OT0_, symObjAddr: 0xF300, symBinAddr: 0x1000A58E0, symSize: 0x138 }
  - { offsetInCU: 0xE5DA, offset: 0x54FF6, size: 0x8, addend: 0x0, symName: __ZNSt3__118__unwrap_iter_implIPNS_7variantIJ10PointLightEEELb1EE8__unwrapB8ue170006ES4_, symObjAddr: 0xF438, symBinAddr: 0x1000A5A18, symSize: 0x24 }
  - { offsetInCU: 0xE5FD, offset: 0x55019, size: 0x8, addend: 0x0, symName: __ZNSt3__118__unwrap_iter_implIPNS_7variantIJ10PointLightEEELb1EE8__rewrapB8ue170006ES4_S4_, symObjAddr: 0xF45C, symBinAddr: 0x1000A5A3C, symSize: 0x50 }
  - { offsetInCU: 0xE62E, offset: 0x5504A, size: 0x8, addend: 0x0, symName: __ZNSt3__16vectorINS_7variantIJ10PointLightEEENS_9allocatorIS3_EEE21_ConstructTransactionD2B8ue170006Ev, symObjAddr: 0xF4AC, symBinAddr: 0x1000A5A8C, symSize: 0x278 }
  - { offsetInCU: 0xE656, offset: 0x55072, size: 0x8, addend: 0x0, symName: __ZNKSt3__16vectorINS_7variantIJ10PointLightEEENS_9allocatorIS3_EEE17__annotate_shrinkB8ue170006Em, symObjAddr: 0xF724, symBinAddr: 0x1000A5D04, symSize: 0xC8 }
  - { offsetInCU: 0xE689, offset: 0x550A5, size: 0x8, addend: 0x0, symName: __ZNSt3__128__exception_guard_exceptionsINS_6vectorINS_7variantIJ10PointLightEEENS_9allocatorIS4_EEE16__destroy_vectorEED2B8ue170006Ev, symObjAddr: 0xF7EC, symBinAddr: 0x1000A5DCC, symSize: 0xBC }
  - { offsetInCU: 0xE6B1, offset: 0x550CD, size: 0x8, addend: 0x0, symName: __ZNSt3__16vectorINS_7variantIJ10PointLightEEENS_9allocatorIS3_EEE16__destroy_vectorclB8ue170006Ev, symObjAddr: 0xF8A8, symBinAddr: 0x1000A5E88, symSize: 0x228 }
  - { offsetInCU: 0xE6D5, offset: 0x550F1, size: 0x8, addend: 0x0, symName: __ZNSt3__16vectorINS_7variantIJ10PointLightEEENS_9allocatorIS3_EEE7__clearB8ue170006Ev, symObjAddr: 0xFAD0, symBinAddr: 0x1000A60B0, symSize: 0x64 }
  - { offsetInCU: 0xE6F9, offset: 0x55115, size: 0x8, addend: 0x0, symName: __ZNKSt3__16vectorINS_7variantIJ10PointLightEEENS_9allocatorIS3_EEE17__annotate_deleteB8ue170006Ev, symObjAddr: 0xFB34, symBinAddr: 0x1000A6114, symSize: 0xCC }
  - { offsetInCU: 0xE71D, offset: 0x55139, size: 0x8, addend: 0x0, symName: __ZNSt3__116allocator_traitsINS_9allocatorINS_7variantIJ10PointLightEEEEEE10deallocateB8ue170006ERS5_PS4_m, symObjAddr: 0xFC00, symBinAddr: 0x1000A61E0, symSize: 0x34 }
  - { offsetInCU: 0xE75F, offset: 0x5517B, size: 0x8, addend: 0x0, symName: __ZNSt3__16vectorINS_7variantIJ10PointLightEEENS_9allocatorIS3_EEE22__base_destruct_at_endB8ue170006EPS3_, symObjAddr: 0xFC34, symBinAddr: 0x1000A6214, symSize: 0x114 }
  - { offsetInCU: 0xE7A1, offset: 0x551BD, size: 0x8, addend: 0x0, symName: __ZNSt3__116allocator_traitsINS_9allocatorINS_7variantIJ10PointLightEEEEEE7destroyB8ue170006IS4_vEEvRS5_PT_, symObjAddr: 0xFD48, symBinAddr: 0x1000A6328, symSize: 0x2C }
  - { offsetInCU: 0xE7DE, offset: 0x551FA, size: 0x8, addend: 0x0, symName: __ZNSt3__19allocatorINS_7variantIJ10PointLightEEEE7destroyB8ue170006EPS3_, symObjAddr: 0xFD74, symBinAddr: 0x1000A6354, symSize: 0x14 }
  - { offsetInCU: 0xE810, offset: 0x5522C, size: 0x8, addend: 0x0, symName: __ZNSt3__19allocatorINS_7variantIJ10PointLightEEEE10deallocateB8ue170006EPS3_m, symObjAddr: 0xFD88, symBinAddr: 0x1000A6368, symSize: 0x4C }
  - { offsetInCU: 0xE850, offset: 0x5526C, size: 0x8, addend: 0x0, symName: __ZNSt3__120__shared_ptr_emplaceINS_6vectorINS_7variantIJ10PointLightEEENS_9allocatorIS4_EEEENS5_IS7_EEE8_StorageD2B8ue170006Ev, symObjAddr: 0xFEDC, symBinAddr: 0x1000A63B4, symSize: 0x2C }
  - { offsetInCU: 0xE878, offset: 0x55294, size: 0x8, addend: 0x0, symName: __ZNSt3__120__shared_ptr_emplaceINS_6vectorINS_7variantIJ10PointLightEEENS_9allocatorIS4_EEEENS5_IS7_EEED2Ev, symObjAddr: 0xFF08, symBinAddr: 0x1000A63E0, symSize: 0x88 }
  - { offsetInCU: 0xE8A4, offset: 0x552C0, size: 0x8, addend: 0x0, symName: __ZNSt3__16vectorINS_7variantIJ10PointLightEEENS_9allocatorIS3_EEED1B8ue170006Ev, symObjAddr: 0xFF90, symBinAddr: 0x1000A6468, symSize: 0x2C }
  - { offsetInCU: 0xE8CC, offset: 0x552E8, size: 0x8, addend: 0x0, symName: __ZNSt3__16vectorINS_7variantIJ10PointLightEEENS_9allocatorIS3_EEED2B8ue170006Ev, symObjAddr: 0xFFBC, symBinAddr: 0x1000A6494, symSize: 0x1F4 }
  - { offsetInCU: 0xE8F5, offset: 0x55311, size: 0x8, addend: 0x0, symName: __ZNSt3__120__shared_ptr_emplaceINS_6vectorINS_7variantIJ10PointLightEEENS_9allocatorIS4_EEEENS5_IS7_EEE11__get_allocB8ue170006Ev, symObjAddr: 0x101B0, symBinAddr: 0x1000A6688, symSize: 0x28 }
  - { offsetInCU: 0xE919, offset: 0x55335, size: 0x8, addend: 0x0, symName: __ZNSt3__116allocator_traitsINS_9allocatorINS_20__shared_ptr_emplaceINS_6vectorINS_7variantIJ10PointLightEEENS1_IS6_EEEENS1_IS8_EEEEEEE10deallocateB8ue170006ERSB_PSA_m, symObjAddr: 0x101D8, symBinAddr: 0x1000A66B0, symSize: 0x34 }
  - { offsetInCU: 0xE95B, offset: 0x55377, size: 0x8, addend: 0x0, symName: __ZNSt3__114pointer_traitsIPNS_20__shared_ptr_emplaceINS_6vectorINS_7variantIJ10PointLightEEENS_9allocatorIS5_EEEENS6_IS8_EEEEE10pointer_toB8ue170006ERSA_, symObjAddr: 0x1020C, symBinAddr: 0x1000A66E4, symSize: 0x14 }
  - { offsetInCU: 0xE97E, offset: 0x5539A, size: 0x8, addend: 0x0, symName: __ZNSt3__19allocatorINS_20__shared_ptr_emplaceINS_6vectorINS_7variantIJ10PointLightEEENS0_IS5_EEEENS0_IS7_EEEEE10deallocateB8ue170006EPS9_m, symObjAddr: 0x10220, symBinAddr: 0x1000A66F8, symSize: 0x50 }
  - { offsetInCU: 0xE9BE, offset: 0x553DA, size: 0x8, addend: 0x0, symName: __ZNSt3__110shared_ptrINS_6vectorINS_7variantIJ10PointLightEEENS_9allocatorIS4_EEEEEC1B8ue170006Ev, symObjAddr: 0x10270, symBinAddr: 0x1000A6748, symSize: 0x2C }
  - { offsetInCU: 0xE9E6, offset: 0x55402, size: 0x8, addend: 0x0, symName: __ZNSt3__110shared_ptrINS_6vectorINS_7variantIJ10PointLightEEENS_9allocatorIS4_EEEEE18__enable_weak_thisB8ue170006Ez, symObjAddr: 0x1029C, symBinAddr: 0x1000A6774, symSize: 0x10 }
  - { offsetInCU: 0xEA0B, offset: 0x55427, size: 0x8, addend: 0x0, symName: __ZNSt3__110shared_ptrINS_6vectorINS_7variantIJ10PointLightEEENS_9allocatorIS4_EEEEEC2B8ue170006Ev, symObjAddr: 0x102AC, symBinAddr: 0x1000A6784, symSize: 0x9C }
  - { offsetInCU: 0xEA33, offset: 0x5544F, size: 0x8, addend: 0x0, symName: __ZNSt3__120__shared_ptr_emplaceINS_6vectorINS_7variantIJ10PointLightEEENS_9allocatorIS4_EEEENS5_IS7_EEE8_Storage10__get_elemB8ue170006Ev, symObjAddr: 0x10348, symBinAddr: 0x1000A6820, symSize: 0x3C }
  - { offsetInCU: 0xEA84, offset: 0x554A0, size: 0x8, addend: 0x0, symName: __ZNSt3__117__compressed_pairINS_9allocatorINS_6vectorINS_7variantIJ10PointLightEEENS1_IS5_EEEEEES7_E17__get_second_baseB8ue170006EPS9_, symObjAddr: 0x10384, symBinAddr: 0x1000A685C, symSize: 0x14 }
  - { offsetInCU: 0xEAA7, offset: 0x554C3, size: 0x8, addend: 0x0, symName: __ZNSt3__118__allocation_guardINS_9allocatorINS_20__shared_ptr_emplaceINS_6vectorINS_7variantIJ10PointLightEEENS1_IS6_EEEENS1_IS8_EEEEEEED2B8ue170006Ev, symObjAddr: 0x10398, symBinAddr: 0x1000A6870, symSize: 0x2C }
  - { offsetInCU: 0xEACF, offset: 0x554EB, size: 0x8, addend: 0x0, symName: __ZNSt3__118__allocation_guardINS_9allocatorINS_20__shared_ptr_emplaceINS_6vectorINS_7variantIJ10PointLightEEENS1_IS6_EEEENS1_IS8_EEEEEEE9__destroyB8ue170006Ev, symObjAddr: 0x103C4, symBinAddr: 0x1000A689C, symSize: 0xFC }
  - { offsetInCU: 0xEAF3, offset: 0x5550F, size: 0x8, addend: 0x0, symName: __ZNSt3__19allocatorINS_6vectorINS_7variantIJ10PointLightEEENS0_IS4_EEEEEC2B8ue170006Ev, symObjAddr: 0x104C0, symBinAddr: 0x1000A6998, symSize: 0x2C }
  - { offsetInCU: 0xEB1B, offset: 0x55537, size: 0x8, addend: 0x0, symName: __ZNSt3__116__non_trivial_ifILb1ENS_9allocatorINS_6vectorINS_7variantIJ10PointLightEEENS1_IS5_EEEEEEEC2B8ue170006Ev, symObjAddr: 0x104EC, symBinAddr: 0x1000A69C4, symSize: 0x14 }
  - { offsetInCU: 0xEB44, offset: 0x55560, size: 0x8, addend: 0x0, symName: __ZNSt3__19allocatorINS_6vectorI11PBRMaterialNS0_IS2_EEEEEC1B8ue170006Ev, symObjAddr: 0x109E8, symBinAddr: 0x1000A6EC0, symSize: 0x2C }
  - { offsetInCU: 0xEBB7, offset: 0x555D3, size: 0x8, addend: 0x0, symName: __ZNSt3__118__allocation_guardINS_9allocatorINS_20__shared_ptr_emplaceINS_6vectorI11PBRMaterialNS1_IS4_EEEENS1_IS6_EEEEEEEC1B8ue170006IS7_EET_m, symObjAddr: 0x10A14, symBinAddr: 0x1000A6EEC, symSize: 0x34 }
  - { offsetInCU: 0xEC04, offset: 0x55620, size: 0x8, addend: 0x0, symName: __ZNKSt3__118__allocation_guardINS_9allocatorINS_20__shared_ptr_emplaceINS_6vectorI11PBRMaterialNS1_IS4_EEEENS1_IS6_EEEEEEE5__getB8ue170006Ev, symObjAddr: 0x10A48, symBinAddr: 0x1000A6F20, symSize: 0x64 }
  - { offsetInCU: 0xEC28, offset: 0x55644, size: 0x8, addend: 0x0, symName: __ZNSt3__120__shared_ptr_emplaceINS_6vectorI11PBRMaterialNS_9allocatorIS2_EEEENS3_IS5_EEEC1B8ue170006IJRKS5_EEES6_DpOT_, symObjAddr: 0x10AAC, symBinAddr: 0x1000A6F84, symSize: 0x34 }
  - { offsetInCU: 0xEC7B, offset: 0x55697, size: 0x8, addend: 0x0, symName: __ZNSt3__118__allocation_guardINS_9allocatorINS_20__shared_ptr_emplaceINS_6vectorI11PBRMaterialNS1_IS4_EEEENS1_IS6_EEEEEEE13__release_ptrB8ue170006Ev, symObjAddr: 0x10AE0, symBinAddr: 0x1000A6FB8, symSize: 0xA8 }
  - { offsetInCU: 0xECAD, offset: 0x556C9, size: 0x8, addend: 0x0, symName: __ZNSt3__110shared_ptrINS_6vectorI11PBRMaterialNS_9allocatorIS2_EEEEE27__create_with_control_blockB8ue170006IS5_NS_20__shared_ptr_emplaceIS5_NS3_IS5_EEEEEES6_PT_PT0_, symObjAddr: 0x10B88, symBinAddr: 0x1000A7060, symSize: 0x188 }
  - { offsetInCU: 0xED02, offset: 0x5571E, size: 0x8, addend: 0x0, symName: __ZNSt3__120__shared_ptr_emplaceINS_6vectorI11PBRMaterialNS_9allocatorIS2_EEEENS3_IS5_EEE10__get_elemB8ue170006Ev, symObjAddr: 0x10D10, symBinAddr: 0x1000A71E8, symSize: 0x28 }
  - { offsetInCU: 0xED26, offset: 0x55742, size: 0x8, addend: 0x0, symName: __ZNSt3__118__allocation_guardINS_9allocatorINS_20__shared_ptr_emplaceINS_6vectorI11PBRMaterialNS1_IS4_EEEENS1_IS6_EEEEEEED1B8ue170006Ev, symObjAddr: 0x10D38, symBinAddr: 0x1000A7210, symSize: 0x2C }
  - { offsetInCU: 0xED4E, offset: 0x5576A, size: 0x8, addend: 0x0, symName: __ZNSt3__118__allocation_guardINS_9allocatorINS_20__shared_ptr_emplaceINS_6vectorI11PBRMaterialNS1_IS4_EEEENS1_IS6_EEEEEEEC2B8ue170006IS7_EET_m, symObjAddr: 0x10D64, symBinAddr: 0x1000A723C, symSize: 0x28C }
  - { offsetInCU: 0xEDA1, offset: 0x557BD, size: 0x8, addend: 0x0, symName: __ZNSt3__19allocatorINS_20__shared_ptr_emplaceINS_6vectorI11PBRMaterialNS0_IS3_EEEENS0_IS5_EEEEEC1B8ue170006IS5_EERKNS0_IT_EE, symObjAddr: 0x10FF0, symBinAddr: 0x1000A74C8, symSize: 0x34 }
  - { offsetInCU: 0xEDDD, offset: 0x557F9, size: 0x8, addend: 0x0, symName: __ZNSt3__116allocator_traitsINS_9allocatorINS_20__shared_ptr_emplaceINS_6vectorI11PBRMaterialNS1_IS4_EEEENS1_IS6_EEEEEEE8allocateB8ue170006ERS9_m, symObjAddr: 0x11024, symBinAddr: 0x1000A74FC, symSize: 0x2C }
  - { offsetInCU: 0xEE10, offset: 0x5582C, size: 0x8, addend: 0x0, symName: __ZNSt3__19allocatorINS_20__shared_ptr_emplaceINS_6vectorI11PBRMaterialNS0_IS3_EEEENS0_IS5_EEEEEC2B8ue170006IS5_EERKNS0_IT_EE, symObjAddr: 0x11050, symBinAddr: 0x1000A7528, symSize: 0x30 }
  - { offsetInCU: 0xEE4C, offset: 0x55868, size: 0x8, addend: 0x0, symName: __ZNSt3__116__non_trivial_ifILb1ENS_9allocatorINS_20__shared_ptr_emplaceINS_6vectorI11PBRMaterialNS1_IS4_EEEENS1_IS6_EEEEEEEC2B8ue170006Ev, symObjAddr: 0x11080, symBinAddr: 0x1000A7558, symSize: 0x14 }
  - { offsetInCU: 0xEE75, offset: 0x55891, size: 0x8, addend: 0x0, symName: __ZNSt3__19allocatorINS_20__shared_ptr_emplaceINS_6vectorI11PBRMaterialNS0_IS3_EEEENS0_IS5_EEEEE8allocateB8ue170006Em, symObjAddr: 0x11094, symBinAddr: 0x1000A756C, symSize: 0x60 }
  - { offsetInCU: 0xEEB1, offset: 0x558CD, size: 0x8, addend: 0x0, symName: __ZNSt3__116allocator_traitsINS_9allocatorINS_20__shared_ptr_emplaceINS_6vectorI11PBRMaterialNS1_IS4_EEEENS1_IS6_EEEEEEE8max_sizeB8ue170006IS9_vEEmRKS9_, symObjAddr: 0x110F4, symBinAddr: 0x1000A75CC, symSize: 0x24 }
  - { offsetInCU: 0xEEDF, offset: 0x558FB, size: 0x8, addend: 0x0, symName: __ZNKSt3__19allocatorINS_20__shared_ptr_emplaceINS_6vectorI11PBRMaterialNS0_IS3_EEEENS0_IS5_EEEEE8max_sizeB8ue170006Ev, symObjAddr: 0x11118, symBinAddr: 0x1000A75F0, symSize: 0x18 }
  - { offsetInCU: 0xEF03, offset: 0x5591F, size: 0x8, addend: 0x0, symName: __ZNSt3__120__shared_ptr_emplaceINS_6vectorI11PBRMaterialNS_9allocatorIS2_EEEENS3_IS5_EEEC2B8ue170006IJRKS5_EEES6_DpOT_, symObjAddr: 0x11130, symBinAddr: 0x1000A7608, symSize: 0x2E4 }
  - { offsetInCU: 0xEF5C, offset: 0x55978, size: 0x8, addend: 0x0, symName: __ZNSt3__120__shared_ptr_emplaceINS_6vectorI11PBRMaterialNS_9allocatorIS2_EEEENS3_IS5_EEE8_StorageC1B8ue170006EOS6_, symObjAddr: 0x11414, symBinAddr: 0x1000A78EC, symSize: 0x34 }
  - { offsetInCU: 0xEF93, offset: 0x559AF, size: 0x8, addend: 0x0, symName: __ZNSt3__16vectorI11PBRMaterialNS_9allocatorIS1_EEEC1ERKS4_, symObjAddr: 0x11448, symBinAddr: 0x1000A7920, symSize: 0x34 }
  - { offsetInCU: 0xEFCD, offset: 0x559E9, size: 0x8, addend: 0x0, symName: __ZNSt3__120__shared_ptr_emplaceINS_6vectorI11PBRMaterialNS_9allocatorIS2_EEEENS3_IS5_EEE8_StorageD1B8ue170006Ev, symObjAddr: 0x1147C, symBinAddr: 0x1000A7954, symSize: 0x2C }
  - { offsetInCU: 0xEFF5, offset: 0x55A11, size: 0x8, addend: 0x0, symName: __ZNSt3__120__shared_ptr_emplaceINS_6vectorI11PBRMaterialNS_9allocatorIS2_EEEENS3_IS5_EEED1Ev, symObjAddr: 0x114A8, symBinAddr: 0x1000A7980, symSize: 0x2C }
  - { offsetInCU: 0xF021, offset: 0x55A3D, size: 0x8, addend: 0x0, symName: __ZNSt3__120__shared_ptr_emplaceINS_6vectorI11PBRMaterialNS_9allocatorIS2_EEEENS3_IS5_EEED0Ev, symObjAddr: 0x114D4, symBinAddr: 0x1000A79AC, symSize: 0x30 }
  - { offsetInCU: 0xF04D, offset: 0x55A69, size: 0x8, addend: 0x0, symName: __ZNSt3__120__shared_ptr_emplaceINS_6vectorI11PBRMaterialNS_9allocatorIS2_EEEENS3_IS5_EEE16__on_zero_sharedEv, symObjAddr: 0x11504, symBinAddr: 0x1000A79DC, symSize: 0x28 }
  - { offsetInCU: 0xF071, offset: 0x55A8D, size: 0x8, addend: 0x0, symName: __ZNSt3__120__shared_ptr_emplaceINS_6vectorI11PBRMaterialNS_9allocatorIS2_EEEENS3_IS5_EEE21__on_zero_shared_weakEv, symObjAddr: 0x1152C, symBinAddr: 0x1000A7A04, symSize: 0x208 }
  - { offsetInCU: 0xF0B5, offset: 0x55AD1, size: 0x8, addend: 0x0, symName: __ZNSt3__120__shared_ptr_emplaceINS_6vectorI11PBRMaterialNS_9allocatorIS2_EEEENS3_IS5_EEE8_StorageC2B8ue170006EOS6_, symObjAddr: 0x11734, symBinAddr: 0x1000A7C0C, symSize: 0x30 }
  - { offsetInCU: 0xF0EC, offset: 0x55B08, size: 0x8, addend: 0x0, symName: __ZNSt3__120__shared_ptr_emplaceINS_6vectorI11PBRMaterialNS_9allocatorIS2_EEEENS3_IS5_EEE8_Storage11__get_allocB8ue170006Ev, symObjAddr: 0x11764, symBinAddr: 0x1000A7C3C, symSize: 0x3C }
  - { offsetInCU: 0xF13D, offset: 0x55B59, size: 0x8, addend: 0x0, symName: __ZNSt3__117__compressed_pairINS_9allocatorINS_6vectorI11PBRMaterialNS1_IS3_EEEEEES5_E16__get_first_baseB8ue170006EPS7_, symObjAddr: 0x117A0, symBinAddr: 0x1000A7C78, symSize: 0x14 }
  - { offsetInCU: 0xF160, offset: 0x55B7C, size: 0x8, addend: 0x0, symName: __ZNSt3__16vectorI11PBRMaterialNS_9allocatorIS1_EEEC2ERKS4_, symObjAddr: 0x117B4, symBinAddr: 0x1000A7C8C, symSize: 0x388 }
  - { offsetInCU: 0xF1A6, offset: 0x55BC2, size: 0x8, addend: 0x0, symName: __ZNSt3__116allocator_traitsINS_9allocatorI11PBRMaterialEEE37select_on_container_copy_constructionB8ue170006IS3_vvEES3_RKS3_, symObjAddr: 0x11B3C, symBinAddr: 0x1000A8014, symSize: 0x10 }
  - { offsetInCU: 0xF1D5, offset: 0x55BF1, size: 0x8, addend: 0x0, symName: __ZNKSt3__16vectorI11PBRMaterialNS_9allocatorIS1_EEE7__allocB8ue170006Ev, symObjAddr: 0x11B4C, symBinAddr: 0x1000A8024, symSize: 0x28 }
  - { offsetInCU: 0xF1FE, offset: 0x55C1A, size: 0x8, addend: 0x0, symName: __ZNSt3__117__compressed_pairIP11PBRMaterialNS_9allocatorIS1_EEEC1B8ue170006IDnS4_EEOT_OT0_, symObjAddr: 0x11B74, symBinAddr: 0x1000A804C, symSize: 0x3C }
  - { offsetInCU: 0xF254, offset: 0x55C70, size: 0x8, addend: 0x0, symName: __ZNSt3__16vectorI11PBRMaterialNS_9allocatorIS1_EEE16__init_with_sizeB8ue170006IPS1_S6_EEvT_T0_m, symObjAddr: 0x11BB0, symBinAddr: 0x1000A8088, symSize: 0x35C }
  - { offsetInCU: 0xF2CE, offset: 0x55CEA, size: 0x8, addend: 0x0, symName: __ZNKSt3__16vectorI11PBRMaterialNS_9allocatorIS1_EEE4sizeB8ue170006Ev, symObjAddr: 0x11F0C, symBinAddr: 0x1000A83E4, symSize: 0xB0 }
  - { offsetInCU: 0xF2F2, offset: 0x55D0E, size: 0x8, addend: 0x0, symName: __ZNKSt3__117__compressed_pairIP11PBRMaterialNS_9allocatorIS1_EEE6secondB8ue170006Ev, symObjAddr: 0x11FBC, symBinAddr: 0x1000A8494, symSize: 0x24 }
  - { offsetInCU: 0xF316, offset: 0x55D32, size: 0x8, addend: 0x0, symName: __ZNKSt3__122__compressed_pair_elemINS_9allocatorI11PBRMaterialEELi1ELb1EE5__getB8ue170006Ev, symObjAddr: 0x11FE0, symBinAddr: 0x1000A84B8, symSize: 0x14 }
  - { offsetInCU: 0xF33A, offset: 0x55D56, size: 0x8, addend: 0x0, symName: __ZNSt3__117__compressed_pairIP11PBRMaterialNS_9allocatorIS1_EEEC2B8ue170006IDnS4_EEOT_OT0_, symObjAddr: 0x11FF4, symBinAddr: 0x1000A84CC, symSize: 0x44 }
  - { offsetInCU: 0xF390, offset: 0x55DAC, size: 0x8, addend: 0x0, symName: __ZNSt3__122__compressed_pair_elemIP11PBRMaterialLi0ELb0EEC2B8ue170006IDnvEEOT_, symObjAddr: 0x12038, symBinAddr: 0x1000A8510, symSize: 0x64 }
  - { offsetInCU: 0xF3D0, offset: 0x55DEC, size: 0x8, addend: 0x0, symName: __ZNSt3__122__compressed_pair_elemINS_9allocatorI11PBRMaterialEELi1ELb1EEC2B8ue170006IS3_vEEOT_, symObjAddr: 0x1209C, symBinAddr: 0x1000A8574, symSize: 0x18 }
  - { offsetInCU: 0xF411, offset: 0x55E2D, size: 0x8, addend: 0x0, symName: __ZNSt3__16vectorI11PBRMaterialNS_9allocatorIS1_EEE16__destroy_vectorC1B8ue170006ERS4_, symObjAddr: 0x1232C, symBinAddr: 0x1000A8804, symSize: 0x34 }
  - { offsetInCU: 0xF448, offset: 0x55E64, size: 0x8, addend: 0x0, symName: __ZNSt3__16vectorI11PBRMaterialNS_9allocatorIS1_EEE11__vallocateB8ue170006Em, symObjAddr: 0x12360, symBinAddr: 0x1000A8838, symSize: 0x428 }
  - { offsetInCU: 0xF490, offset: 0x55EAC, size: 0x8, addend: 0x0, symName: __ZNSt3__16vectorI11PBRMaterialNS_9allocatorIS1_EEE18__construct_at_endIPS1_S6_EEvT_T0_m, symObjAddr: 0x12788, symBinAddr: 0x1000A8C60, symSize: 0x380 }
  - { offsetInCU: 0xF50C, offset: 0x55F28, size: 0x8, addend: 0x0, symName: __ZNSt3__128__exception_guard_exceptionsINS_6vectorI11PBRMaterialNS_9allocatorIS2_EEE16__destroy_vectorEE10__completeB8ue170006Ev, symObjAddr: 0x12B08, symBinAddr: 0x1000A8FE0, symSize: 0x8C }
  - { offsetInCU: 0xF530, offset: 0x55F4C, size: 0x8, addend: 0x0, symName: __ZNSt3__128__exception_guard_exceptionsINS_6vectorI11PBRMaterialNS_9allocatorIS2_EEE16__destroy_vectorEED1B8ue170006Ev, symObjAddr: 0x12B94, symBinAddr: 0x1000A906C, symSize: 0x2C }
  - { offsetInCU: 0xF558, offset: 0x55F74, size: 0x8, addend: 0x0, symName: __ZNSt3__128__exception_guard_exceptionsINS_6vectorI11PBRMaterialNS_9allocatorIS2_EEE16__destroy_vectorEEC1B8ue170006ES6_, symObjAddr: 0x12BC0, symBinAddr: 0x1000A9098, symSize: 0x238 }
  - { offsetInCU: 0xF593, offset: 0x55FAF, size: 0x8, addend: 0x0, symName: __ZNSt3__128__exception_guard_exceptionsINS_6vectorI11PBRMaterialNS_9allocatorIS2_EEE16__destroy_vectorEEC2B8ue170006ES6_, symObjAddr: 0x12DF8, symBinAddr: 0x1000A92D0, symSize: 0x264 }
  - { offsetInCU: 0xF5CE, offset: 0x55FEA, size: 0x8, addend: 0x0, symName: __ZNSt3__16vectorI11PBRMaterialNS_9allocatorIS1_EEE16__destroy_vectorC2B8ue170006ERS4_, symObjAddr: 0x1305C, symBinAddr: 0x1000A9534, symSize: 0x70 }
  - { offsetInCU: 0xF605, offset: 0x56021, size: 0x8, addend: 0x0, symName: __ZNKSt3__16vectorI11PBRMaterialNS_9allocatorIS1_EEE8max_sizeEv, symObjAddr: 0x130CC, symBinAddr: 0x1000A95A4, symSize: 0x2FC }
  - { offsetInCU: 0xF62C, offset: 0x56048, size: 0x8, addend: 0x0, symName: __ZNKSt3__16vectorI11PBRMaterialNS_9allocatorIS1_EEE20__throw_length_errorB8ue170006Ev, symObjAddr: 0x133C8, symBinAddr: 0x1000A98A0, symSize: 0x20 }
  - { offsetInCU: 0xF650, offset: 0x5606C, size: 0x8, addend: 0x0, symName: __ZNSt3__16vectorI11PBRMaterialNS_9allocatorIS1_EEE7__allocB8ue170006Ev, symObjAddr: 0x13674, symBinAddr: 0x1000A9B4C, symSize: 0x28 }
  - { offsetInCU: 0xF674, offset: 0x56090, size: 0x8, addend: 0x0, symName: __ZNSt3__16vectorI11PBRMaterialNS_9allocatorIS1_EEE9__end_capB8ue170006Ev, symObjAddr: 0x1369C, symBinAddr: 0x1000A9B74, symSize: 0x28 }
  - { offsetInCU: 0xF698, offset: 0x560B4, size: 0x8, addend: 0x0, symName: __ZNKSt3__16vectorI11PBRMaterialNS_9allocatorIS1_EEE14__annotate_newB8ue170006Em, symObjAddr: 0x136C4, symBinAddr: 0x1000A9B9C, symSize: 0xDC }
  - { offsetInCU: 0xF6CB, offset: 0x560E7, size: 0x8, addend: 0x0, symName: __ZNSt3__116allocator_traitsINS_9allocatorI11PBRMaterialEEE8max_sizeB8ue170006IS3_vEEmRKS3_, symObjAddr: 0x137A0, symBinAddr: 0x1000A9C78, symSize: 0x24 }
  - { offsetInCU: 0xF6F9, offset: 0x56115, size: 0x8, addend: 0x0, symName: __ZNKSt3__19allocatorI11PBRMaterialE8max_sizeB8ue170006Ev, symObjAddr: 0x137C4, symBinAddr: 0x1000A9C9C, symSize: 0x18 }
  - { offsetInCU: 0xF71D, offset: 0x56139, size: 0x8, addend: 0x0, symName: __ZNSt3__19allocatorI11PBRMaterialE8allocateB8ue170006Em, symObjAddr: 0x137DC, symBinAddr: 0x1000A9CB4, symSize: 0x60 }
  - { offsetInCU: 0xF74F, offset: 0x5616B, size: 0x8, addend: 0x0, symName: __ZNSt3__117__compressed_pairIP11PBRMaterialNS_9allocatorIS1_EEE6secondB8ue170006Ev, symObjAddr: 0x1383C, symBinAddr: 0x1000A9D14, symSize: 0x24 }
  - { offsetInCU: 0xF773, offset: 0x5618F, size: 0x8, addend: 0x0, symName: __ZNSt3__122__compressed_pair_elemINS_9allocatorI11PBRMaterialEELi1ELb1EE5__getB8ue170006Ev, symObjAddr: 0x13860, symBinAddr: 0x1000A9D38, symSize: 0x14 }
  - { offsetInCU: 0xF797, offset: 0x561B3, size: 0x8, addend: 0x0, symName: __ZNSt3__117__compressed_pairIP11PBRMaterialNS_9allocatorIS1_EEE5firstB8ue170006Ev, symObjAddr: 0x13874, symBinAddr: 0x1000A9D4C, symSize: 0x24 }
  - { offsetInCU: 0xF7BB, offset: 0x561D7, size: 0x8, addend: 0x0, symName: __ZNSt3__122__compressed_pair_elemIP11PBRMaterialLi0ELb0EE5__getB8ue170006Ev, symObjAddr: 0x13898, symBinAddr: 0x1000A9D70, symSize: 0x14 }
  - { offsetInCU: 0xF7DF, offset: 0x561FB, size: 0x8, addend: 0x0, symName: __ZNKSt3__16vectorI11PBRMaterialNS_9allocatorIS1_EEE31__annotate_contiguous_containerEPKvS6_S6_S6_, symObjAddr: 0x138AC, symBinAddr: 0x1000A9D84, symSize: 0x58 }
  - { offsetInCU: 0xF83F, offset: 0x5625B, size: 0x8, addend: 0x0, symName: __ZNKSt3__16vectorI11PBRMaterialNS_9allocatorIS1_EEE4dataB8ue170006Ev, symObjAddr: 0x13904, symBinAddr: 0x1000A9DDC, symSize: 0x64 }
  - { offsetInCU: 0xF863, offset: 0x5627F, size: 0x8, addend: 0x0, symName: __ZNKSt3__16vectorI11PBRMaterialNS_9allocatorIS1_EEE8capacityB8ue170006Ev, symObjAddr: 0x13968, symBinAddr: 0x1000A9E40, symSize: 0xBC }
  - { offsetInCU: 0xF887, offset: 0x562A3, size: 0x8, addend: 0x0, symName: __ZNKSt3__16vectorI11PBRMaterialNS_9allocatorIS1_EEE9__end_capB8ue170006Ev, symObjAddr: 0x13A38, symBinAddr: 0x1000A9F10, symSize: 0x28 }
  - { offsetInCU: 0xF8AB, offset: 0x562C7, size: 0x8, addend: 0x0, symName: __ZNKSt3__117__compressed_pairIP11PBRMaterialNS_9allocatorIS1_EEE5firstB8ue170006Ev, symObjAddr: 0x13A60, symBinAddr: 0x1000A9F38, symSize: 0x24 }
  - { offsetInCU: 0xF8CF, offset: 0x562EB, size: 0x8, addend: 0x0, symName: __ZNKSt3__122__compressed_pair_elemIP11PBRMaterialLi0ELb0EE5__getB8ue170006Ev, symObjAddr: 0x13A84, symBinAddr: 0x1000A9F5C, symSize: 0x14 }
  - { offsetInCU: 0xF90C, offset: 0x56328, size: 0x8, addend: 0x0, symName: __ZNSt3__16vectorI11PBRMaterialNS_9allocatorIS1_EEE21_ConstructTransactionC1B8ue170006ERS4_m, symObjAddr: 0x13A98, symBinAddr: 0x1000A9F70, symSize: 0x3C }
  - { offsetInCU: 0xF952, offset: 0x5636E, size: 0x8, addend: 0x0, symName: __ZNSt3__16vectorI11PBRMaterialNS_9allocatorIS1_EEE21_ConstructTransactionD1B8ue170006Ev, symObjAddr: 0x13DB0, symBinAddr: 0x1000AA288, symSize: 0x2C }
  - { offsetInCU: 0xF97A, offset: 0x56396, size: 0x8, addend: 0x0, symName: __ZNSt3__16vectorI11PBRMaterialNS_9allocatorIS1_EEE21_ConstructTransactionC2B8ue170006ERS4_m, symObjAddr: 0x13DDC, symBinAddr: 0x1000AA2B4, symSize: 0x1D8 }
  - { offsetInCU: 0xF9C0, offset: 0x563DC, size: 0x8, addend: 0x0, symName: __ZNKSt3__16vectorI11PBRMaterialNS_9allocatorIS1_EEE19__annotate_increaseB8ue170006Em, symObjAddr: 0x13FB4, symBinAddr: 0x1000AA48C, symSize: 0xF8 }
  - { offsetInCU: 0xFA11, offset: 0x5642D, size: 0x8, addend: 0x0, symName: __ZNSt3__14pairIP11PBRMaterialS2_EC1B8ue170006IS2_S2_LPv0EEEOT_OT0_, symObjAddr: 0x146AC, symBinAddr: 0x1000AAB84, symSize: 0x3C }
  - { offsetInCU: 0xFA6D, offset: 0x56489, size: 0x8, addend: 0x0, symName: __ZNSt3__14pairIP11PBRMaterialS2_EC2B8ue170006IS2_S2_LPv0EEEOT_OT0_, symObjAddr: 0x146E8, symBinAddr: 0x1000AABC0, symSize: 0x138 }
  - { offsetInCU: 0xFAC9, offset: 0x564E5, size: 0x8, addend: 0x0, symName: __ZNKSt3__114__copy_trivialclB8ue170006I11PBRMaterialS2_Li0EEENS_4pairIPT_PT0_EES5_S5_S7_, symObjAddr: 0x15488, symBinAddr: 0x1000AB960, symSize: 0x230 }
  - { offsetInCU: 0xFB34, offset: 0x56550, size: 0x8, addend: 0x0, symName: __ZNSt3__14pairIP11PBRMaterialS2_EC1B8ue170006IRS2_S2_LPv0EEEOT_OT0_, symObjAddr: 0x15D14, symBinAddr: 0x1000AC1EC, symSize: 0x3C }
  - { offsetInCU: 0xFB90, offset: 0x565AC, size: 0x8, addend: 0x0, symName: __ZNSt3__14pairIP11PBRMaterialS2_EC2B8ue170006IRS2_S2_LPv0EEEOT_OT0_, symObjAddr: 0x15D50, symBinAddr: 0x1000AC228, symSize: 0x138 }
  - { offsetInCU: 0xFBEC, offset: 0x56608, size: 0x8, addend: 0x0, symName: __ZNSt3__118__unwrap_iter_implIP11PBRMaterialLb1EE8__unwrapB8ue170006ES2_, symObjAddr: 0x15E88, symBinAddr: 0x1000AC360, symSize: 0x24 }
  - { offsetInCU: 0xFC0F, offset: 0x5662B, size: 0x8, addend: 0x0, symName: __ZNSt3__118__unwrap_iter_implIP11PBRMaterialLb1EE8__rewrapB8ue170006ES2_S2_, symObjAddr: 0x15EAC, symBinAddr: 0x1000AC384, symSize: 0x58 }
  - { offsetInCU: 0xFC40, offset: 0x5665C, size: 0x8, addend: 0x0, symName: __ZNSt3__16vectorI11PBRMaterialNS_9allocatorIS1_EEE21_ConstructTransactionD2B8ue170006Ev, symObjAddr: 0x15F04, symBinAddr: 0x1000AC3DC, symSize: 0x278 }
  - { offsetInCU: 0xFC68, offset: 0x56684, size: 0x8, addend: 0x0, symName: __ZNKSt3__16vectorI11PBRMaterialNS_9allocatorIS1_EEE17__annotate_shrinkB8ue170006Em, symObjAddr: 0x1617C, symBinAddr: 0x1000AC654, symSize: 0xE4 }
  - { offsetInCU: 0xFC9B, offset: 0x566B7, size: 0x8, addend: 0x0, symName: __ZNSt3__128__exception_guard_exceptionsINS_6vectorI11PBRMaterialNS_9allocatorIS2_EEE16__destroy_vectorEED2B8ue170006Ev, symObjAddr: 0x16260, symBinAddr: 0x1000AC738, symSize: 0xBC }
  - { offsetInCU: 0xFCC3, offset: 0x566DF, size: 0x8, addend: 0x0, symName: __ZNSt3__16vectorI11PBRMaterialNS_9allocatorIS1_EEE16__destroy_vectorclB8ue170006Ev, symObjAddr: 0x1631C, symBinAddr: 0x1000AC7F4, symSize: 0x228 }
  - { offsetInCU: 0xFCE7, offset: 0x56703, size: 0x8, addend: 0x0, symName: __ZNSt3__16vectorI11PBRMaterialNS_9allocatorIS1_EEE7__clearB8ue170006Ev, symObjAddr: 0x16544, symBinAddr: 0x1000ACA1C, symSize: 0x64 }
  - { offsetInCU: 0xFD0B, offset: 0x56727, size: 0x8, addend: 0x0, symName: __ZNKSt3__16vectorI11PBRMaterialNS_9allocatorIS1_EEE17__annotate_deleteB8ue170006Ev, symObjAddr: 0x165A8, symBinAddr: 0x1000ACA80, symSize: 0xE8 }
  - { offsetInCU: 0xFD2F, offset: 0x5674B, size: 0x8, addend: 0x0, symName: __ZNSt3__116allocator_traitsINS_9allocatorI11PBRMaterialEEE10deallocateB8ue170006ERS3_PS2_m, symObjAddr: 0x16690, symBinAddr: 0x1000ACB68, symSize: 0x34 }
  - { offsetInCU: 0xFD71, offset: 0x5678D, size: 0x8, addend: 0x0, symName: __ZNSt3__16vectorI11PBRMaterialNS_9allocatorIS1_EEE22__base_destruct_at_endB8ue170006EPS1_, symObjAddr: 0x166C4, symBinAddr: 0x1000ACB9C, symSize: 0x114 }
  - { offsetInCU: 0xFDB3, offset: 0x567CF, size: 0x8, addend: 0x0, symName: __ZNSt3__116allocator_traitsINS_9allocatorI11PBRMaterialEEE7destroyB8ue170006IS2_vEEvRS3_PT_, symObjAddr: 0x167D8, symBinAddr: 0x1000ACCB0, symSize: 0x2C }
  - { offsetInCU: 0xFDF0, offset: 0x5680C, size: 0x8, addend: 0x0, symName: __ZNSt3__19allocatorI11PBRMaterialE7destroyB8ue170006EPS1_, symObjAddr: 0x16804, symBinAddr: 0x1000ACCDC, symSize: 0x14 }
  - { offsetInCU: 0xFE22, offset: 0x5683E, size: 0x8, addend: 0x0, symName: __ZNSt3__19allocatorI11PBRMaterialE10deallocateB8ue170006EPS1_m, symObjAddr: 0x16818, symBinAddr: 0x1000ACCF0, symSize: 0x50 }
  - { offsetInCU: 0xFE62, offset: 0x5687E, size: 0x8, addend: 0x0, symName: __ZNSt3__120__shared_ptr_emplaceINS_6vectorI11PBRMaterialNS_9allocatorIS2_EEEENS3_IS5_EEE8_StorageD2B8ue170006Ev, symObjAddr: 0x16868, symBinAddr: 0x1000ACD40, symSize: 0x2C }
  - { offsetInCU: 0xFE8A, offset: 0x568A6, size: 0x8, addend: 0x0, symName: __ZNSt3__120__shared_ptr_emplaceINS_6vectorI11PBRMaterialNS_9allocatorIS2_EEEENS3_IS5_EEED2Ev, symObjAddr: 0x16894, symBinAddr: 0x1000ACD6C, symSize: 0x88 }
  - { offsetInCU: 0xFEB6, offset: 0x568D2, size: 0x8, addend: 0x0, symName: __ZNSt3__16vectorI11PBRMaterialNS_9allocatorIS1_EEED1B8ue170006Ev, symObjAddr: 0x1691C, symBinAddr: 0x1000ACDF4, symSize: 0x2C }
  - { offsetInCU: 0xFEDE, offset: 0x568FA, size: 0x8, addend: 0x0, symName: __ZNSt3__16vectorI11PBRMaterialNS_9allocatorIS1_EEED2B8ue170006Ev, symObjAddr: 0x16948, symBinAddr: 0x1000ACE20, symSize: 0x1F4 }
  - { offsetInCU: 0xFF07, offset: 0x56923, size: 0x8, addend: 0x0, symName: __ZNSt3__120__shared_ptr_emplaceINS_6vectorI11PBRMaterialNS_9allocatorIS2_EEEENS3_IS5_EEE11__get_allocB8ue170006Ev, symObjAddr: 0x16B3C, symBinAddr: 0x1000AD014, symSize: 0x28 }
  - { offsetInCU: 0xFF2B, offset: 0x56947, size: 0x8, addend: 0x0, symName: __ZNSt3__116allocator_traitsINS_9allocatorINS_20__shared_ptr_emplaceINS_6vectorI11PBRMaterialNS1_IS4_EEEENS1_IS6_EEEEEEE10deallocateB8ue170006ERS9_PS8_m, symObjAddr: 0x16B64, symBinAddr: 0x1000AD03C, symSize: 0x34 }
  - { offsetInCU: 0xFF6D, offset: 0x56989, size: 0x8, addend: 0x0, symName: __ZNSt3__114pointer_traitsIPNS_20__shared_ptr_emplaceINS_6vectorI11PBRMaterialNS_9allocatorIS3_EEEENS4_IS6_EEEEE10pointer_toB8ue170006ERS8_, symObjAddr: 0x16B98, symBinAddr: 0x1000AD070, symSize: 0x14 }
  - { offsetInCU: 0xFF90, offset: 0x569AC, size: 0x8, addend: 0x0, symName: __ZNSt3__19allocatorINS_20__shared_ptr_emplaceINS_6vectorI11PBRMaterialNS0_IS3_EEEENS0_IS5_EEEEE10deallocateB8ue170006EPS7_m, symObjAddr: 0x16BAC, symBinAddr: 0x1000AD084, symSize: 0x50 }
  - { offsetInCU: 0xFFD0, offset: 0x569EC, size: 0x8, addend: 0x0, symName: __ZNSt3__110shared_ptrINS_6vectorI11PBRMaterialNS_9allocatorIS2_EEEEEC1B8ue170006Ev, symObjAddr: 0x16BFC, symBinAddr: 0x1000AD0D4, symSize: 0x2C }
  - { offsetInCU: 0xFFF8, offset: 0x56A14, size: 0x8, addend: 0x0, symName: __ZNSt3__110shared_ptrINS_6vectorI11PBRMaterialNS_9allocatorIS2_EEEEE18__enable_weak_thisB8ue170006Ez, symObjAddr: 0x16C28, symBinAddr: 0x1000AD100, symSize: 0x10 }
  - { offsetInCU: 0x1001D, offset: 0x56A39, size: 0x8, addend: 0x0, symName: __ZNSt3__110shared_ptrINS_6vectorI11PBRMaterialNS_9allocatorIS2_EEEEEC2B8ue170006Ev, symObjAddr: 0x16C38, symBinAddr: 0x1000AD110, symSize: 0x9C }
  - { offsetInCU: 0x10045, offset: 0x56A61, size: 0x8, addend: 0x0, symName: __ZNSt3__120__shared_ptr_emplaceINS_6vectorI11PBRMaterialNS_9allocatorIS2_EEEENS3_IS5_EEE8_Storage10__get_elemB8ue170006Ev, symObjAddr: 0x16CD4, symBinAddr: 0x1000AD1AC, symSize: 0x3C }
  - { offsetInCU: 0x10096, offset: 0x56AB2, size: 0x8, addend: 0x0, symName: __ZNSt3__117__compressed_pairINS_9allocatorINS_6vectorI11PBRMaterialNS1_IS3_EEEEEES5_E17__get_second_baseB8ue170006EPS7_, symObjAddr: 0x16D10, symBinAddr: 0x1000AD1E8, symSize: 0x14 }
  - { offsetInCU: 0x100B9, offset: 0x56AD5, size: 0x8, addend: 0x0, symName: __ZNSt3__118__allocation_guardINS_9allocatorINS_20__shared_ptr_emplaceINS_6vectorI11PBRMaterialNS1_IS4_EEEENS1_IS6_EEEEEEED2B8ue170006Ev, symObjAddr: 0x16D24, symBinAddr: 0x1000AD1FC, symSize: 0x2C }
  - { offsetInCU: 0x100E1, offset: 0x56AFD, size: 0x8, addend: 0x0, symName: __ZNSt3__118__allocation_guardINS_9allocatorINS_20__shared_ptr_emplaceINS_6vectorI11PBRMaterialNS1_IS4_EEEENS1_IS6_EEEEEEE9__destroyB8ue170006Ev, symObjAddr: 0x16D50, symBinAddr: 0x1000AD228, symSize: 0xFC }
  - { offsetInCU: 0x10105, offset: 0x56B21, size: 0x8, addend: 0x0, symName: __ZNSt3__19allocatorINS_6vectorI11PBRMaterialNS0_IS2_EEEEEC2B8ue170006Ev, symObjAddr: 0x16E4C, symBinAddr: 0x1000AD324, symSize: 0x2C }
  - { offsetInCU: 0x1012D, offset: 0x56B49, size: 0x8, addend: 0x0, symName: __ZNSt3__116__non_trivial_ifILb1ENS_9allocatorINS_6vectorI11PBRMaterialNS1_IS3_EEEEEEEC2B8ue170006Ev, symObjAddr: 0x16E78, symBinAddr: 0x1000AD350, symSize: 0x14 }
  - { offsetInCU: 0x1015B, offset: 0x56B77, size: 0x8, addend: 0x0, symName: __ZNSt3__116__variant_detail8__access9__variant9__get_altB8ue170006ILm0ERNS_7variantIJ10PointLightEEEEEODaOT0_, symObjAddr: 0x16F5C, symBinAddr: 0x1000AD434, symSize: 0x24 }
  - { offsetInCU: 0x10192, offset: 0x56BAE, size: 0x8, addend: 0x0, symName: __ZNKSt3__17variantIJ10PointLightEE5indexB8ue170006Ev, symObjAddr: 0x16F80, symBinAddr: 0x1000AD458, symSize: 0x24 }
  - { offsetInCU: 0x101B6, offset: 0x56BD2, size: 0x8, addend: 0x0, symName: __ZNKSt3__116__variant_detail6__baseILNS0_6_TraitE0EJ10PointLightEE5indexB8ue170006Ev, symObjAddr: 0x16FA4, symBinAddr: 0x1000AD47C, symSize: 0x11C }
  - { offsetInCU: 0x101DA, offset: 0x56BF6, size: 0x8, addend: 0x0, symName: __ZNSt3__116__variant_detail8__access6__base9__get_altB8ue170006ILm0ERNS0_6__implIJ10PointLightEEEEEODaOT0_, symObjAddr: 0x170C0, symBinAddr: 0x1000AD598, symSize: 0x24 }
  - { offsetInCU: 0x10211, offset: 0x56C2D, size: 0x8, addend: 0x0, symName: __ZNSt3__116__variant_detail8__access7__union9__get_altB8ue170006IRNS0_7__unionILNS0_6_TraitE0ELm0EJ10PointLightEEEEEODaOT_NS_16in_place_index_tILm0EEE, symObjAddr: 0x170E4, symBinAddr: 0x1000AD5BC, symSize: 0x14 }
  - { offsetInCU: 0x1024A, offset: 0x56C66, size: 0x8, addend: 0x0, symName: __ZN3glm3vecILi4EfLNS_9qualifierE0EEC2IffLS1_0EEERKNS0_ILi3ET_XT1_EEET0_, symObjAddr: 0x170F8, symBinAddr: 0x1000AD5D0, symSize: 0x320 }
  - { offsetInCU: 0x102AE, offset: 0x56CCA, size: 0x8, addend: 0x0, symName: __ZN8RendererD2Ev, symObjAddr: 0x17418, symBinAddr: 0x1000AD8F0, symSize: 0x94 }
  - { offsetInCU: 0x102D6, offset: 0x56CF2, size: 0x8, addend: 0x0, symName: __ZNSt3__110shared_ptrI17PerspectiveCameraED1B8ue170006Ev, symObjAddr: 0x174AC, symBinAddr: 0x1000AD984, symSize: 0x2C }
  - { offsetInCU: 0x102FE, offset: 0x56D1A, size: 0x8, addend: 0x0, symName: __ZN5LayerD2Ev, symObjAddr: 0x174D8, symBinAddr: 0x1000AD9B0, symSize: 0x80 }
  - { offsetInCU: 0x10326, offset: 0x56D42, size: 0x8, addend: 0x0, symName: __ZNSt3__110shared_ptrI17PerspectiveCameraED2B8ue170006Ev, symObjAddr: 0x17558, symBinAddr: 0x1000ADA30, symSize: 0xC8 }
  - { offsetInCU: 0x1034E, offset: 0x56D6A, size: 0x8, addend: 0x0, symName: __ZNSt3__110shared_ptrINS_6vectorI11PBRMaterialNS_9allocatorIS2_EEEEED2B8ue170006Ev, symObjAddr: 0x177D4, symBinAddr: 0x1000ADAF8, symSize: 0xC8 }
  - { offsetInCU: 0x10376, offset: 0x56D92, size: 0x8, addend: 0x0, symName: __ZNSt3__110shared_ptrI5ImageED2B8ue170006Ev, symObjAddr: 0x1789C, symBinAddr: 0x1000ADBC0, symSize: 0xC8 }
  - { offsetInCU: 0x1039E, offset: 0x56DBA, size: 0x8, addend: 0x0, symName: __ZNSt3__110shared_ptrINS_6vectorINS_7variantIJ10PointLightEEENS_9allocatorIS4_EEEEED2B8ue170006Ev, symObjAddr: 0x17964, symBinAddr: 0x1000ADC88, symSize: 0xC8 }
  - { offsetInCU: 0x103C6, offset: 0x56DE2, size: 0x8, addend: 0x0, symName: __ZNSt3__110shared_ptrI5SceneED2B8ue170006Ev, symObjAddr: 0x17A2C, symBinAddr: 0x1000ADD50, symSize: 0xC8 }
  - { offsetInCU: 0x103EE, offset: 0x56E0A, size: 0x8, addend: 0x0, symName: __ZNSt3__112basic_stringIcNS_11char_traitsIcEENS_9allocatorIcEEEC2B8ue170006ILi0EEEPKc, symObjAddr: 0x17AF4, symBinAddr: 0x1000ADE18, symSize: 0x210 }
  - { offsetInCU: 0x1042E, offset: 0x56E4A, size: 0x8, addend: 0x0, symName: __ZNSt3__110shared_ptrI17PerspectiveCameraEC1B8ue170006ERKS2_, symObjAddr: 0x17E60, symBinAddr: 0x1000AE028, symSize: 0x34 }
  - { offsetInCU: 0x10465, offset: 0x56E81, size: 0x8, addend: 0x0, symName: __ZNSt3__110shared_ptrI17PerspectiveCameraE4swapB8ue170006ERS2_, symObjAddr: 0x17E94, symBinAddr: 0x1000AE05C, symSize: 0x44 }
  - { offsetInCU: 0x10498, offset: 0x56EB4, size: 0x8, addend: 0x0, symName: __ZNSt3__110shared_ptrI17PerspectiveCameraEC2B8ue170006ERKS2_, symObjAddr: 0x17ED8, symBinAddr: 0x1000AE0A0, symSize: 0x1CC }
  - { offsetInCU: 0x104CF, offset: 0x56EEB, size: 0x8, addend: 0x0, symName: __ZNSt3__110shared_ptrI5ImageEC1B8ue170006Ev, symObjAddr: 0x183D8, symBinAddr: 0x1000AE4D4, symSize: 0x2C }
  - { offsetInCU: 0x104F7, offset: 0x56F13, size: 0x8, addend: 0x0, symName: __ZNSt3__110shared_ptrI5ImageE4swapB8ue170006ERS2_, symObjAddr: 0x18404, symBinAddr: 0x1000AE500, symSize: 0x44 }
  - { offsetInCU: 0x1052A, offset: 0x56F46, size: 0x8, addend: 0x0, symName: __ZNSt3__110shared_ptrI5ImageEC2B8ue170006Ev, symObjAddr: 0x18448, symBinAddr: 0x1000AE544, symSize: 0x9C }
  - { offsetInCU: 0x10552, offset: 0x56F6E, size: 0x8, addend: 0x0, symName: __ZNKSt3__110shared_ptrI5ImageE3getB8ue170006Ev, symObjAddr: 0x18618, symBinAddr: 0x1000AE714, symSize: 0x60 }
  - { offsetInCU: 0x10576, offset: 0x56F92, size: 0x8, addend: 0x0, symName: __ZNSt3__19allocatorI5ImageEC1B8ue170006Ev, symObjAddr: 0x18988, symBinAddr: 0x1000AEA84, symSize: 0x2C }
  - { offsetInCU: 0x105E9, offset: 0x57005, size: 0x8, addend: 0x0, symName: __ZNSt3__118__allocation_guardINS_9allocatorINS_20__shared_ptr_emplaceI5ImageNS1_IS3_EEEEEEEC1B8ue170006IS4_EET_m, symObjAddr: 0x189B4, symBinAddr: 0x1000AEAB0, symSize: 0x34 }
  - { offsetInCU: 0x10636, offset: 0x57052, size: 0x8, addend: 0x0, symName: __ZNKSt3__118__allocation_guardINS_9allocatorINS_20__shared_ptr_emplaceI5ImageNS1_IS3_EEEEEEE5__getB8ue170006Ev, symObjAddr: 0x189E8, symBinAddr: 0x1000AEAE4, symSize: 0x64 }
  - { offsetInCU: 0x10664, offset: 0x57080, size: 0x8, addend: 0x0, symName: __ZNSt3__120__shared_ptr_emplaceI5ImageNS_9allocatorIS1_EEEC1B8ue170006IJRjS6_11ImageFormatEEES3_DpOT_, symObjAddr: 0x18A4C, symBinAddr: 0x1000AEB48, symSize: 0x44 }
  - { offsetInCU: 0x106E1, offset: 0x570FD, size: 0x8, addend: 0x0, symName: __ZNSt3__118__allocation_guardINS_9allocatorINS_20__shared_ptr_emplaceI5ImageNS1_IS3_EEEEEEE13__release_ptrB8ue170006Ev, symObjAddr: 0x18A90, symBinAddr: 0x1000AEB8C, symSize: 0xA8 }
  - { offsetInCU: 0x10713, offset: 0x5712F, size: 0x8, addend: 0x0, symName: __ZNSt3__110shared_ptrI5ImageE27__create_with_control_blockB8ue170006IS1_NS_20__shared_ptr_emplaceIS1_NS_9allocatorIS1_EEEEEES2_PT_PT0_, symObjAddr: 0x18B38, symBinAddr: 0x1000AEC34, symSize: 0x188 }
  - { offsetInCU: 0x10768, offset: 0x57184, size: 0x8, addend: 0x0, symName: __ZNSt3__120__shared_ptr_emplaceI5ImageNS_9allocatorIS1_EEE10__get_elemB8ue170006Ev, symObjAddr: 0x18CC0, symBinAddr: 0x1000AEDBC, symSize: 0x28 }
  - { offsetInCU: 0x1078C, offset: 0x571A8, size: 0x8, addend: 0x0, symName: __ZNSt3__118__allocation_guardINS_9allocatorINS_20__shared_ptr_emplaceI5ImageNS1_IS3_EEEEEEED1B8ue170006Ev, symObjAddr: 0x18CE8, symBinAddr: 0x1000AEDE4, symSize: 0x2C }
  - { offsetInCU: 0x107B4, offset: 0x571D0, size: 0x8, addend: 0x0, symName: __ZNSt3__118__allocation_guardINS_9allocatorINS_20__shared_ptr_emplaceI5ImageNS1_IS3_EEEEEEEC2B8ue170006IS4_EET_m, symObjAddr: 0x18D14, symBinAddr: 0x1000AEE10, symSize: 0x28C }
  - { offsetInCU: 0x10807, offset: 0x57223, size: 0x8, addend: 0x0, symName: __ZNSt3__19allocatorINS_20__shared_ptr_emplaceI5ImageNS0_IS2_EEEEEC1B8ue170006IS2_EERKNS0_IT_EE, symObjAddr: 0x18FA0, symBinAddr: 0x1000AF09C, symSize: 0x34 }
  - { offsetInCU: 0x10843, offset: 0x5725F, size: 0x8, addend: 0x0, symName: __ZNSt3__116allocator_traitsINS_9allocatorINS_20__shared_ptr_emplaceI5ImageNS1_IS3_EEEEEEE8allocateB8ue170006ERS6_m, symObjAddr: 0x18FD4, symBinAddr: 0x1000AF0D0, symSize: 0x2C }
  - { offsetInCU: 0x10876, offset: 0x57292, size: 0x8, addend: 0x0, symName: __ZNSt3__19allocatorINS_20__shared_ptr_emplaceI5ImageNS0_IS2_EEEEEC2B8ue170006IS2_EERKNS0_IT_EE, symObjAddr: 0x19000, symBinAddr: 0x1000AF0FC, symSize: 0x30 }
  - { offsetInCU: 0x108B2, offset: 0x572CE, size: 0x8, addend: 0x0, symName: __ZNSt3__116__non_trivial_ifILb1ENS_9allocatorINS_20__shared_ptr_emplaceI5ImageNS1_IS3_EEEEEEEC2B8ue170006Ev, symObjAddr: 0x19030, symBinAddr: 0x1000AF12C, symSize: 0x14 }
  - { offsetInCU: 0x108DB, offset: 0x572F7, size: 0x8, addend: 0x0, symName: __ZNSt3__19allocatorINS_20__shared_ptr_emplaceI5ImageNS0_IS2_EEEEE8allocateB8ue170006Em, symObjAddr: 0x19044, symBinAddr: 0x1000AF140, symSize: 0x60 }
  - { offsetInCU: 0x10917, offset: 0x57333, size: 0x8, addend: 0x0, symName: __ZNSt3__116allocator_traitsINS_9allocatorINS_20__shared_ptr_emplaceI5ImageNS1_IS3_EEEEEEE8max_sizeB8ue170006IS6_vEEmRKS6_, symObjAddr: 0x190A4, symBinAddr: 0x1000AF1A0, symSize: 0x24 }
  - { offsetInCU: 0x10945, offset: 0x57361, size: 0x8, addend: 0x0, symName: __ZNKSt3__19allocatorINS_20__shared_ptr_emplaceI5ImageNS0_IS2_EEEEE8max_sizeB8ue170006Ev, symObjAddr: 0x190C8, symBinAddr: 0x1000AF1C4, symSize: 0x18 }
  - { offsetInCU: 0x10969, offset: 0x57385, size: 0x8, addend: 0x0, symName: __ZNSt3__120__shared_ptr_emplaceI5ImageNS_9allocatorIS1_EEEC2B8ue170006IJRjS6_11ImageFormatEEES3_DpOT_, symObjAddr: 0x190E0, symBinAddr: 0x1000AF1DC, symSize: 0x42C }
  - { offsetInCU: 0x109EE, offset: 0x5740A, size: 0x8, addend: 0x0, symName: __ZNSt3__120__shared_ptr_emplaceI5ImageNS_9allocatorIS1_EEE8_StorageC1B8ue170006EOS3_, symObjAddr: 0x1950C, symBinAddr: 0x1000AF608, symSize: 0x34 }
  - { offsetInCU: 0x10A25, offset: 0x57441, size: 0x8, addend: 0x0, symName: __ZNSt3__120__shared_ptr_emplaceI5ImageNS_9allocatorIS1_EEE8_StorageD1B8ue170006Ev, symObjAddr: 0x19540, symBinAddr: 0x1000AF63C, symSize: 0x2C }
  - { offsetInCU: 0x10A4D, offset: 0x57469, size: 0x8, addend: 0x0, symName: __ZNSt3__120__shared_ptr_emplaceI5ImageNS_9allocatorIS1_EEED1Ev, symObjAddr: 0x1956C, symBinAddr: 0x1000AF668, symSize: 0x2C }
  - { offsetInCU: 0x10A79, offset: 0x57495, size: 0x8, addend: 0x0, symName: __ZNSt3__120__shared_ptr_emplaceI5ImageNS_9allocatorIS1_EEED0Ev, symObjAddr: 0x19598, symBinAddr: 0x1000AF694, symSize: 0x30 }
  - { offsetInCU: 0x10AA5, offset: 0x574C1, size: 0x8, addend: 0x0, symName: __ZNSt3__120__shared_ptr_emplaceI5ImageNS_9allocatorIS1_EEE16__on_zero_sharedEv, symObjAddr: 0x195C8, symBinAddr: 0x1000AF6C4, symSize: 0x28 }
  - { offsetInCU: 0x10AC9, offset: 0x574E5, size: 0x8, addend: 0x0, symName: __ZNSt3__120__shared_ptr_emplaceI5ImageNS_9allocatorIS1_EEE21__on_zero_shared_weakEv, symObjAddr: 0x195F0, symBinAddr: 0x1000AF6EC, symSize: 0x208 }
  - { offsetInCU: 0x10B0D, offset: 0x57529, size: 0x8, addend: 0x0, symName: __ZNSt3__120__shared_ptr_emplaceI5ImageNS_9allocatorIS1_EEE8_StorageC2B8ue170006EOS3_, symObjAddr: 0x197F8, symBinAddr: 0x1000AF8F4, symSize: 0x30 }
  - { offsetInCU: 0x10B44, offset: 0x57560, size: 0x8, addend: 0x0, symName: __ZNSt3__120__shared_ptr_emplaceI5ImageNS_9allocatorIS1_EEE8_Storage11__get_allocB8ue170006Ev, symObjAddr: 0x19828, symBinAddr: 0x1000AF924, symSize: 0x3C }
  - { offsetInCU: 0x10B95, offset: 0x575B1, size: 0x8, addend: 0x0, symName: __ZNSt3__117__compressed_pairINS_9allocatorI5ImageEES2_E16__get_first_baseB8ue170006EPS4_, symObjAddr: 0x19864, symBinAddr: 0x1000AF960, symSize: 0x14 }
  - { offsetInCU: 0x10BB8, offset: 0x575D4, size: 0x8, addend: 0x0, symName: __ZNSt3__120__shared_ptr_emplaceI5ImageNS_9allocatorIS1_EEE8_StorageD2B8ue170006Ev, symObjAddr: 0x19878, symBinAddr: 0x1000AF974, symSize: 0x2C }
  - { offsetInCU: 0x10BE0, offset: 0x575FC, size: 0x8, addend: 0x0, symName: __ZNSt3__120__shared_ptr_emplaceI5ImageNS_9allocatorIS1_EEED2Ev, symObjAddr: 0x198A4, symBinAddr: 0x1000AF9A0, symSize: 0x88 }
  - { offsetInCU: 0x10C0C, offset: 0x57628, size: 0x8, addend: 0x0, symName: __ZNSt3__120__shared_ptr_emplaceI5ImageNS_9allocatorIS1_EEE11__get_allocB8ue170006Ev, symObjAddr: 0x1992C, symBinAddr: 0x1000AFA28, symSize: 0x28 }
  - { offsetInCU: 0x10C30, offset: 0x5764C, size: 0x8, addend: 0x0, symName: __ZNSt3__116allocator_traitsINS_9allocatorINS_20__shared_ptr_emplaceI5ImageNS1_IS3_EEEEEEE10deallocateB8ue170006ERS6_PS5_m, symObjAddr: 0x19954, symBinAddr: 0x1000AFA50, symSize: 0x34 }
  - { offsetInCU: 0x10C72, offset: 0x5768E, size: 0x8, addend: 0x0, symName: __ZNSt3__114pointer_traitsIPNS_20__shared_ptr_emplaceI5ImageNS_9allocatorIS2_EEEEE10pointer_toB8ue170006ERS5_, symObjAddr: 0x19988, symBinAddr: 0x1000AFA84, symSize: 0x14 }
  - { offsetInCU: 0x10C95, offset: 0x576B1, size: 0x8, addend: 0x0, symName: __ZNSt3__19allocatorINS_20__shared_ptr_emplaceI5ImageNS0_IS2_EEEEE10deallocateB8ue170006EPS4_m, symObjAddr: 0x1999C, symBinAddr: 0x1000AFA98, symSize: 0x50 }
  - { offsetInCU: 0x10CD5, offset: 0x576F1, size: 0x8, addend: 0x0, symName: __ZNSt3__110shared_ptrI5ImageE18__enable_weak_thisB8ue170006Ez, symObjAddr: 0x199EC, symBinAddr: 0x1000AFAE8, symSize: 0x10 }
  - { offsetInCU: 0x10CFA, offset: 0x57716, size: 0x8, addend: 0x0, symName: __ZNSt3__120__shared_ptr_emplaceI5ImageNS_9allocatorIS1_EEE8_Storage10__get_elemB8ue170006Ev, symObjAddr: 0x199FC, symBinAddr: 0x1000AFAF8, symSize: 0x3C }
  - { offsetInCU: 0x10D4B, offset: 0x57767, size: 0x8, addend: 0x0, symName: __ZNSt3__117__compressed_pairINS_9allocatorI5ImageEES2_E17__get_second_baseB8ue170006EPS4_, symObjAddr: 0x19A38, symBinAddr: 0x1000AFB34, symSize: 0x14 }
  - { offsetInCU: 0x10D6E, offset: 0x5778A, size: 0x8, addend: 0x0, symName: __ZNSt3__118__allocation_guardINS_9allocatorINS_20__shared_ptr_emplaceI5ImageNS1_IS3_EEEEEEED2B8ue170006Ev, symObjAddr: 0x19A4C, symBinAddr: 0x1000AFB48, symSize: 0x2C }
  - { offsetInCU: 0x10D96, offset: 0x577B2, size: 0x8, addend: 0x0, symName: __ZNSt3__118__allocation_guardINS_9allocatorINS_20__shared_ptr_emplaceI5ImageNS1_IS3_EEEEEEE9__destroyB8ue170006Ev, symObjAddr: 0x19A78, symBinAddr: 0x1000AFB74, symSize: 0xFC }
  - { offsetInCU: 0x10DBA, offset: 0x577D6, size: 0x8, addend: 0x0, symName: __ZNSt3__19allocatorI5ImageEC2B8ue170006Ev, symObjAddr: 0x19B74, symBinAddr: 0x1000AFC70, symSize: 0x2C }
  - { offsetInCU: 0x10DE2, offset: 0x577FE, size: 0x8, addend: 0x0, symName: __ZNSt3__116__non_trivial_ifILb1ENS_9allocatorI5ImageEEEC2B8ue170006Ev, symObjAddr: 0x19BA0, symBinAddr: 0x1000AFC9C, symSize: 0x14 }
  - { offsetInCU: 0x10E0B, offset: 0x57827, size: 0x8, addend: 0x0, symName: __ZNSt3__110shared_ptrI5ImageEC1B8ue170006EOS2_, symObjAddr: 0x19BB4, symBinAddr: 0x1000AFCB0, symSize: 0x34 }
  - { offsetInCU: 0x10E42, offset: 0x5785E, size: 0x8, addend: 0x0, symName: __ZNSt3__110shared_ptrI5ImageEC2B8ue170006EOS2_, symObjAddr: 0x19BE8, symBinAddr: 0x1000AFCE4, symSize: 0x1B8 }
  - { offsetInCU: 0x10E79, offset: 0x57895, size: 0x8, addend: 0x0, symName: __ZNSt3__110shared_ptrI5SceneEC1B8ue170006ERKS2_, symObjAddr: 0x19DA0, symBinAddr: 0x1000AFE9C, symSize: 0x34 }
  - { offsetInCU: 0x10EB0, offset: 0x578CC, size: 0x8, addend: 0x0, symName: __ZNSt3__110shared_ptrI5SceneE4swapB8ue170006ERS2_, symObjAddr: 0x19DD4, symBinAddr: 0x1000AFED0, symSize: 0x44 }
  - { offsetInCU: 0x10EE3, offset: 0x578FF, size: 0x8, addend: 0x0, symName: __ZNSt3__110shared_ptrI5SceneEC2B8ue170006ERKS2_, symObjAddr: 0x19E18, symBinAddr: 0x1000AFF14, symSize: 0x1CC }
  - { offsetInCU: 0x10F1A, offset: 0x57936, size: 0x8, addend: 0x0, symName: __ZNKSt3__16vectorI11PBRMaterialNS_9allocatorIS1_EEE20__throw_out_of_rangeB8ue170006Ev, symObjAddr: 0x1A118, symBinAddr: 0x1000B0214, symSize: 0x20 }
  - { offsetInCU: 0x10F3E, offset: 0x5795A, size: 0x8, addend: 0x0, symName: __ZNKSt3__16vectorINS_7variantIJ10PointLightEEENS_9allocatorIS3_EEE20__throw_out_of_rangeB8ue170006Ev, symObjAddr: 0x1A260, symBinAddr: 0x1000B0234, symSize: 0x20 }
  - { offsetInCU: 0x3B, offset: 0x57B0C, size: 0x8, addend: 0x0, symName: _.str, symObjAddr: 0x29420, symBinAddr: 0x1004F20E0, symSize: 0x0 }
  - { offsetInCU: 0x6B, offset: 0x57B3C, size: 0x8, addend: 0x0, symName: _.str.1, symObjAddr: 0x29440, symBinAddr: 0x1004F2100, symSize: 0x0 }
  - { offsetInCU: 0x88, offset: 0x57B59, size: 0x8, addend: 0x0, symName: _.str.2, symObjAddr: 0x29480, symBinAddr: 0x1004F2140, symSize: 0x0 }
  - { offsetInCU: 0xA5, offset: 0x57B76, size: 0x8, addend: 0x0, symName: _.str.3, symObjAddr: 0x294A0, symBinAddr: 0x1004F2160, symSize: 0x0 }
  - { offsetInCU: 0xC2, offset: 0x57B93, size: 0x8, addend: 0x0, symName: _.str.4, symObjAddr: 0x294E0, symBinAddr: 0x1004F21A0, symSize: 0x0 }
  - { offsetInCU: 0xDF, offset: 0x57BB0, size: 0x8, addend: 0x0, symName: _.str.5, symObjAddr: 0x29500, symBinAddr: 0x1004F21C0, symSize: 0x0 }
  - { offsetInCU: 0xFC, offset: 0x57BCD, size: 0x8, addend: 0x0, symName: _.str.6, symObjAddr: 0x29520, symBinAddr: 0x1004F21E0, symSize: 0x0 }
  - { offsetInCU: 0x119, offset: 0x57BEA, size: 0x8, addend: 0x0, symName: _.str.7, symObjAddr: 0x29540, symBinAddr: 0x1004F2200, symSize: 0x0 }
  - { offsetInCU: 0x12A, offset: 0x57BFB, size: 0x8, addend: 0x0, symName: _.str.8, symObjAddr: 0x29560, symBinAddr: 0x1004F2220, symSize: 0x0 }
  - { offsetInCU: 0x13C, offset: 0x57C0D, size: 0x8, addend: 0x0, symName: _.str.9, symObjAddr: 0x29580, symBinAddr: 0x1004F2240, symSize: 0x0 }
  - { offsetInCU: 0x159, offset: 0x57C2A, size: 0x8, addend: 0x0, symName: _.str.10, symObjAddr: 0x295A0, symBinAddr: 0x1004F2260, symSize: 0x0 }
  - { offsetInCU: 0x16A, offset: 0x57C3B, size: 0x8, addend: 0x0, symName: _.str.11, symObjAddr: 0x295C0, symBinAddr: 0x1004F2280, symSize: 0x0 }
  - { offsetInCU: 0x17B, offset: 0x57C4C, size: 0x8, addend: 0x0, symName: _.str.12, symObjAddr: 0x295E0, symBinAddr: 0x1004F22A0, symSize: 0x0 }
  - { offsetInCU: 0x18C, offset: 0x57C5D, size: 0x8, addend: 0x0, symName: _.str.13, symObjAddr: 0x29600, symBinAddr: 0x1004F22C0, symSize: 0x0 }
  - { offsetInCU: 0x19D, offset: 0x57C6E, size: 0x8, addend: 0x0, symName: _.str.14, symObjAddr: 0x29620, symBinAddr: 0x1004F22E0, symSize: 0x0 }
  - { offsetInCU: 0x1AE, offset: 0x57C7F, size: 0x8, addend: 0x0, symName: _.str.15, symObjAddr: 0x29640, symBinAddr: 0x1004F2300, symSize: 0x0 }
  - { offsetInCU: 0x20C, offset: 0x57CDD, size: 0x8, addend: 0x0, symName: __ZNSt3__18in_placeE, symObjAddr: 0x29848, symBinAddr: 0x1004E7CE5, symSize: 0x0 }
  - { offsetInCU: 0x7273, offset: 0x5ED44, size: 0x8, addend: 0x0, symName: __ZNSt3__16copy_nB8ue170006IPKcmPcEENS_9enable_ifIXsr37__has_random_access_iterator_categoryIT_EE5valueET1_E4typeES5_T0_S6_, symObjAddr: 0x1A0E0, symBinAddr: 0x1000C426C, symSize: 0x44 }
  - { offsetInCU: 0x8A66, offset: 0x60537, size: 0x8, addend: 0x0, symName: __ZNSt3__1plB8ue170006IcNS_11char_traitsIcEENS_9allocatorIcEEEENS_12basic_stringIT_T0_T1_EEOS9_PKS6_, symObjAddr: 0x1F80, symBinAddr: 0x1000B1F94, symSize: 0x40 }
  - { offsetInCU: 0x8ABE, offset: 0x6058F, size: 0x8, addend: 0x0, symName: __ZNSt3__1plB8ue170006IcNS_11char_traitsIcEENS_9allocatorIcEEEENS_12basic_stringIT_T0_T1_EERKS9_OS9_, symObjAddr: 0x1FC0, symBinAddr: 0x1000B1FD4, symSize: 0x44 }
  - { offsetInCU: 0x8B16, offset: 0x605E7, size: 0x8, addend: 0x0, symName: __ZNSt3__1plB8ue170006IcNS_11char_traitsIcEENS_9allocatorIcEEEENS_12basic_stringIT_T0_T1_EERKS9_PKS6_, symObjAddr: 0x2004, symBinAddr: 0x1000B2018, symSize: 0x2E8 }
  - { offsetInCU: 0x8BBD, offset: 0x6068E, size: 0x8, addend: 0x0, symName: __ZNSt3__111make_sharedB8ue170006I5SceneJRS1_EvEENS_10shared_ptrIT_EEDpOT0_, symObjAddr: 0x24C4, symBinAddr: 0x1000B2404, symSize: 0x1E8 }
  - { offsetInCU: 0x8E59, offset: 0x6092A, size: 0x8, addend: 0x0, symName: __ZNSt3__142__uninitialized_allocator_move_if_noexceptB8ue170006INS_9allocatorI11SceneObjectEENS_16reverse_iteratorIPS2_EES6_S2_vEET1_RT_T0_SA_S7_, symObjAddr: 0x8C20, symBinAddr: 0x1000B4D2C, symSize: 0x4A8 }
  - { offsetInCU: 0x8EE4, offset: 0x609B5, size: 0x8, addend: 0x0, symName: __ZNSt3__14swapB8ue170006IP11SceneObjectEENS_9enable_ifIXaasr21is_move_constructibleIT_EE5valuesr18is_move_assignableIS4_EE5valueEvE4typeERS4_S7_, symObjAddr: 0x9160, symBinAddr: 0x1000B526C, symSize: 0x134 }
  - { offsetInCU: 0x8F35, offset: 0x60A06, size: 0x8, addend: 0x0, symName: __ZNSt3__14moveB8ue170006INS_16reverse_iteratorIP11SceneObjectEES4_EET0_T_S6_S5_, symObjAddr: 0x9370, symBinAddr: 0x1000B53A0, symSize: 0x4B0 }
  - { offsetInCU: 0x8F9C, offset: 0x60A6D, size: 0x8, addend: 0x0, symName: __ZNSt3__16__moveB8ue170006INS_17_ClassicAlgPolicyENS_16reverse_iteratorIP11SceneObjectEES5_S5_EENS_4pairIT0_T2_EES7_T1_S8_, symObjAddr: 0x9820, symBinAddr: 0x1000B5850, symSize: 0x424 }
  - { offsetInCU: 0x9014, offset: 0x60AE5, size: 0x8, addend: 0x0, symName: __ZNSt3__123__dispatch_copy_or_moveB8ue170006INS_17_ClassicAlgPolicyENS_11__move_loopIS1_EENS_14__move_trivialENS_16reverse_iteratorIP11SceneObjectEES8_S8_EENS_4pairIT2_T4_EESA_T3_SB_, symObjAddr: 0x9C44, symBinAddr: 0x1000B5C74, symSize: 0x424 }
  - { offsetInCU: 0x909E, offset: 0x60B6F, size: 0x8, addend: 0x0, symName: __ZNSt3__121__unwrap_and_dispatchB8ue170006INS_10__overloadINS_11__move_loopINS_17_ClassicAlgPolicyEEENS_14__move_trivialEEENS_16reverse_iteratorIP11SceneObjectEESA_SA_Li0EEENS_4pairIT0_T2_EESC_T1_SD_, symObjAddr: 0xA068, symBinAddr: 0x1000B6098, symSize: 0x880 }
  - { offsetInCU: 0x9143, offset: 0x60C14, size: 0x8, addend: 0x0, symName: __ZNSt3__114__unwrap_rangeB8ue170006INS_16reverse_iteratorIP11SceneObjectEES4_EENS_4pairIT0_S6_EET_S8_, symObjAddr: 0xA8E8, symBinAddr: 0x1000B6918, symSize: 0x448 }
  - { offsetInCU: 0x933B, offset: 0x60E0C, size: 0x8, addend: 0x0, symName: __ZNSt3__113__unwrap_iterB8ue170006INS_16reverse_iteratorIP11SceneObjectEENS_18__unwrap_iter_implIS4_Lb0EEELi0EEEDTclsrT0_8__unwrapclsr3stdE7declvalIT_EEEES8_, symObjAddr: 0xB074, symBinAddr: 0x1000B70A4, symSize: 0x2EC }
  - { offsetInCU: 0x9384, offset: 0x60E55, size: 0x8, addend: 0x0, symName: __ZNSt3__19make_pairB8ue170006INS_16reverse_iteratorIP11SceneObjectEES4_EENS_4pairINS_18__unwrap_ref_decayIT_E4typeENS6_IT0_E4typeEEEOS7_OSA_, symObjAddr: 0xB360, symBinAddr: 0x1000B7390, symSize: 0x38 }
  - { offsetInCU: 0x93D3, offset: 0x60EA4, size: 0x8, addend: 0x0, symName: __ZNSt3__114__rewrap_rangeB8ue170006INS_16reverse_iteratorIP11SceneObjectEES4_EET_S5_T0_, symObjAddr: 0xB398, symBinAddr: 0x1000B73C8, symSize: 0x3D4 }
  - { offsetInCU: 0x9427, offset: 0x60EF8, size: 0x8, addend: 0x0, symName: __ZNSt3__113__rewrap_iterB8ue170006INS_16reverse_iteratorIP11SceneObjectEES4_NS_18__unwrap_iter_implIS4_Lb0EEEEET_S7_T0_, symObjAddr: 0xB76C, symBinAddr: 0x1000B779C, symSize: 0x3E8 }
  - { offsetInCU: 0x9484, offset: 0x60F55, size: 0x8, addend: 0x0, symName: __ZNSt3__1neB8ue170006IP11SceneObjectS2_EEbRKNS_16reverse_iteratorIT_EERKNS3_IT0_EE, symObjAddr: 0xBB54, symBinAddr: 0x1000B7B84, symSize: 0x48 }
  - { offsetInCU: 0x95E8, offset: 0x610B9, size: 0x8, addend: 0x0, symName: __ZNSt3__142__uninitialized_allocator_move_if_noexceptB8ue170006INS_9allocatorI11PBRMaterialEENS_16reverse_iteratorIPS2_EES6_S2_vEET1_RT_T0_SA_S7_, symObjAddr: 0xED04, symBinAddr: 0x1000B9F9C, symSize: 0x4A8 }
  - { offsetInCU: 0x9673, offset: 0x61144, size: 0x8, addend: 0x0, symName: __ZNSt3__14swapB8ue170006IP11PBRMaterialEENS_9enable_ifIXaasr21is_move_constructibleIT_EE5valuesr18is_move_assignableIS4_EE5valueEvE4typeERS4_S7_, symObjAddr: 0xF244, symBinAddr: 0x1000BA4DC, symSize: 0x134 }
  - { offsetInCU: 0x96C4, offset: 0x61195, size: 0x8, addend: 0x0, symName: __ZNSt3__14moveB8ue170006INS_16reverse_iteratorIP11PBRMaterialEES4_EET0_T_S6_S5_, symObjAddr: 0xF454, symBinAddr: 0x1000BA610, symSize: 0x4B0 }
  - { offsetInCU: 0x972B, offset: 0x611FC, size: 0x8, addend: 0x0, symName: __ZNSt3__16__moveB8ue170006INS_17_ClassicAlgPolicyENS_16reverse_iteratorIP11PBRMaterialEES5_S5_EENS_4pairIT0_T2_EES7_T1_S8_, symObjAddr: 0xF904, symBinAddr: 0x1000BAAC0, symSize: 0x424 }
  - { offsetInCU: 0x97A3, offset: 0x61274, size: 0x8, addend: 0x0, symName: __ZNSt3__123__dispatch_copy_or_moveB8ue170006INS_17_ClassicAlgPolicyENS_11__move_loopIS1_EENS_14__move_trivialENS_16reverse_iteratorIP11PBRMaterialEES8_S8_EENS_4pairIT2_T4_EESA_T3_SB_, symObjAddr: 0xFD28, symBinAddr: 0x1000BAEE4, symSize: 0x424 }
  - { offsetInCU: 0x982D, offset: 0x612FE, size: 0x8, addend: 0x0, symName: __ZNSt3__121__unwrap_and_dispatchB8ue170006INS_10__overloadINS_11__move_loopINS_17_ClassicAlgPolicyEEENS_14__move_trivialEEENS_16reverse_iteratorIP11PBRMaterialEESA_SA_Li0EEENS_4pairIT0_T2_EESC_T1_SD_, symObjAddr: 0x1014C, symBinAddr: 0x1000BB308, symSize: 0x880 }
  - { offsetInCU: 0x98D2, offset: 0x613A3, size: 0x8, addend: 0x0, symName: __ZNSt3__114__unwrap_rangeB8ue170006INS_16reverse_iteratorIP11PBRMaterialEES4_EENS_4pairIT0_S6_EET_S8_, symObjAddr: 0x109CC, symBinAddr: 0x1000BBB88, symSize: 0x448 }
  - { offsetInCU: 0x99FA, offset: 0x614CB, size: 0x8, addend: 0x0, symName: __ZNSt3__113__unwrap_iterB8ue170006INS_16reverse_iteratorIP11PBRMaterialEENS_18__unwrap_iter_implIS4_Lb0EEELi0EEEDTclsrT0_8__unwrapclsr3stdE7declvalIT_EEEES8_, symObjAddr: 0x11158, symBinAddr: 0x1000BC314, symSize: 0x2EC }
  - { offsetInCU: 0x9A43, offset: 0x61514, size: 0x8, addend: 0x0, symName: __ZNSt3__19make_pairB8ue170006INS_16reverse_iteratorIP11PBRMaterialEES4_EENS_4pairINS_18__unwrap_ref_decayIT_E4typeENS6_IT0_E4typeEEEOS7_OSA_, symObjAddr: 0x11444, symBinAddr: 0x1000BC600, symSize: 0x38 }
  - { offsetInCU: 0x9A92, offset: 0x61563, size: 0x8, addend: 0x0, symName: __ZNSt3__114__rewrap_rangeB8ue170006INS_16reverse_iteratorIP11PBRMaterialEES4_EET_S5_T0_, symObjAddr: 0x1147C, symBinAddr: 0x1000BC638, symSize: 0x3D4 }
  - { offsetInCU: 0x9AE6, offset: 0x615B7, size: 0x8, addend: 0x0, symName: __ZNSt3__113__rewrap_iterB8ue170006INS_16reverse_iteratorIP11PBRMaterialEES4_NS_18__unwrap_iter_implIS4_Lb0EEEEET_S7_T0_, symObjAddr: 0x11850, symBinAddr: 0x1000BCA0C, symSize: 0x3E8 }
  - { offsetInCU: 0x9B43, offset: 0x61614, size: 0x8, addend: 0x0, symName: __ZNSt3__1neB8ue170006IP11PBRMaterialS2_EEbRKNS_16reverse_iteratorIT_EERKNS3_IT0_EE, symObjAddr: 0x11C38, symBinAddr: 0x1000BCDF4, symSize: 0x48 }
  - { offsetInCU: 0x9BFB, offset: 0x616CC, size: 0x8, addend: 0x0, symName: __ZNSt3__142__uninitialized_allocator_move_if_noexceptB8ue170006INS_9allocatorINS_7variantIJ10PointLightEEEEENS_16reverse_iteratorIPS4_EES8_S4_vEET1_RT_T0_SC_S9_, symObjAddr: 0x15150, symBinAddr: 0x1000BF5C0, symSize: 0x4A8 }
  - { offsetInCU: 0x9C86, offset: 0x61757, size: 0x8, addend: 0x0, symName: __ZNSt3__14swapB8ue170006IPNS_7variantIJ10PointLightEEEEENS_9enable_ifIXaasr21is_move_constructibleIT_EE5valuesr18is_move_assignableIS6_EE5valueEvE4typeERS6_S9_, symObjAddr: 0x15690, symBinAddr: 0x1000BFB00, symSize: 0x134 }
  - { offsetInCU: 0x9CD7, offset: 0x617A8, size: 0x8, addend: 0x0, symName: __ZNSt3__14moveB8ue170006INS_16reverse_iteratorIPNS_7variantIJ10PointLightEEEEES6_EET0_T_S8_S7_, symObjAddr: 0x15884, symBinAddr: 0x1000BFC34, symSize: 0x4B0 }
  - { offsetInCU: 0x9D3E, offset: 0x6180F, size: 0x8, addend: 0x0, symName: __ZNSt3__16__moveB8ue170006INS_17_ClassicAlgPolicyENS_16reverse_iteratorIPNS_7variantIJ10PointLightEEEEES7_S7_EENS_4pairIT0_T2_EES9_T1_SA_, symObjAddr: 0x15D34, symBinAddr: 0x1000C00E4, symSize: 0x424 }
  - { offsetInCU: 0x9DB6, offset: 0x61887, size: 0x8, addend: 0x0, symName: __ZNSt3__123__dispatch_copy_or_moveB8ue170006INS_17_ClassicAlgPolicyENS_11__move_loopIS1_EENS_14__move_trivialENS_16reverse_iteratorIPNS_7variantIJ10PointLightEEEEESA_SA_EENS_4pairIT2_T4_EESC_T3_SD_, symObjAddr: 0x16158, symBinAddr: 0x1000C0508, symSize: 0x424 }
  - { offsetInCU: 0x9E40, offset: 0x61911, size: 0x8, addend: 0x0, symName: __ZNSt3__121__unwrap_and_dispatchB8ue170006INS_10__overloadINS_11__move_loopINS_17_ClassicAlgPolicyEEENS_14__move_trivialEEENS_16reverse_iteratorIPNS_7variantIJ10PointLightEEEEESC_SC_Li0EEENS_4pairIT0_T2_EESE_T1_SF_, symObjAddr: 0x1657C, symBinAddr: 0x1000C092C, symSize: 0x880 }
  - { offsetInCU: 0x9EE5, offset: 0x619B6, size: 0x8, addend: 0x0, symName: __ZNSt3__114__unwrap_rangeB8ue170006INS_16reverse_iteratorIPNS_7variantIJ10PointLightEEEEES6_EENS_4pairIT0_S8_EET_SA_, symObjAddr: 0x16DFC, symBinAddr: 0x1000C11AC, symSize: 0x448 }
  - { offsetInCU: 0xA00D, offset: 0x61ADE, size: 0x8, addend: 0x0, symName: __ZNSt3__113__unwrap_iterB8ue170006INS_16reverse_iteratorIPNS_7variantIJ10PointLightEEEEENS_18__unwrap_iter_implIS6_Lb0EEELi0EEEDTclsrT0_8__unwrapclsr3stdE7declvalIT_EEEESA_, symObjAddr: 0x17588, symBinAddr: 0x1000C1938, symSize: 0x2EC }
  - { offsetInCU: 0xA056, offset: 0x61B27, size: 0x8, addend: 0x0, symName: __ZNSt3__19make_pairB8ue170006INS_16reverse_iteratorIPNS_7variantIJ10PointLightEEEEES6_EENS_4pairINS_18__unwrap_ref_decayIT_E4typeENS8_IT0_E4typeEEEOS9_OSC_, symObjAddr: 0x17874, symBinAddr: 0x1000C1C24, symSize: 0x38 }
  - { offsetInCU: 0xA0A5, offset: 0x61B76, size: 0x8, addend: 0x0, symName: __ZNSt3__114__rewrap_rangeB8ue170006INS_16reverse_iteratorIPNS_7variantIJ10PointLightEEEEES6_EET_S7_T0_, symObjAddr: 0x178AC, symBinAddr: 0x1000C1C5C, symSize: 0x3D4 }
  - { offsetInCU: 0xA0F9, offset: 0x61BCA, size: 0x8, addend: 0x0, symName: __ZNSt3__113__rewrap_iterB8ue170006INS_16reverse_iteratorIPNS_7variantIJ10PointLightEEEEES6_NS_18__unwrap_iter_implIS6_Lb0EEEEET_S9_T0_, symObjAddr: 0x17C80, symBinAddr: 0x1000C2030, symSize: 0x3E8 }
  - { offsetInCU: 0xA156, offset: 0x61C27, size: 0x8, addend: 0x0, symName: __ZNSt3__1neB8ue170006IPNS_7variantIJ10PointLightEEES4_EEbRKNS_16reverse_iteratorIT_EERKNS5_IT0_EE, symObjAddr: 0x18068, symBinAddr: 0x1000C2418, symSize: 0x48 }
  - { offsetInCU: 0xA20E, offset: 0x61CDF, size: 0x8, addend: 0x0, symName: __ZNSt3__112__to_addressB8ue170006IKcEEPT_S3_, symObjAddr: 0x18D10, symBinAddr: 0x1000C30C0, symSize: 0x14 }
  - { offsetInCU: 0xA46C, offset: 0x61F3D, size: 0x8, addend: 0x0, symName: __ZNSt3__14copyB8ue170006IPKcPcEET0_T_S5_S4_, symObjAddr: 0x1A124, symBinAddr: 0x1000C42B0, symSize: 0x26C }
  - { offsetInCU: 0xA4C9, offset: 0x61F9A, size: 0x8, addend: 0x0, symName: __ZNSt3__16__copyB8ue170006INS_17_ClassicAlgPolicyEPKcS3_PcEENS_4pairIT0_T2_EES6_T1_S7_, symObjAddr: 0x1A390, symBinAddr: 0x1000C451C, symSize: 0x22C }
  - { offsetInCU: 0xA538, offset: 0x62009, size: 0x8, addend: 0x0, symName: __ZNSt3__123__dispatch_copy_or_moveB8ue170006INS_17_ClassicAlgPolicyENS_11__copy_loopIS1_EENS_14__copy_trivialEPKcS6_PcEENS_4pairIT2_T4_EES9_T3_SA_, symObjAddr: 0x1A5BC, symBinAddr: 0x1000C4748, symSize: 0x22C }
  - { offsetInCU: 0xA5B9, offset: 0x6208A, size: 0x8, addend: 0x0, symName: __ZNSt3__121__unwrap_and_dispatchB8ue170006INS_10__overloadINS_11__copy_loopINS_17_ClassicAlgPolicyEEENS_14__copy_trivialEEEPKcS8_PcLi0EEENS_4pairIT0_T2_EESB_T1_SC_, symObjAddr: 0x1A7E8, symBinAddr: 0x1000C4974, symSize: 0x5A4 }
  - { offsetInCU: 0xA653, offset: 0x62124, size: 0x8, addend: 0x0, symName: __ZNSt3__114__unwrap_rangeB8ue170006IPKcS2_EENS_4pairIT0_S4_EET_S6_, symObjAddr: 0x1AD8C, symBinAddr: 0x1000C4F18, symSize: 0x350 }
  - { offsetInCU: 0xA8A2, offset: 0x62373, size: 0x8, addend: 0x0, symName: __ZNSt3__113__unwrap_iterB8ue170006IPcNS_18__unwrap_iter_implIS1_Lb1EEELi0EEEDTclsrT0_8__unwrapclsr3stdE7declvalIT_EEEES5_, symObjAddr: 0x1B30C, symBinAddr: 0x1000C5498, symSize: 0x24 }
  - { offsetInCU: 0xA8E7, offset: 0x623B8, size: 0x8, addend: 0x0, symName: __ZNSt3__19make_pairB8ue170006IPKcPcEENS_4pairINS_18__unwrap_ref_decayIT_E4typeENS5_IT0_E4typeEEEOS6_OS9_, symObjAddr: 0x1B330, symBinAddr: 0x1000C54BC, symSize: 0x20C }
  - { offsetInCU: 0xA938, offset: 0x62409, size: 0x8, addend: 0x0, symName: __ZNSt3__114__rewrap_rangeB8ue170006IPKcS2_EET_S3_T0_, symObjAddr: 0x1B53C, symBinAddr: 0x1000C56C8, symSize: 0x2C }
  - { offsetInCU: 0xA984, offset: 0x62455, size: 0x8, addend: 0x0, symName: __ZNSt3__113__rewrap_iterB8ue170006IPcS1_NS_18__unwrap_iter_implIS1_Lb1EEEEET_S4_T0_, symObjAddr: 0x1B568, symBinAddr: 0x1000C56F4, symSize: 0x48 }
  - { offsetInCU: 0xA9D9, offset: 0x624AA, size: 0x8, addend: 0x0, symName: __ZNSt3__19make_pairB8ue170006IPKcS2_EENS_4pairINS_18__unwrap_ref_decayIT_E4typeENS4_IT0_E4typeEEEOS5_OS8_, symObjAddr: 0x1B5B0, symBinAddr: 0x1000C573C, symSize: 0x20C }
  - { offsetInCU: 0xAA2A, offset: 0x624FB, size: 0x8, addend: 0x0, symName: __ZNSt3__113__unwrap_iterB8ue170006IPKcNS_18__unwrap_iter_implIS2_Lb1EEELi0EEEDTclsrT0_8__unwrapclsr3stdE7declvalIT_EEEES6_, symObjAddr: 0x1B7BC, symBinAddr: 0x1000C5948, symSize: 0x24 }
  - { offsetInCU: 0xAB96, offset: 0x62667, size: 0x8, addend: 0x0, symName: __ZNSt3__119__copy_trivial_implB8ue170006IKccEENS_4pairIPT_PT0_EES4_S4_S6_, symObjAddr: 0x1B978, symBinAddr: 0x1000C5B04, symSize: 0x3AC }
  - { offsetInCU: 0xAC05, offset: 0x626D6, size: 0x8, addend: 0x0, symName: __ZNSt3__119__constexpr_memmoveB8ue170006IcKcLi0EEEPT_S3_PT0_NS_15__element_countE, symObjAddr: 0x1BD24, symBinAddr: 0x1000C5EB0, symSize: 0x64 }
  - { offsetInCU: 0xAC74, offset: 0x62745, size: 0x8, addend: 0x0, symName: __ZNSt3__19make_pairB8ue170006IRPKcPcEENS_4pairINS_18__unwrap_ref_decayIT_E4typeENS6_IT0_E4typeEEEOS7_OSA_, symObjAddr: 0x1BD88, symBinAddr: 0x1000C5F14, symSize: 0x20C }
  - { offsetInCU: 0xAD18, offset: 0x627E9, size: 0x8, addend: 0x0, symName: __ZNSt3__113__rewrap_iterB8ue170006IPKcS2_NS_18__unwrap_iter_implIS2_Lb1EEEEET_S5_T0_, symObjAddr: 0x1C2A0, symBinAddr: 0x1000C642C, symSize: 0x48 }
  - { offsetInCU: 0xAD6D, offset: 0x6283E, size: 0x8, addend: 0x0, symName: __ZNSt3__16fill_nB8ue170006IPcmcEET_S2_T0_RKT1_, symObjAddr: 0x1C378, symBinAddr: 0x1000C6504, symSize: 0x44 }
  - { offsetInCU: 0xADD0, offset: 0x628A1, size: 0x8, addend: 0x0, symName: __ZNSt3__18__fill_nB8ue170006IPcmcEET_S2_T0_RKT1_, symObjAddr: 0x1C3BC, symBinAddr: 0x1000C6548, symSize: 0x138 }
  - { offsetInCU: 0xAE33, offset: 0x62904, size: 0x8, addend: 0x0, symName: __ZNSt3__121__convert_to_integralB8ue170006Em, symObjAddr: 0x1C4F4, symBinAddr: 0x1000C6680, symSize: 0x14 }
  - { offsetInCU: 0xAE5F, offset: 0x62930, size: 0x8, addend: 0x0, symName: __ZNSt3__115allocate_sharedB8ue170006I5SceneNS_9allocatorIS1_EEJRS1_EvEENS_10shared_ptrIT_EERKT0_DpOT1_, symObjAddr: 0x1C508, symBinAddr: 0x1000C6694, symSize: 0x300 }
  - { offsetInCU: 0xB27B, offset: 0x62D4C, size: 0x8, addend: 0x0, symName: _.str.16, symObjAddr: 0x29680, symBinAddr: 0x1004F2340, symSize: 0x0 }
  - { offsetInCU: 0xB297, offset: 0x62D68, size: 0x8, addend: 0x0, symName: _.str.17, symObjAddr: 0x296A0, symBinAddr: 0x1004F2360, symSize: 0x0 }
  - { offsetInCU: 0xB8AC, offset: 0x6337D, size: 0x8, addend: 0x0, symName: __ZNSt3__16vectorI11SceneObjectNS_9allocatorIS1_EEE26__swap_out_circular_bufferERNS_14__split_bufferIS1_RS3_EE, symObjAddr: 0x71AC, symBinAddr: 0x1000B4074, symSize: 0x56C }
  - { offsetInCU: 0xB903, offset: 0x633D4, size: 0x8, addend: 0x0, symName: __ZNSt3__16vectorI11PBRMaterialNS_9allocatorIS1_EEE26__swap_out_circular_bufferERNS_14__split_bufferIS1_RS3_EE, symObjAddr: 0xD9A8, symBinAddr: 0x1000B92E4, symSize: 0x56C }
  - { offsetInCU: 0xB95A, offset: 0x6342B, size: 0x8, addend: 0x0, symName: __ZNSt3__16vectorINS_7variantIJ10PointLightEEENS_9allocatorIS3_EEE26__swap_out_circular_bufferERNS_14__split_bufferIS3_RS5_EE, symObjAddr: 0x13E0C, symBinAddr: 0x1000BE918, symSize: 0x56C }
  - { offsetInCU: 0xDAFB, offset: 0x655CC, size: 0x8, addend: 0x0, symName: __ZN5SceneC2Ev, symObjAddr: 0x0, symBinAddr: 0x1000B032C, symSize: 0x8B0 }
  - { offsetInCU: 0xDB2C, offset: 0x655FD, size: 0x8, addend: 0x0, symName: __ZNSt3__16vectorI11SceneObjectNS_9allocatorIS1_EEEC1B8ue170006Ev, symObjAddr: 0x9D0, symBinAddr: 0x1000B0BDC, symSize: 0x2C }
  - { offsetInCU: 0xDB54, offset: 0x65625, size: 0x8, addend: 0x0, symName: __ZNSt3__16vectorI11PBRMaterialNS_9allocatorIS1_EEEC1B8ue170006Ev, symObjAddr: 0x9FC, symBinAddr: 0x1000B0C08, symSize: 0x2C }
  - { offsetInCU: 0xDB7C, offset: 0x6564D, size: 0x8, addend: 0x0, symName: __ZNSt3__16vectorINS_7variantIJ10PointLightEEENS_9allocatorIS3_EEEC1B8ue170006Ev, symObjAddr: 0xA28, symBinAddr: 0x1000B0C34, symSize: 0x2C }
  - { offsetInCU: 0xDBA4, offset: 0x65675, size: 0x8, addend: 0x0, symName: __ZN5ImageC1Ev, symObjAddr: 0xA54, symBinAddr: 0x1000B0C60, symSize: 0x2C }
  - { offsetInCU: 0xDBD1, offset: 0x656A2, size: 0x8, addend: 0x0, symName: __ZNSt3__16vectorI11SceneObjectNS_9allocatorIS1_EEE12emplace_backIJS1_EEERS1_DpOT_, symObjAddr: 0xA80, symBinAddr: 0x1000B0C8C, symSize: 0xE8 }
  - { offsetInCU: 0xDC18, offset: 0x656E9, size: 0x8, addend: 0x0, symName: __ZNSt3__16vectorI11PBRMaterialNS_9allocatorIS1_EEE12emplace_backIJS1_EEERS1_DpOT_, symObjAddr: 0xBAC, symBinAddr: 0x1000B0D74, symSize: 0xE8 }
  - { offsetInCU: 0xDC5F, offset: 0x65730, size: 0x8, addend: 0x0, symName: __ZNSt3__16vectorINS_7variantIJ10PointLightEEENS_9allocatorIS3_EEE12emplace_backIJS2_EEERS3_DpOT_, symObjAddr: 0xC94, symBinAddr: 0x1000B0E5C, symSize: 0xE8 }
  - { offsetInCU: 0xDCA1, offset: 0x65772, size: 0x8, addend: 0x0, symName: __ZN5SceneC1Ev, symObjAddr: 0xE80, symBinAddr: 0x1000B0F44, symSize: 0x2C }
  - { offsetInCU: 0xDCCC, offset: 0x6579D, size: 0x8, addend: 0x0, symName: __ZN5Scene8OnAttachEv, symObjAddr: 0xEAC, symBinAddr: 0x1000B0F70, symSize: 0x24 }
  - { offsetInCU: 0xDCF2, offset: 0x657C3, size: 0x8, addend: 0x0, symName: __ZN5Scene19PushSceneToRendererEv, symObjAddr: 0xED0, symBinAddr: 0x1000B0F94, symSize: 0x258 }
  - { offsetInCU: 0xDD19, offset: 0x657EA, size: 0x8, addend: 0x0, symName: __ZN5Scene8OnDetachEv, symObjAddr: 0x1128, symBinAddr: 0x1000B11EC, symSize: 0x10 }
  - { offsetInCU: 0xDD40, offset: 0x65811, size: 0x8, addend: 0x0, symName: __ZN5Scene6UpdateEv, symObjAddr: 0x1138, symBinAddr: 0x1000B11FC, symSize: 0x10 }
  - { offsetInCU: 0xDD67, offset: 0x65838, size: 0x8, addend: 0x0, symName: __ZN5Scene15UpdateInterfaceEv, symObjAddr: 0x1148, symBinAddr: 0x1000B120C, symSize: 0xD88 }
  - { offsetInCU: 0xDEB4, offset: 0x65985, size: 0x8, addend: 0x0, symName: __ZNKSt3__112basic_stringIcNS_11char_traitsIcEENS_9allocatorIcEEE5c_strB8ue170006Ev, symObjAddr: 0x22EC, symBinAddr: 0x1000B2300, symSize: 0x24 }
  - { offsetInCU: 0xDED8, offset: 0x659A9, size: 0x8, addend: 0x0, symName: __ZNSt3__16vectorI11SceneObjectNS_9allocatorIS1_EEEixB8ue170006Em, symObjAddr: 0x2310, symBinAddr: 0x1000B2324, symSize: 0x74 }
  - { offsetInCU: 0xDF0D, offset: 0x659DE, size: 0x8, addend: 0x0, symName: __ZNSt3__16vectorINS_7variantIJ10PointLightEEENS_9allocatorIS3_EEEixB8ue170006Em, symObjAddr: 0x2458, symBinAddr: 0x1000B2398, symSize: 0x6C }
  - { offsetInCU: 0xDF65, offset: 0x65A36, size: 0x8, addend: 0x0, symName: __ZN5SceneD1Ev, symObjAddr: 0x26D8, symBinAddr: 0x1000B25EC, symSize: 0x2C }
  - { offsetInCU: 0xDF8D, offset: 0x65A5E, size: 0x8, addend: 0x0, symName: __ZN5SceneD0Ev, symObjAddr: 0x2704, symBinAddr: 0x1000B2618, symSize: 0x30 }
  - { offsetInCU: 0xDFB5, offset: 0x65A86, size: 0x8, addend: 0x0, symName: __ZN5ImageC2Ev, symObjAddr: 0x27AC, symBinAddr: 0x1000B2648, symSize: 0x1E8 }
  - { offsetInCU: 0xDFDD, offset: 0x65AAE, size: 0x8, addend: 0x0, symName: __ZN5SceneD2Ev, symObjAddr: 0x2D88, symBinAddr: 0x1000B2830, symSize: 0x110 }
  - { offsetInCU: 0xE00A, offset: 0x65ADB, size: 0x8, addend: 0x0, symName: __ZNSt3__16vectorI11SceneObjectNS_9allocatorIS1_EEEC2B8ue170006Ev, symObjAddr: 0x5258, symBinAddr: 0x1000B2940, symSize: 0x2E8 }
  - { offsetInCU: 0xE038, offset: 0x65B09, size: 0x8, addend: 0x0, symName: __ZNSt3__117__compressed_pairIP11SceneObjectNS_9allocatorIS1_EEEC1B8ue170006IDnNS_18__default_init_tagEEEOT_OT0_, symObjAddr: 0x5540, symBinAddr: 0x1000B2C28, symSize: 0x3C }
  - { offsetInCU: 0xE08E, offset: 0x65B5F, size: 0x8, addend: 0x0, symName: __ZNSt3__117__compressed_pairIP11SceneObjectNS_9allocatorIS1_EEEC2B8ue170006IDnNS_18__default_init_tagEEEOT_OT0_, symObjAddr: 0x557C, symBinAddr: 0x1000B2C64, symSize: 0x40 }
  - { offsetInCU: 0xE0E4, offset: 0x65BB5, size: 0x8, addend: 0x0, symName: __ZNSt3__122__compressed_pair_elemINS_9allocatorI11SceneObjectEELi1ELb1EEC2B8ue170006ENS_18__default_init_tagE, symObjAddr: 0x5620, symBinAddr: 0x1000B2CA4, symSize: 0x2C }
  - { offsetInCU: 0xE117, offset: 0x65BE8, size: 0x8, addend: 0x0, symName: __ZNSt3__19allocatorI11SceneObjectEC2B8ue170006Ev, symObjAddr: 0x564C, symBinAddr: 0x1000B2CD0, symSize: 0x2C }
  - { offsetInCU: 0xE13F, offset: 0x65C10, size: 0x8, addend: 0x0, symName: __ZNSt3__116__non_trivial_ifILb1ENS_9allocatorI11SceneObjectEEEC2B8ue170006Ev, symObjAddr: 0x5678, symBinAddr: 0x1000B2CFC, symSize: 0x14 }
  - { offsetInCU: 0xE168, offset: 0x65C39, size: 0x8, addend: 0x0, symName: __ZNSt3__16vectorI11PBRMaterialNS_9allocatorIS1_EEEC2B8ue170006Ev, symObjAddr: 0x568C, symBinAddr: 0x1000B2D10, symSize: 0x2E8 }
  - { offsetInCU: 0xE191, offset: 0x65C62, size: 0x8, addend: 0x0, symName: __ZNSt3__117__compressed_pairIP11PBRMaterialNS_9allocatorIS1_EEEC1B8ue170006IDnNS_18__default_init_tagEEEOT_OT0_, symObjAddr: 0x5974, symBinAddr: 0x1000B2FF8, symSize: 0x3C }
  - { offsetInCU: 0xE1E7, offset: 0x65CB8, size: 0x8, addend: 0x0, symName: __ZNSt3__117__compressed_pairIP11PBRMaterialNS_9allocatorIS1_EEEC2B8ue170006IDnNS_18__default_init_tagEEEOT_OT0_, symObjAddr: 0x59B0, symBinAddr: 0x1000B3034, symSize: 0x40 }
  - { offsetInCU: 0xE23D, offset: 0x65D0E, size: 0x8, addend: 0x0, symName: __ZNSt3__122__compressed_pair_elemINS_9allocatorI11PBRMaterialEELi1ELb1EEC2B8ue170006ENS_18__default_init_tagE, symObjAddr: 0x5A54, symBinAddr: 0x1000B3074, symSize: 0x2C }
  - { offsetInCU: 0xE270, offset: 0x65D41, size: 0x8, addend: 0x0, symName: __ZNSt3__19allocatorI11PBRMaterialEC2B8ue170006Ev, symObjAddr: 0x5A80, symBinAddr: 0x1000B30A0, symSize: 0x2C }
  - { offsetInCU: 0xE298, offset: 0x65D69, size: 0x8, addend: 0x0, symName: __ZNSt3__116__non_trivial_ifILb1ENS_9allocatorI11PBRMaterialEEEC2B8ue170006Ev, symObjAddr: 0x5AAC, symBinAddr: 0x1000B30CC, symSize: 0x14 }
  - { offsetInCU: 0xE2C1, offset: 0x65D92, size: 0x8, addend: 0x0, symName: __ZNSt3__16vectorINS_7variantIJ10PointLightEEENS_9allocatorIS3_EEEC2B8ue170006Ev, symObjAddr: 0x5AC0, symBinAddr: 0x1000B30E0, symSize: 0x2E8 }
  - { offsetInCU: 0xE2EA, offset: 0x65DBB, size: 0x8, addend: 0x0, symName: __ZNSt3__117__compressed_pairIPNS_7variantIJ10PointLightEEENS_9allocatorIS3_EEEC1B8ue170006IDnNS_18__default_init_tagEEEOT_OT0_, symObjAddr: 0x5DA8, symBinAddr: 0x1000B33C8, symSize: 0x3C }
  - { offsetInCU: 0xE340, offset: 0x65E11, size: 0x8, addend: 0x0, symName: __ZNSt3__117__compressed_pairIPNS_7variantIJ10PointLightEEENS_9allocatorIS3_EEEC2B8ue170006IDnNS_18__default_init_tagEEEOT_OT0_, symObjAddr: 0x5DE4, symBinAddr: 0x1000B3404, symSize: 0x40 }
  - { offsetInCU: 0xE396, offset: 0x65E67, size: 0x8, addend: 0x0, symName: __ZNSt3__122__compressed_pair_elemINS_9allocatorINS_7variantIJ10PointLightEEEEELi1ELb1EEC2B8ue170006ENS_18__default_init_tagE, symObjAddr: 0x5E88, symBinAddr: 0x1000B3444, symSize: 0x2C }
  - { offsetInCU: 0xE3C9, offset: 0x65E9A, size: 0x8, addend: 0x0, symName: __ZNSt3__19allocatorINS_7variantIJ10PointLightEEEEC2B8ue170006Ev, symObjAddr: 0x5EB4, symBinAddr: 0x1000B3470, symSize: 0x2C }
  - { offsetInCU: 0xE3F1, offset: 0x65EC2, size: 0x8, addend: 0x0, symName: __ZNSt3__116__non_trivial_ifILb1ENS_9allocatorINS_7variantIJ10PointLightEEEEEEC2B8ue170006Ev, symObjAddr: 0x5EE0, symBinAddr: 0x1000B349C, symSize: 0x14 }
  - { offsetInCU: 0xE41A, offset: 0x65EEB, size: 0x8, addend: 0x0, symName: __ZNSt3__16vectorI11SceneObjectNS_9allocatorIS1_EEE22__construct_one_at_endB8ue170006IJS1_EEEvDpOT_, symObjAddr: 0x5F1C, symBinAddr: 0x1000B34B0, symSize: 0x36C }
  - { offsetInCU: 0xE46F, offset: 0x65F40, size: 0x8, addend: 0x0, symName: __ZNSt3__16vectorI11SceneObjectNS_9allocatorIS1_EEE24__emplace_back_slow_pathIJS1_EEEvDpOT_, symObjAddr: 0x6288, symBinAddr: 0x1000B381C, symSize: 0x3C0 }
  - { offsetInCU: 0xE4D6, offset: 0x65FA7, size: 0x8, addend: 0x0, symName: __ZNSt3__16vectorI11SceneObjectNS_9allocatorIS1_EEE4backB8ue170006Ev, symObjAddr: 0x6648, symBinAddr: 0x1000B3BDC, symSize: 0x68 }
  - { offsetInCU: 0xE513, offset: 0x65FE4, size: 0x8, addend: 0x0, symName: __ZNSt3__116allocator_traitsINS_9allocatorI11SceneObjectEEE9constructB8ue170006IS2_JS2_EvEEvRS3_PT_DpOT0_, symObjAddr: 0x6724, symBinAddr: 0x1000B3C44, symSize: 0x34 }
  - { offsetInCU: 0xE56C, offset: 0x6603D, size: 0x8, addend: 0x0, symName: __ZNSt3__19allocatorI11SceneObjectE9constructB8ue170006IS1_JS1_EEEvPT_DpOT0_, symObjAddr: 0x6A54, symBinAddr: 0x1000B3C78, symSize: 0x34 }
  - { offsetInCU: 0xE5C2, offset: 0x66093, size: 0x8, addend: 0x0, symName: __ZNKSt3__16vectorI11SceneObjectNS_9allocatorIS1_EEE11__recommendB8ue170006Em, symObjAddr: 0x6DE4, symBinAddr: 0x1000B3CAC, symSize: 0x384 }
  - { offsetInCU: 0xE61C, offset: 0x660ED, size: 0x8, addend: 0x0, symName: __ZNSt3__114__split_bufferI11SceneObjectRNS_9allocatorIS1_EEEC1EmmS4_, symObjAddr: 0x7168, symBinAddr: 0x1000B4030, symSize: 0x44 }
  - { offsetInCU: 0xE671, offset: 0x66142, size: 0x8, addend: 0x0, symName: __ZNSt3__114__split_bufferI11SceneObjectRNS_9allocatorIS1_EEED1Ev, symObjAddr: 0x7718, symBinAddr: 0x1000B45E0, symSize: 0x2C }
  - { offsetInCU: 0xE6A6, offset: 0x66177, size: 0x8, addend: 0x0, symName: __ZNSt3__114__split_bufferI11SceneObjectRNS_9allocatorIS1_EEEC2EmmS4_, symObjAddr: 0x812C, symBinAddr: 0x1000B460C, symSize: 0x530 }
  - { offsetInCU: 0xE720, offset: 0x661F1, size: 0x8, addend: 0x0, symName: __ZNSt3__117__compressed_pairIP11SceneObjectRNS_9allocatorIS1_EEEC1B8ue170006IDnS5_EEOT_OT0_, symObjAddr: 0x865C, symBinAddr: 0x1000B4B3C, symSize: 0x3C }
  - { offsetInCU: 0xE776, offset: 0x66247, size: 0x8, addend: 0x0, symName: __ZNSt3__114__split_bufferI11SceneObjectRNS_9allocatorIS1_EEE7__allocB8ue170006Ev, symObjAddr: 0x8924, symBinAddr: 0x1000B4B78, symSize: 0x28 }
  - { offsetInCU: 0xE79A, offset: 0x6626B, size: 0x8, addend: 0x0, symName: __ZNSt3__114__split_bufferI11SceneObjectRNS_9allocatorIS1_EEE9__end_capB8ue170006Ev, symObjAddr: 0x894C, symBinAddr: 0x1000B4BA0, symSize: 0x28 }
  - { offsetInCU: 0xE7BE, offset: 0x6628F, size: 0x8, addend: 0x0, symName: __ZNSt3__117__compressed_pairIP11SceneObjectRNS_9allocatorIS1_EEEC2B8ue170006IDnS5_EEOT_OT0_, symObjAddr: 0x8974, symBinAddr: 0x1000B4BC8, symSize: 0x48 }
  - { offsetInCU: 0xE814, offset: 0x662E5, size: 0x8, addend: 0x0, symName: __ZNSt3__122__compressed_pair_elemIRNS_9allocatorI11SceneObjectEELi1ELb0EEC2B8ue170006IS4_vEEOT_, symObjAddr: 0x89BC, symBinAddr: 0x1000B4C10, symSize: 0x70 }
  - { offsetInCU: 0xE854, offset: 0x66325, size: 0x8, addend: 0x0, symName: __ZNSt3__117__compressed_pairIP11SceneObjectRNS_9allocatorIS1_EEE6secondB8ue170006Ev, symObjAddr: 0x8B74, symBinAddr: 0x1000B4C80, symSize: 0x28 }
  - { offsetInCU: 0xE878, offset: 0x66349, size: 0x8, addend: 0x0, symName: __ZNSt3__122__compressed_pair_elemIRNS_9allocatorI11SceneObjectEELi1ELb0EE5__getB8ue170006Ev, symObjAddr: 0x8B9C, symBinAddr: 0x1000B4CA8, symSize: 0x60 }
  - { offsetInCU: 0xE89C, offset: 0x6636D, size: 0x8, addend: 0x0, symName: __ZNSt3__117__compressed_pairIP11SceneObjectRNS_9allocatorIS1_EEE5firstB8ue170006Ev, symObjAddr: 0x8BFC, symBinAddr: 0x1000B4D08, symSize: 0x24 }
  - { offsetInCU: 0xE8C0, offset: 0x66391, size: 0x8, addend: 0x0, symName: __ZNSt3__116reverse_iteratorIP11SceneObjectEC1B8ue170006ES2_, symObjAddr: 0x90C8, symBinAddr: 0x1000B51D4, symSize: 0x34 }
  - { offsetInCU: 0xE8F6, offset: 0x663C7, size: 0x8, addend: 0x0, symName: __ZNKSt3__116reverse_iteratorIP11SceneObjectE4baseB8ue170006Ev, symObjAddr: 0x90FC, symBinAddr: 0x1000B5208, symSize: 0x64 }
  - { offsetInCU: 0xE93D, offset: 0x6640E, size: 0x8, addend: 0x0, symName: __ZNKSt3__111__move_loopINS_17_ClassicAlgPolicyEEclB8ue170006INS_16reverse_iteratorIP11SceneObjectEES7_S7_EENS_4pairIT_T1_EES9_T0_SA_, symObjAddr: 0xAD30, symBinAddr: 0x1000B6D60, symSize: 0x344 }
  - { offsetInCU: 0xE9B3, offset: 0x66484, size: 0x8, addend: 0x0, symName: __ZNSt3__18_IterOpsINS_17_ClassicAlgPolicyEE11__iter_moveB8ue170006IRNS_16reverse_iteratorIP11SceneObjectEEEENS_9enable_ifIXsr12is_referenceIDTdeclsr3stdE7declvalIRT_EEEEE5valueEDTclsr3stdE4movedeclsr3stdE7declvalISB_EEEEE4typeEOSA_, symObjAddr: 0xBB9C, symBinAddr: 0x1000B7BCC, symSize: 0x28 }
  - { offsetInCU: 0xE9DF, offset: 0x664B0, size: 0x8, addend: 0x0, symName: __ZNKSt3__116reverse_iteratorIP11SceneObjectEdeB8ue170006Ev, symObjAddr: 0xBBC4, symBinAddr: 0x1000B7BF4, symSize: 0x74 }
  - { offsetInCU: 0xEA11, offset: 0x664E2, size: 0x8, addend: 0x0, symName: __ZNSt3__116reverse_iteratorIP11SceneObjectEppB8ue170006Ev, symObjAddr: 0xBC38, symBinAddr: 0x1000B7C68, symSize: 0x6C }
  - { offsetInCU: 0xEA35, offset: 0x66506, size: 0x8, addend: 0x0, symName: __ZNSt3__18_IterOpsINS_17_ClassicAlgPolicyEE25__validate_iter_referenceB8ue170006IRNS_16reverse_iteratorIP11SceneObjectEEEEvv, symObjAddr: 0xBCA4, symBinAddr: 0x1000B7CD4, symSize: 0x4 }
  - { offsetInCU: 0xEA53, offset: 0x66524, size: 0x8, addend: 0x0, symName: __ZNSt3__118__unwrap_iter_implINS_16reverse_iteratorIP11SceneObjectEELb0EE8__unwrapB8ue170006ES4_, symObjAddr: 0xBCA8, symBinAddr: 0x1000B7CD8, symSize: 0x274 }
  - { offsetInCU: 0xEA7F, offset: 0x66550, size: 0x8, addend: 0x0, symName: __ZNSt3__14pairINS_16reverse_iteratorIP11SceneObjectEES4_EC1B8ue170006IS4_S4_LPv0EEEOT_OT0_, symObjAddr: 0xBF1C, symBinAddr: 0x1000B7F4C, symSize: 0x3C }
  - { offsetInCU: 0xEADB, offset: 0x665AC, size: 0x8, addend: 0x0, symName: __ZNSt3__14pairINS_16reverse_iteratorIP11SceneObjectEES4_EC2B8ue170006IS4_S4_LPv0EEEOT_OT0_, symObjAddr: 0xBF58, symBinAddr: 0x1000B7F88, symSize: 0x54 }
  - { offsetInCU: 0xEB37, offset: 0x66608, size: 0x8, addend: 0x0, symName: __ZNSt3__118__unwrap_iter_implINS_16reverse_iteratorIP11SceneObjectEELb0EE8__rewrapB8ue170006ES4_S4_, symObjAddr: 0xBFAC, symBinAddr: 0x1000B7FDC, symSize: 0x2E0 }
  - { offsetInCU: 0xEB6D, offset: 0x6663E, size: 0x8, addend: 0x0, symName: __ZNSt3__116reverse_iteratorIP11SceneObjectEC2B8ue170006ES2_, symObjAddr: 0xC28C, symBinAddr: 0x1000B82BC, symSize: 0xB8 }
  - { offsetInCU: 0xEBA3, offset: 0x66674, size: 0x8, addend: 0x0, symName: __ZNSt3__114__split_bufferI11SceneObjectRNS_9allocatorIS1_EEED2Ev, symObjAddr: 0xC344, symBinAddr: 0x1000B8374, symSize: 0x104 }
  - { offsetInCU: 0xEBCE, offset: 0x6669F, size: 0x8, addend: 0x0, symName: __ZNSt3__114__split_bufferI11SceneObjectRNS_9allocatorIS1_EEE5clearB8ue170006Ev, symObjAddr: 0xC448, symBinAddr: 0x1000B8478, symSize: 0x68 }
  - { offsetInCU: 0xEBF2, offset: 0x666C3, size: 0x8, addend: 0x0, symName: __ZNKSt3__114__split_bufferI11SceneObjectRNS_9allocatorIS1_EEE8capacityB8ue170006Ev, symObjAddr: 0xC4B0, symBinAddr: 0x1000B84E0, symSize: 0xBC }
  - { offsetInCU: 0xEC16, offset: 0x666E7, size: 0x8, addend: 0x0, symName: __ZNSt3__114__split_bufferI11SceneObjectRNS_9allocatorIS1_EEE17__destruct_at_endB8ue170006EPS1_, symObjAddr: 0xC56C, symBinAddr: 0x1000B859C, symSize: 0x2C }
  - { offsetInCU: 0xEC48, offset: 0x66719, size: 0x8, addend: 0x0, symName: __ZNSt3__114__split_bufferI11SceneObjectRNS_9allocatorIS1_EEE17__destruct_at_endB8ue170006EPS1_NS_17integral_constantIbLb0EEE, symObjAddr: 0xC598, symBinAddr: 0x1000B85C8, symSize: 0x10C }
  - { offsetInCU: 0xEC87, offset: 0x66758, size: 0x8, addend: 0x0, symName: __ZNKSt3__114__split_bufferI11SceneObjectRNS_9allocatorIS1_EEE9__end_capB8ue170006Ev, symObjAddr: 0xC6A4, symBinAddr: 0x1000B86D4, symSize: 0x28 }
  - { offsetInCU: 0xECAB, offset: 0x6677C, size: 0x8, addend: 0x0, symName: __ZNKSt3__117__compressed_pairIP11SceneObjectRNS_9allocatorIS1_EEE5firstB8ue170006Ev, symObjAddr: 0xC6CC, symBinAddr: 0x1000B86FC, symSize: 0x24 }
  - { offsetInCU: 0xECCF, offset: 0x667A0, size: 0x8, addend: 0x0, symName: __ZNSt3__16vectorI11PBRMaterialNS_9allocatorIS1_EEE22__construct_one_at_endB8ue170006IJS1_EEEvDpOT_, symObjAddr: 0xC718, symBinAddr: 0x1000B8720, symSize: 0x36C }
  - { offsetInCU: 0xED24, offset: 0x667F5, size: 0x8, addend: 0x0, symName: __ZNSt3__16vectorI11PBRMaterialNS_9allocatorIS1_EEE24__emplace_back_slow_pathIJS1_EEEvDpOT_, symObjAddr: 0xCA84, symBinAddr: 0x1000B8A8C, symSize: 0x3C0 }
  - { offsetInCU: 0xED8B, offset: 0x6685C, size: 0x8, addend: 0x0, symName: __ZNSt3__16vectorI11PBRMaterialNS_9allocatorIS1_EEE4backB8ue170006Ev, symObjAddr: 0xCE44, symBinAddr: 0x1000B8E4C, symSize: 0x68 }
  - { offsetInCU: 0xEDC8, offset: 0x66899, size: 0x8, addend: 0x0, symName: __ZNSt3__116allocator_traitsINS_9allocatorI11PBRMaterialEEE9constructB8ue170006IS2_JS2_EvEEvRS3_PT_DpOT0_, symObjAddr: 0xCF20, symBinAddr: 0x1000B8EB4, symSize: 0x34 }
  - { offsetInCU: 0xEE21, offset: 0x668F2, size: 0x8, addend: 0x0, symName: __ZNSt3__19allocatorI11PBRMaterialE9constructB8ue170006IS1_JS1_EEEvPT_DpOT0_, symObjAddr: 0xD250, symBinAddr: 0x1000B8EE8, symSize: 0x34 }
  - { offsetInCU: 0xEE77, offset: 0x66948, size: 0x8, addend: 0x0, symName: __ZNKSt3__16vectorI11PBRMaterialNS_9allocatorIS1_EEE11__recommendB8ue170006Em, symObjAddr: 0xD5E0, symBinAddr: 0x1000B8F1C, symSize: 0x384 }
  - { offsetInCU: 0xEED1, offset: 0x669A2, size: 0x8, addend: 0x0, symName: __ZNSt3__114__split_bufferI11PBRMaterialRNS_9allocatorIS1_EEEC1EmmS4_, symObjAddr: 0xD964, symBinAddr: 0x1000B92A0, symSize: 0x44 }
  - { offsetInCU: 0xEF26, offset: 0x669F7, size: 0x8, addend: 0x0, symName: __ZNSt3__114__split_bufferI11PBRMaterialRNS_9allocatorIS1_EEED1Ev, symObjAddr: 0xDF14, symBinAddr: 0x1000B9850, symSize: 0x2C }
  - { offsetInCU: 0xEF5B, offset: 0x66A2C, size: 0x8, addend: 0x0, symName: __ZNSt3__114__split_bufferI11PBRMaterialRNS_9allocatorIS1_EEEC2EmmS4_, symObjAddr: 0xE2F8, symBinAddr: 0x1000B987C, symSize: 0x530 }
  - { offsetInCU: 0xEFD5, offset: 0x66AA6, size: 0x8, addend: 0x0, symName: __ZNSt3__117__compressed_pairIP11PBRMaterialRNS_9allocatorIS1_EEEC1B8ue170006IDnS5_EEOT_OT0_, symObjAddr: 0xE828, symBinAddr: 0x1000B9DAC, symSize: 0x3C }
  - { offsetInCU: 0xF02B, offset: 0x66AFC, size: 0x8, addend: 0x0, symName: __ZNSt3__114__split_bufferI11PBRMaterialRNS_9allocatorIS1_EEE7__allocB8ue170006Ev, symObjAddr: 0xEAF0, symBinAddr: 0x1000B9DE8, symSize: 0x28 }
  - { offsetInCU: 0xF04F, offset: 0x66B20, size: 0x8, addend: 0x0, symName: __ZNSt3__114__split_bufferI11PBRMaterialRNS_9allocatorIS1_EEE9__end_capB8ue170006Ev, symObjAddr: 0xEB18, symBinAddr: 0x1000B9E10, symSize: 0x28 }
  - { offsetInCU: 0xF073, offset: 0x66B44, size: 0x8, addend: 0x0, symName: __ZNSt3__117__compressed_pairIP11PBRMaterialRNS_9allocatorIS1_EEEC2B8ue170006IDnS5_EEOT_OT0_, symObjAddr: 0xEB40, symBinAddr: 0x1000B9E38, symSize: 0x48 }
  - { offsetInCU: 0xF0C9, offset: 0x66B9A, size: 0x8, addend: 0x0, symName: __ZNSt3__122__compressed_pair_elemIRNS_9allocatorI11PBRMaterialEELi1ELb0EEC2B8ue170006IS4_vEEOT_, symObjAddr: 0xEB88, symBinAddr: 0x1000B9E80, symSize: 0x70 }
  - { offsetInCU: 0xF109, offset: 0x66BDA, size: 0x8, addend: 0x0, symName: __ZNSt3__117__compressed_pairIP11PBRMaterialRNS_9allocatorIS1_EEE6secondB8ue170006Ev, symObjAddr: 0xEC58, symBinAddr: 0x1000B9EF0, symSize: 0x28 }
  - { offsetInCU: 0xF12D, offset: 0x66BFE, size: 0x8, addend: 0x0, symName: __ZNSt3__122__compressed_pair_elemIRNS_9allocatorI11PBRMaterialEELi1ELb0EE5__getB8ue170006Ev, symObjAddr: 0xEC80, symBinAddr: 0x1000B9F18, symSize: 0x60 }
  - { offsetInCU: 0xF151, offset: 0x66C22, size: 0x8, addend: 0x0, symName: __ZNSt3__117__compressed_pairIP11PBRMaterialRNS_9allocatorIS1_EEE5firstB8ue170006Ev, symObjAddr: 0xECE0, symBinAddr: 0x1000B9F78, symSize: 0x24 }
  - { offsetInCU: 0xF175, offset: 0x66C46, size: 0x8, addend: 0x0, symName: __ZNSt3__116reverse_iteratorIP11PBRMaterialEC1B8ue170006ES2_, symObjAddr: 0xF1AC, symBinAddr: 0x1000BA444, symSize: 0x34 }
  - { offsetInCU: 0xF1AB, offset: 0x66C7C, size: 0x8, addend: 0x0, symName: __ZNKSt3__116reverse_iteratorIP11PBRMaterialE4baseB8ue170006Ev, symObjAddr: 0xF1E0, symBinAddr: 0x1000BA478, symSize: 0x64 }
  - { offsetInCU: 0xF1E8, offset: 0x66CB9, size: 0x8, addend: 0x0, symName: __ZNKSt3__111__move_loopINS_17_ClassicAlgPolicyEEclB8ue170006INS_16reverse_iteratorIP11PBRMaterialEES7_S7_EENS_4pairIT_T1_EES9_T0_SA_, symObjAddr: 0x10E14, symBinAddr: 0x1000BBFD0, symSize: 0x344 }
  - { offsetInCU: 0xF25E, offset: 0x66D2F, size: 0x8, addend: 0x0, symName: __ZNSt3__18_IterOpsINS_17_ClassicAlgPolicyEE11__iter_moveB8ue170006IRNS_16reverse_iteratorIP11PBRMaterialEEEENS_9enable_ifIXsr12is_referenceIDTdeclsr3stdE7declvalIRT_EEEEE5valueEDTclsr3stdE4movedeclsr3stdE7declvalISB_EEEEE4typeEOSA_, symObjAddr: 0x11C80, symBinAddr: 0x1000BCE3C, symSize: 0x28 }
  - { offsetInCU: 0xF28A, offset: 0x66D5B, size: 0x8, addend: 0x0, symName: __ZNKSt3__116reverse_iteratorIP11PBRMaterialEdeB8ue170006Ev, symObjAddr: 0x11CA8, symBinAddr: 0x1000BCE64, symSize: 0x74 }
  - { offsetInCU: 0xF2BC, offset: 0x66D8D, size: 0x8, addend: 0x0, symName: __ZNSt3__116reverse_iteratorIP11PBRMaterialEppB8ue170006Ev, symObjAddr: 0x11D1C, symBinAddr: 0x1000BCED8, symSize: 0x6C }
  - { offsetInCU: 0xF2E0, offset: 0x66DB1, size: 0x8, addend: 0x0, symName: __ZNSt3__18_IterOpsINS_17_ClassicAlgPolicyEE25__validate_iter_referenceB8ue170006IRNS_16reverse_iteratorIP11PBRMaterialEEEEvv, symObjAddr: 0x11D88, symBinAddr: 0x1000BCF44, symSize: 0x4 }
  - { offsetInCU: 0xF2FE, offset: 0x66DCF, size: 0x8, addend: 0x0, symName: __ZNSt3__118__unwrap_iter_implINS_16reverse_iteratorIP11PBRMaterialEELb0EE8__unwrapB8ue170006ES4_, symObjAddr: 0x11D8C, symBinAddr: 0x1000BCF48, symSize: 0x274 }
  - { offsetInCU: 0xF32A, offset: 0x66DFB, size: 0x8, addend: 0x0, symName: __ZNSt3__14pairINS_16reverse_iteratorIP11PBRMaterialEES4_EC1B8ue170006IS4_S4_LPv0EEEOT_OT0_, symObjAddr: 0x12000, symBinAddr: 0x1000BD1BC, symSize: 0x3C }
  - { offsetInCU: 0xF386, offset: 0x66E57, size: 0x8, addend: 0x0, symName: __ZNSt3__14pairINS_16reverse_iteratorIP11PBRMaterialEES4_EC2B8ue170006IS4_S4_LPv0EEEOT_OT0_, symObjAddr: 0x1203C, symBinAddr: 0x1000BD1F8, symSize: 0x54 }
  - { offsetInCU: 0xF3E2, offset: 0x66EB3, size: 0x8, addend: 0x0, symName: __ZNSt3__118__unwrap_iter_implINS_16reverse_iteratorIP11PBRMaterialEELb0EE8__rewrapB8ue170006ES4_S4_, symObjAddr: 0x12090, symBinAddr: 0x1000BD24C, symSize: 0x2E0 }
  - { offsetInCU: 0xF418, offset: 0x66EE9, size: 0x8, addend: 0x0, symName: __ZNSt3__116reverse_iteratorIP11PBRMaterialEC2B8ue170006ES2_, symObjAddr: 0x12370, symBinAddr: 0x1000BD52C, symSize: 0xB8 }
  - { offsetInCU: 0xF44E, offset: 0x66F1F, size: 0x8, addend: 0x0, symName: __ZNSt3__114__split_bufferI11PBRMaterialRNS_9allocatorIS1_EEED2Ev, symObjAddr: 0x12428, symBinAddr: 0x1000BD5E4, symSize: 0x104 }
  - { offsetInCU: 0xF479, offset: 0x66F4A, size: 0x8, addend: 0x0, symName: __ZNSt3__114__split_bufferI11PBRMaterialRNS_9allocatorIS1_EEE5clearB8ue170006Ev, symObjAddr: 0x1252C, symBinAddr: 0x1000BD6E8, symSize: 0x68 }
  - { offsetInCU: 0xF49D, offset: 0x66F6E, size: 0x8, addend: 0x0, symName: __ZNKSt3__114__split_bufferI11PBRMaterialRNS_9allocatorIS1_EEE8capacityB8ue170006Ev, symObjAddr: 0x12594, symBinAddr: 0x1000BD750, symSize: 0xBC }
  - { offsetInCU: 0xF4C1, offset: 0x66F92, size: 0x8, addend: 0x0, symName: __ZNSt3__114__split_bufferI11PBRMaterialRNS_9allocatorIS1_EEE17__destruct_at_endB8ue170006EPS1_, symObjAddr: 0x12650, symBinAddr: 0x1000BD80C, symSize: 0x2C }
  - { offsetInCU: 0xF4F3, offset: 0x66FC4, size: 0x8, addend: 0x0, symName: __ZNSt3__114__split_bufferI11PBRMaterialRNS_9allocatorIS1_EEE17__destruct_at_endB8ue170006EPS1_NS_17integral_constantIbLb0EEE, symObjAddr: 0x1267C, symBinAddr: 0x1000BD838, symSize: 0x10C }
  - { offsetInCU: 0xF532, offset: 0x67003, size: 0x8, addend: 0x0, symName: __ZNKSt3__114__split_bufferI11PBRMaterialRNS_9allocatorIS1_EEE9__end_capB8ue170006Ev, symObjAddr: 0x12788, symBinAddr: 0x1000BD944, symSize: 0x28 }
  - { offsetInCU: 0xF556, offset: 0x67027, size: 0x8, addend: 0x0, symName: __ZNKSt3__117__compressed_pairIP11PBRMaterialRNS_9allocatorIS1_EEE5firstB8ue170006Ev, symObjAddr: 0x127B0, symBinAddr: 0x1000BD96C, symSize: 0x24 }
  - { offsetInCU: 0xF57A, offset: 0x6704B, size: 0x8, addend: 0x0, symName: __ZNSt3__16vectorINS_7variantIJ10PointLightEEENS_9allocatorIS3_EEE22__construct_one_at_endB8ue170006IJS2_EEEvDpOT_, symObjAddr: 0x127FC, symBinAddr: 0x1000BD990, symSize: 0x36C }
  - { offsetInCU: 0xF5CF, offset: 0x670A0, size: 0x8, addend: 0x0, symName: __ZNSt3__16vectorINS_7variantIJ10PointLightEEENS_9allocatorIS3_EEE24__emplace_back_slow_pathIJS2_EEEvDpOT_, symObjAddr: 0x12B68, symBinAddr: 0x1000BDCFC, symSize: 0x3C0 }
  - { offsetInCU: 0xF636, offset: 0x67107, size: 0x8, addend: 0x0, symName: __ZNSt3__16vectorINS_7variantIJ10PointLightEEENS_9allocatorIS3_EEE4backB8ue170006Ev, symObjAddr: 0x12F28, symBinAddr: 0x1000BE0BC, symSize: 0x68 }
  - { offsetInCU: 0xF673, offset: 0x67144, size: 0x8, addend: 0x0, symName: __ZNSt3__116allocator_traitsINS_9allocatorINS_7variantIJ10PointLightEEEEEE9constructB8ue170006IS4_JS3_EvEEvRS5_PT_DpOT0_, symObjAddr: 0x13004, symBinAddr: 0x1000BE124, symSize: 0x34 }
  - { offsetInCU: 0xF6CC, offset: 0x6719D, size: 0x8, addend: 0x0, symName: __ZNSt3__19allocatorINS_7variantIJ10PointLightEEEE9constructB8ue170006IS3_JS2_EEEvPT_DpOT0_, symObjAddr: 0x1330C, symBinAddr: 0x1000BE158, symSize: 0x30 }
  - { offsetInCU: 0xF722, offset: 0x671F3, size: 0x8, addend: 0x0, symName: __ZNSt3__17variantIJ10PointLightEEC1B8ue170006IS1_Li0ELi0ELi0ES1_Lm0ELi0EEEOT_, symObjAddr: 0x1333C, symBinAddr: 0x1000BE188, symSize: 0x34 }
  - { offsetInCU: 0xF791, offset: 0x67262, size: 0x8, addend: 0x0, symName: __ZNSt3__17variantIJ10PointLightEEC2B8ue170006IS1_Li0ELi0ELi0ES1_Lm0ELi0EEEOT_, symObjAddr: 0x13370, symBinAddr: 0x1000BE1BC, symSize: 0x48 }
  - { offsetInCU: 0xF800, offset: 0x672D1, size: 0x8, addend: 0x0, symName: __ZNSt3__116__variant_detail6__implIJ10PointLightEECI1NS0_6__baseILNS0_6_TraitE0EJS2_EEEILm0EJS2_EEENS_16in_place_index_tIXT_EEEDpOT0_, symObjAddr: 0x133B8, symBinAddr: 0x1000BE204, symSize: 0x34 }
  - { offsetInCU: 0xF83E, offset: 0x6730F, size: 0x8, addend: 0x0, symName: __ZNSt3__116__variant_detail6__implIJ10PointLightEECI2NS0_6__baseILNS0_6_TraitE0EJS2_EEEILm0EJS2_EEENS_16in_place_index_tIXT_EEEDpOT0_, symObjAddr: 0x133EC, symBinAddr: 0x1000BE238, symSize: 0x34 }
  - { offsetInCU: 0xF87C, offset: 0x6734D, size: 0x8, addend: 0x0, symName: __ZNSt3__116__variant_detail17__copy_assignmentINS0_8__traitsIJ10PointLightEEELNS0_6_TraitE0EECI2NS0_6__baseILS5_0EJS3_EEEILm0EJS3_EEENS_16in_place_index_tIXT_EEEDpOT0_, symObjAddr: 0x13420, symBinAddr: 0x1000BE26C, symSize: 0x34 }
  - { offsetInCU: 0xF8BA, offset: 0x6738B, size: 0x8, addend: 0x0, symName: __ZNSt3__116__variant_detail17__move_assignmentINS0_8__traitsIJ10PointLightEEELNS0_6_TraitE0EECI2NS0_6__baseILS5_0EJS3_EEEILm0EJS3_EEENS_16in_place_index_tIXT_EEEDpOT0_, symObjAddr: 0x13454, symBinAddr: 0x1000BE2A0, symSize: 0x34 }
  - { offsetInCU: 0xF8FD, offset: 0x673CE, size: 0x8, addend: 0x0, symName: __ZNSt3__116__variant_detail12__assignmentINS0_8__traitsIJ10PointLightEEEECI2NS0_6__baseILNS0_6_TraitE0EJS3_EEEILm0EJS3_EEENS_16in_place_index_tIXT_EEEDpOT0_, symObjAddr: 0x13488, symBinAddr: 0x1000BE2D4, symSize: 0x34 }
  - { offsetInCU: 0xF93B, offset: 0x6740C, size: 0x8, addend: 0x0, symName: __ZNSt3__116__variant_detail18__copy_constructorINS0_8__traitsIJ10PointLightEEELNS0_6_TraitE0EECI2NS0_6__baseILS5_0EJS3_EEEILm0EJS3_EEENS_16in_place_index_tIXT_EEEDpOT0_, symObjAddr: 0x134BC, symBinAddr: 0x1000BE308, symSize: 0x34 }
  - { offsetInCU: 0xF979, offset: 0x6744A, size: 0x8, addend: 0x0, symName: __ZNSt3__116__variant_detail18__move_constructorINS0_8__traitsIJ10PointLightEEELNS0_6_TraitE0EECI2NS0_6__baseILS5_0EJS3_EEEILm0EJS3_EEENS_16in_place_index_tIXT_EEEDpOT0_, symObjAddr: 0x134F0, symBinAddr: 0x1000BE33C, symSize: 0x34 }
  - { offsetInCU: 0xF9BC, offset: 0x6748D, size: 0x8, addend: 0x0, symName: __ZNSt3__116__variant_detail6__ctorINS0_8__traitsIJ10PointLightEEEECI2NS0_6__baseILNS0_6_TraitE0EJS3_EEEILm0EJS3_EEENS_16in_place_index_tIXT_EEEDpOT0_, symObjAddr: 0x13524, symBinAddr: 0x1000BE370, symSize: 0x34 }
  - { offsetInCU: 0xF9FA, offset: 0x674CB, size: 0x8, addend: 0x0, symName: __ZNSt3__116__variant_detail6__dtorINS0_8__traitsIJ10PointLightEEELNS0_6_TraitE0EECI2NS0_6__baseILS5_0EJS3_EEEILm0EJS3_EEENS_16in_place_index_tIXT_EEEDpOT0_, symObjAddr: 0x13558, symBinAddr: 0x1000BE3A4, symSize: 0x34 }
  - { offsetInCU: 0xFA38, offset: 0x67509, size: 0x8, addend: 0x0, symName: __ZNSt3__116__variant_detail6__baseILNS0_6_TraitE0EJ10PointLightEEC2B8ue170006ILm0EJS3_EEENS_16in_place_index_tIXT_EEEDpOT0_, symObjAddr: 0x1358C, symBinAddr: 0x1000BE3D8, symSize: 0xA4 }
  - { offsetInCU: 0xFA92, offset: 0x67563, size: 0x8, addend: 0x0, symName: __ZNSt3__116__variant_detail7__unionILNS0_6_TraitE0ELm0EJ10PointLightEEC1B8ue170006IJS3_EEENS_16in_place_index_tILm0EEEDpOT_, symObjAddr: 0x13630, symBinAddr: 0x1000BE47C, symSize: 0x34 }
  - { offsetInCU: 0xFAE2, offset: 0x675B3, size: 0x8, addend: 0x0, symName: __ZNSt3__116__variant_detail7__unionILNS0_6_TraitE0ELm0EJ10PointLightEEC2B8ue170006IJS3_EEENS_16in_place_index_tILm0EEEDpOT_, symObjAddr: 0x13664, symBinAddr: 0x1000BE4B0, symSize: 0x34 }
  - { offsetInCU: 0xFB37, offset: 0x67608, size: 0x8, addend: 0x0, symName: __ZNSt3__116__variant_detail5__altILm0E10PointLightEC1B8ue170006IJS2_EEENS_10in_place_tEDpOT_, symObjAddr: 0x13698, symBinAddr: 0x1000BE4E4, symSize: 0x34 }
  - { offsetInCU: 0xFB87, offset: 0x67658, size: 0x8, addend: 0x0, symName: __ZNSt3__116__variant_detail5__altILm0E10PointLightEC2B8ue170006IJS2_EEENS_10in_place_tEDpOT_, symObjAddr: 0x136CC, symBinAddr: 0x1000BE518, symSize: 0x38 }
  - { offsetInCU: 0xFBD7, offset: 0x676A8, size: 0x8, addend: 0x0, symName: __ZNKSt3__16vectorINS_7variantIJ10PointLightEEENS_9allocatorIS3_EEE11__recommendB8ue170006Em, symObjAddr: 0x13A44, symBinAddr: 0x1000BE550, symSize: 0x384 }
  - { offsetInCU: 0xFC31, offset: 0x67702, size: 0x8, addend: 0x0, symName: __ZNSt3__114__split_bufferINS_7variantIJ10PointLightEEERNS_9allocatorIS3_EEEC1EmmS6_, symObjAddr: 0x13DC8, symBinAddr: 0x1000BE8D4, symSize: 0x44 }
  - { offsetInCU: 0xFC86, offset: 0x67757, size: 0x8, addend: 0x0, symName: __ZNSt3__114__split_bufferINS_7variantIJ10PointLightEEERNS_9allocatorIS3_EEED1Ev, symObjAddr: 0x14378, symBinAddr: 0x1000BEE84, symSize: 0x2C }
  - { offsetInCU: 0xFCBB, offset: 0x6778C, size: 0x8, addend: 0x0, symName: __ZNSt3__114__split_bufferINS_7variantIJ10PointLightEEERNS_9allocatorIS3_EEEC2EmmS6_, symObjAddr: 0x14758, symBinAddr: 0x1000BEEB0, symSize: 0x520 }
  - { offsetInCU: 0xFD35, offset: 0x67806, size: 0x8, addend: 0x0, symName: __ZNSt3__117__compressed_pairIPNS_7variantIJ10PointLightEEERNS_9allocatorIS3_EEEC1B8ue170006IDnS7_EEOT_OT0_, symObjAddr: 0x14C78, symBinAddr: 0x1000BF3D0, symSize: 0x3C }
  - { offsetInCU: 0xFD8B, offset: 0x6785C, size: 0x8, addend: 0x0, symName: __ZNSt3__114__split_bufferINS_7variantIJ10PointLightEEERNS_9allocatorIS3_EEE7__allocB8ue170006Ev, symObjAddr: 0x14F40, symBinAddr: 0x1000BF40C, symSize: 0x28 }
  - { offsetInCU: 0xFDAF, offset: 0x67880, size: 0x8, addend: 0x0, symName: __ZNSt3__114__split_bufferINS_7variantIJ10PointLightEEERNS_9allocatorIS3_EEE9__end_capB8ue170006Ev, symObjAddr: 0x14F68, symBinAddr: 0x1000BF434, symSize: 0x28 }
  - { offsetInCU: 0xFDD3, offset: 0x678A4, size: 0x8, addend: 0x0, symName: __ZNSt3__117__compressed_pairIPNS_7variantIJ10PointLightEEERNS_9allocatorIS3_EEEC2B8ue170006IDnS7_EEOT_OT0_, symObjAddr: 0x14F90, symBinAddr: 0x1000BF45C, symSize: 0x48 }
  - { offsetInCU: 0xFE29, offset: 0x678FA, size: 0x8, addend: 0x0, symName: __ZNSt3__122__compressed_pair_elemIRNS_9allocatorINS_7variantIJ10PointLightEEEEELi1ELb0EEC2B8ue170006IS6_vEEOT_, symObjAddr: 0x14FD8, symBinAddr: 0x1000BF4A4, symSize: 0x70 }
  - { offsetInCU: 0xFE69, offset: 0x6793A, size: 0x8, addend: 0x0, symName: __ZNSt3__117__compressed_pairIPNS_7variantIJ10PointLightEEERNS_9allocatorIS3_EEE6secondB8ue170006Ev, symObjAddr: 0x150A4, symBinAddr: 0x1000BF514, symSize: 0x28 }
  - { offsetInCU: 0xFE8D, offset: 0x6795E, size: 0x8, addend: 0x0, symName: __ZNSt3__122__compressed_pair_elemIRNS_9allocatorINS_7variantIJ10PointLightEEEEELi1ELb0EE5__getB8ue170006Ev, symObjAddr: 0x150CC, symBinAddr: 0x1000BF53C, symSize: 0x60 }
  - { offsetInCU: 0xFEB1, offset: 0x67982, size: 0x8, addend: 0x0, symName: __ZNSt3__117__compressed_pairIPNS_7variantIJ10PointLightEEERNS_9allocatorIS3_EEE5firstB8ue170006Ev, symObjAddr: 0x1512C, symBinAddr: 0x1000BF59C, symSize: 0x24 }
  - { offsetInCU: 0xFED5, offset: 0x679A6, size: 0x8, addend: 0x0, symName: __ZNSt3__116reverse_iteratorIPNS_7variantIJ10PointLightEEEEC1B8ue170006ES4_, symObjAddr: 0x155F8, symBinAddr: 0x1000BFA68, symSize: 0x34 }
  - { offsetInCU: 0xFF0B, offset: 0x679DC, size: 0x8, addend: 0x0, symName: __ZNKSt3__116reverse_iteratorIPNS_7variantIJ10PointLightEEEE4baseB8ue170006Ev, symObjAddr: 0x1562C, symBinAddr: 0x1000BFA9C, symSize: 0x64 }
  - { offsetInCU: 0xFF48, offset: 0x67A19, size: 0x8, addend: 0x0, symName: __ZNKSt3__111__move_loopINS_17_ClassicAlgPolicyEEclB8ue170006INS_16reverse_iteratorIPNS_7variantIJ10PointLightEEEEES9_S9_EENS_4pairIT_T1_EESB_T0_SC_, symObjAddr: 0x17244, symBinAddr: 0x1000C15F4, symSize: 0x344 }
  - { offsetInCU: 0xFFBE, offset: 0x67A8F, size: 0x8, addend: 0x0, symName: __ZNSt3__18_IterOpsINS_17_ClassicAlgPolicyEE11__iter_moveB8ue170006IRNS_16reverse_iteratorIPNS_7variantIJ10PointLightEEEEEEENS_9enable_ifIXsr12is_referenceIDTdeclsr3stdE7declvalIRT_EEEEE5valueEDTclsr3stdE4movedeclsr3stdE7declvalISD_EEEEE4typeEOSC_, symObjAddr: 0x180B0, symBinAddr: 0x1000C2460, symSize: 0x28 }
  - { offsetInCU: 0xFFEA, offset: 0x67ABB, size: 0x8, addend: 0x0, symName: __ZNKSt3__116reverse_iteratorIPNS_7variantIJ10PointLightEEEEdeB8ue170006Ev, symObjAddr: 0x180D8, symBinAddr: 0x1000C2488, symSize: 0x74 }
  - { offsetInCU: 0x1001C, offset: 0x67AED, size: 0x8, addend: 0x0, symName: __ZNSt3__116reverse_iteratorIPNS_7variantIJ10PointLightEEEEppB8ue170006Ev, symObjAddr: 0x1814C, symBinAddr: 0x1000C24FC, symSize: 0x6C }
  - { offsetInCU: 0x10040, offset: 0x67B11, size: 0x8, addend: 0x0, symName: __ZNSt3__18_IterOpsINS_17_ClassicAlgPolicyEE25__validate_iter_referenceB8ue170006IRNS_16reverse_iteratorIPNS_7variantIJ10PointLightEEEEEEEvv, symObjAddr: 0x181B8, symBinAddr: 0x1000C2568, symSize: 0x4 }
  - { offsetInCU: 0x1005E, offset: 0x67B2F, size: 0x8, addend: 0x0, symName: __ZNSt3__118__unwrap_iter_implINS_16reverse_iteratorIPNS_7variantIJ10PointLightEEEEELb0EE8__unwrapB8ue170006ES6_, symObjAddr: 0x181BC, symBinAddr: 0x1000C256C, symSize: 0x274 }
  - { offsetInCU: 0x1008A, offset: 0x67B5B, size: 0x8, addend: 0x0, symName: __ZNSt3__14pairINS_16reverse_iteratorIPNS_7variantIJ10PointLightEEEEES6_EC1B8ue170006IS6_S6_LPv0EEEOT_OT0_, symObjAddr: 0x18430, symBinAddr: 0x1000C27E0, symSize: 0x3C }
  - { offsetInCU: 0x100E6, offset: 0x67BB7, size: 0x8, addend: 0x0, symName: __ZNSt3__14pairINS_16reverse_iteratorIPNS_7variantIJ10PointLightEEEEES6_EC2B8ue170006IS6_S6_LPv0EEEOT_OT0_, symObjAddr: 0x1846C, symBinAddr: 0x1000C281C, symSize: 0x54 }
  - { offsetInCU: 0x10142, offset: 0x67C13, size: 0x8, addend: 0x0, symName: __ZNSt3__118__unwrap_iter_implINS_16reverse_iteratorIPNS_7variantIJ10PointLightEEEEELb0EE8__rewrapB8ue170006ES6_S6_, symObjAddr: 0x184C0, symBinAddr: 0x1000C2870, symSize: 0x2E0 }
  - { offsetInCU: 0x10178, offset: 0x67C49, size: 0x8, addend: 0x0, symName: __ZNSt3__116reverse_iteratorIPNS_7variantIJ10PointLightEEEEC2B8ue170006ES4_, symObjAddr: 0x187A0, symBinAddr: 0x1000C2B50, symSize: 0xB8 }
  - { offsetInCU: 0x101AE, offset: 0x67C7F, size: 0x8, addend: 0x0, symName: __ZNSt3__114__split_bufferINS_7variantIJ10PointLightEEERNS_9allocatorIS3_EEED2Ev, symObjAddr: 0x18858, symBinAddr: 0x1000C2C08, symSize: 0x104 }
  - { offsetInCU: 0x101D9, offset: 0x67CAA, size: 0x8, addend: 0x0, symName: __ZNSt3__114__split_bufferINS_7variantIJ10PointLightEEERNS_9allocatorIS3_EEE5clearB8ue170006Ev, symObjAddr: 0x1895C, symBinAddr: 0x1000C2D0C, symSize: 0x68 }
  - { offsetInCU: 0x101FD, offset: 0x67CCE, size: 0x8, addend: 0x0, symName: __ZNKSt3__114__split_bufferINS_7variantIJ10PointLightEEERNS_9allocatorIS3_EEE8capacityB8ue170006Ev, symObjAddr: 0x189C4, symBinAddr: 0x1000C2D74, symSize: 0xBC }
  - { offsetInCU: 0x10221, offset: 0x67CF2, size: 0x8, addend: 0x0, symName: __ZNSt3__114__split_bufferINS_7variantIJ10PointLightEEERNS_9allocatorIS3_EEE17__destruct_at_endB8ue170006EPS3_, symObjAddr: 0x18A80, symBinAddr: 0x1000C2E30, symSize: 0x2C }
  - { offsetInCU: 0x10253, offset: 0x67D24, size: 0x8, addend: 0x0, symName: __ZNSt3__114__split_bufferINS_7variantIJ10PointLightEEERNS_9allocatorIS3_EEE17__destruct_at_endB8ue170006EPS3_NS_17integral_constantIbLb0EEE, symObjAddr: 0x18AAC, symBinAddr: 0x1000C2E5C, symSize: 0x10C }
  - { offsetInCU: 0x10292, offset: 0x67D63, size: 0x8, addend: 0x0, symName: __ZNKSt3__114__split_bufferINS_7variantIJ10PointLightEEERNS_9allocatorIS3_EEE9__end_capB8ue170006Ev, symObjAddr: 0x18BB8, symBinAddr: 0x1000C2F68, symSize: 0x28 }
  - { offsetInCU: 0x102B6, offset: 0x67D87, size: 0x8, addend: 0x0, symName: __ZNKSt3__117__compressed_pairIPNS_7variantIJ10PointLightEEERNS_9allocatorIS3_EEE5firstB8ue170006Ev, symObjAddr: 0x18BE0, symBinAddr: 0x1000C2F90, symSize: 0x24 }
  - { offsetInCU: 0x102DA, offset: 0x67DAB, size: 0x8, addend: 0x0, symName: __ZNSt3__112basic_stringIcNS_11char_traitsIcEENS_9allocatorIcEEE6insertB8ue170006EmRKS5_, symObjAddr: 0x18C04, symBinAddr: 0x1000C2FB4, symSize: 0x5C }
  - { offsetInCU: 0x1031C, offset: 0x67DED, size: 0x8, addend: 0x0, symName: __ZNSt3__112basic_stringIcNS_11char_traitsIcEENS_9allocatorIcEEEC1B8ue170006EOS5_, symObjAddr: 0x18C60, symBinAddr: 0x1000C3010, symSize: 0x34 }
  - { offsetInCU: 0x10353, offset: 0x67E24, size: 0x8, addend: 0x0, symName: __ZNKSt3__112basic_stringIcNS_11char_traitsIcEENS_9allocatorIcEEE4dataB8ue170006Ev, symObjAddr: 0x18C94, symBinAddr: 0x1000C3044, symSize: 0x28 }
  - { offsetInCU: 0x10377, offset: 0x67E48, size: 0x8, addend: 0x0, symName: __ZNKSt3__112basic_stringIcNS_11char_traitsIcEENS_9allocatorIcEEE4sizeB8ue170006Ev, symObjAddr: 0x18CBC, symBinAddr: 0x1000C306C, symSize: 0x54 }
  - { offsetInCU: 0x1039B, offset: 0x67E6C, size: 0x8, addend: 0x0, symName: __ZNKSt3__112basic_stringIcNS_11char_traitsIcEENS_9allocatorIcEEE13__get_pointerB8ue170006Ev, symObjAddr: 0x18D24, symBinAddr: 0x1000C30D4, symSize: 0x54 }
  - { offsetInCU: 0x103BF, offset: 0x67E90, size: 0x8, addend: 0x0, symName: __ZNKSt3__112basic_stringIcNS_11char_traitsIcEENS_9allocatorIcEEE18__get_long_pointerB8ue170006Ev, symObjAddr: 0x18E1C, symBinAddr: 0x1000C3128, symSize: 0x6C }
  - { offsetInCU: 0x103E3, offset: 0x67EB4, size: 0x8, addend: 0x0, symName: __ZNKSt3__112basic_stringIcNS_11char_traitsIcEENS_9allocatorIcEEE19__get_short_pointerB8ue170006Ev, symObjAddr: 0x18E88, symBinAddr: 0x1000C3194, symSize: 0x28 }
  - { offsetInCU: 0x10407, offset: 0x67ED8, size: 0x8, addend: 0x0, symName: __ZNSt3__114pointer_traitsIPKcE10pointer_toB8ue170006ERS1_, symObjAddr: 0x18EE8, symBinAddr: 0x1000C31BC, symSize: 0x14 }
  - { offsetInCU: 0x1042A, offset: 0x67EFB, size: 0x8, addend: 0x0, symName: __ZNKSt3__112basic_stringIcNS_11char_traitsIcEENS_9allocatorIcEEE15__get_long_sizeB8ue170006Ev, symObjAddr: 0x18EFC, symBinAddr: 0x1000C31D0, symSize: 0x70 }
  - { offsetInCU: 0x1044E, offset: 0x67F1F, size: 0x8, addend: 0x0, symName: __ZNKSt3__112basic_stringIcNS_11char_traitsIcEENS_9allocatorIcEEE16__get_short_sizeB8ue170006Ev, symObjAddr: 0x18F6C, symBinAddr: 0x1000C3240, symSize: 0xA0 }
  - { offsetInCU: 0x10472, offset: 0x67F43, size: 0x8, addend: 0x0, symName: __ZNSt3__112basic_stringIcNS_11char_traitsIcEENS_9allocatorIcEEEC2B8ue170006EOS5_, symObjAddr: 0x1900C, symBinAddr: 0x1000C32E0, symSize: 0x54 }
  - { offsetInCU: 0x104A9, offset: 0x67F7A, size: 0x8, addend: 0x0, symName: __ZNSt3__112basic_stringIcNS_11char_traitsIcEENS_9allocatorIcEEE14__default_initB8ue170006Ev, symObjAddr: 0x19060, symBinAddr: 0x1000C3334, symSize: 0x22C }
  - { offsetInCU: 0x104D8, offset: 0x67FA9, size: 0x8, addend: 0x0, symName: __ZNSt3__116allocator_traitsINS_9allocatorIcEEE37select_on_container_copy_constructionB8ue170006IS2_vvEES2_RKS2_, symObjAddr: 0x192C4, symBinAddr: 0x1000C3560, symSize: 0x10 }
  - { offsetInCU: 0x10507, offset: 0x67FD8, size: 0x8, addend: 0x0, symName: __ZNKSt3__112basic_stringIcNS_11char_traitsIcEENS_9allocatorIcEEE13get_allocatorB8ue170006Ev, symObjAddr: 0x192D4, symBinAddr: 0x1000C3570, symSize: 0x24 }
  - { offsetInCU: 0x1052B, offset: 0x67FFC, size: 0x8, addend: 0x0, symName: __ZNSt3__112basic_stringIcNS_11char_traitsIcEENS_9allocatorIcEEEC1B8ue170006ENS_24__uninitialized_size_tagEmRKS4_, symObjAddr: 0x192F8, symBinAddr: 0x1000C3594, symSize: 0x3C }
  - { offsetInCU: 0x1057D, offset: 0x6804E, size: 0x8, addend: 0x0, symName: __ZNSt3__111char_traitsIcE4copyB8ue170006EPcPKcm, symObjAddr: 0x1939C, symBinAddr: 0x1000C35D0, symSize: 0x4C }
  - { offsetInCU: 0x105BC, offset: 0x6808D, size: 0x8, addend: 0x0, symName: __ZNSt3__111char_traitsIcE6assignB8ue170006EPcmc, symObjAddr: 0x193E8, symBinAddr: 0x1000C361C, symSize: 0x23C }
  - { offsetInCU: 0x10601, offset: 0x680D2, size: 0x8, addend: 0x0, symName: __ZNKSt3__112basic_stringIcNS_11char_traitsIcEENS_9allocatorIcEEE7__allocB8ue170006Ev, symObjAddr: 0x19624, symBinAddr: 0x1000C3858, symSize: 0x24 }
  - { offsetInCU: 0x10625, offset: 0x680F6, size: 0x8, addend: 0x0, symName: __ZNKSt3__117__compressed_pairINS_12basic_stringIcNS_11char_traitsIcEENS_9allocatorIcEEE5__repES5_E6secondB8ue170006Ev, symObjAddr: 0x19648, symBinAddr: 0x1000C387C, symSize: 0x24 }
  - { offsetInCU: 0x10649, offset: 0x6811A, size: 0x8, addend: 0x0, symName: __ZNKSt3__122__compressed_pair_elemINS_9allocatorIcEELi1ELb1EE5__getB8ue170006Ev, symObjAddr: 0x1966C, symBinAddr: 0x1000C38A0, symSize: 0x14 }
  - { offsetInCU: 0x1066D, offset: 0x6813E, size: 0x8, addend: 0x0, symName: __ZNSt3__112basic_stringIcNS_11char_traitsIcEENS_9allocatorIcEEEC2B8ue170006ENS_24__uninitialized_size_tagEmRKS4_, symObjAddr: 0x19680, symBinAddr: 0x1000C38B4, symSize: 0x324 }
  - { offsetInCU: 0x106F1, offset: 0x681C2, size: 0x8, addend: 0x0, symName: __ZNSt3__117__compressed_pairINS_12basic_stringIcNS_11char_traitsIcEENS_9allocatorIcEEE5__repES5_EC1B8ue170006INS_18__default_init_tagERKS5_EEOT_OT0_, symObjAddr: 0x199A4, symBinAddr: 0x1000C3BD8, symSize: 0x3C }
  - { offsetInCU: 0x10747, offset: 0x68218, size: 0x8, addend: 0x0, symName: __ZNKSt3__112basic_stringIcNS_11char_traitsIcEENS_9allocatorIcEEE8max_sizeB8ue170006Ev, symObjAddr: 0x199E0, symBinAddr: 0x1000C3C14, symSize: 0xBC }
  - { offsetInCU: 0x10797, offset: 0x68268, size: 0x8, addend: 0x0, symName: __ZNKSt3__112basic_stringIcNS_11char_traitsIcEENS_9allocatorIcEEE20__throw_length_errorB8ue170006Ev, symObjAddr: 0x19A9C, symBinAddr: 0x1000C3CD0, symSize: 0x20 }
  - { offsetInCU: 0x107BB, offset: 0x6828C, size: 0x8, addend: 0x0, symName: __ZNSt3__112basic_stringIcNS_11char_traitsIcEENS_9allocatorIcEEE13__fits_in_ssoB8ue170006Em, symObjAddr: 0x19ABC, symBinAddr: 0x1000C3CF0, symSize: 0x20 }
  - { offsetInCU: 0x107DF, offset: 0x682B0, size: 0x8, addend: 0x0, symName: __ZNSt3__112basic_stringIcNS_11char_traitsIcEENS_9allocatorIcEEE16__set_short_sizeB8ue170006Em, symObjAddr: 0x19ADC, symBinAddr: 0x1000C3D10, symSize: 0x130 }
  - { offsetInCU: 0x10812, offset: 0x682E3, size: 0x8, addend: 0x0, symName: __ZNSt3__112basic_stringIcNS_11char_traitsIcEENS_9allocatorIcEEE11__recommendB8ue170006Em, symObjAddr: 0x19C0C, symBinAddr: 0x1000C3E40, symSize: 0x84 }
  - { offsetInCU: 0x10845, offset: 0x68316, size: 0x8, addend: 0x0, symName: __ZNSt3__116allocator_traitsINS_9allocatorIcEEE8allocateB8ue170006ERS2_m, symObjAddr: 0x19C90, symBinAddr: 0x1000C3EC4, symSize: 0x2C }
  - { offsetInCU: 0x10878, offset: 0x68349, size: 0x8, addend: 0x0, symName: __ZNSt3__112basic_stringIcNS_11char_traitsIcEENS_9allocatorIcEEE7__allocB8ue170006Ev, symObjAddr: 0x19CBC, symBinAddr: 0x1000C3EF0, symSize: 0x24 }
  - { offsetInCU: 0x1089C, offset: 0x6836D, size: 0x8, addend: 0x0, symName: __ZNSt3__112basic_stringIcNS_11char_traitsIcEENS_9allocatorIcEEE16__begin_lifetimeB8ue170006EPcm, symObjAddr: 0x19CE0, symBinAddr: 0x1000C3F14, symSize: 0x14 }
  - { offsetInCU: 0x108CF, offset: 0x683A0, size: 0x8, addend: 0x0, symName: __ZNSt3__112basic_stringIcNS_11char_traitsIcEENS_9allocatorIcEEE14__set_long_capB8ue170006Em, symObjAddr: 0x19CF4, symBinAddr: 0x1000C3F28, symSize: 0xEC }
  - { offsetInCU: 0x10902, offset: 0x683D3, size: 0x8, addend: 0x0, symName: __ZNSt3__112basic_stringIcNS_11char_traitsIcEENS_9allocatorIcEEE18__set_long_pointerB8ue170006EPc, symObjAddr: 0x19DE0, symBinAddr: 0x1000C4014, symSize: 0x7C }
  - { offsetInCU: 0x10935, offset: 0x68406, size: 0x8, addend: 0x0, symName: __ZNSt3__112basic_stringIcNS_11char_traitsIcEENS_9allocatorIcEEE15__set_long_sizeB8ue170006Em, symObjAddr: 0x19E5C, symBinAddr: 0x1000C4090, symSize: 0x80 }
  - { offsetInCU: 0x10968, offset: 0x68439, size: 0x8, addend: 0x0, symName: __ZNSt3__117__compressed_pairINS_12basic_stringIcNS_11char_traitsIcEENS_9allocatorIcEEE5__repES5_EC2B8ue170006INS_18__default_init_tagERKS5_EEOT_OT0_, symObjAddr: 0x19EDC, symBinAddr: 0x1000C4110, symSize: 0x40 }
  - { offsetInCU: 0x109BE, offset: 0x6848F, size: 0x8, addend: 0x0, symName: __ZNSt3__122__compressed_pair_elemINS_9allocatorIcEELi1ELb1EEC2B8ue170006IRKS2_vEEOT_, symObjAddr: 0x19F1C, symBinAddr: 0x1000C4150, symSize: 0x18 }
  - { offsetInCU: 0x109FF, offset: 0x684D0, size: 0x8, addend: 0x0, symName: __ZNSt3__116allocator_traitsINS_9allocatorIcEEE8max_sizeB8ue170006IS2_vEEmRKS2_, symObjAddr: 0x19F34, symBinAddr: 0x1000C4168, symSize: 0x24 }
  - { offsetInCU: 0x10A2D, offset: 0x684FE, size: 0x8, addend: 0x0, symName: __ZNSt3__114numeric_limitsImE3maxB8ue170006Ev, symObjAddr: 0x19F58, symBinAddr: 0x1000C418C, symSize: 0x14 }
  - { offsetInCU: 0x10A40, offset: 0x68511, size: 0x8, addend: 0x0, symName: __ZNKSt3__19allocatorIcE8max_sizeB8ue170006Ev, symObjAddr: 0x19F6C, symBinAddr: 0x1000C41A0, symSize: 0x14 }
  - { offsetInCU: 0x10A64, offset: 0x68535, size: 0x8, addend: 0x0, symName: __ZNSt3__123__libcpp_numeric_limitsImLb1EE3maxB8ue170006Ev, symObjAddr: 0x19F80, symBinAddr: 0x1000C41B4, symSize: 0x8 }
  - { offsetInCU: 0x10A78, offset: 0x68549, size: 0x8, addend: 0x0, symName: __ZNSt3__112basic_stringIcNS_11char_traitsIcEENS_9allocatorIcEEE10__align_itB8ue170006ILm16EEEmm, symObjAddr: 0x19F88, symBinAddr: 0x1000C41BC, symSize: 0x1C }
  - { offsetInCU: 0x10AA6, offset: 0x68577, size: 0x8, addend: 0x0, symName: __ZNSt3__19allocatorIcE8allocateB8ue170006Em, symObjAddr: 0x19FA4, symBinAddr: 0x1000C41D8, symSize: 0x5C }
  - { offsetInCU: 0x10AD8, offset: 0x685A9, size: 0x8, addend: 0x0, symName: __ZNSt3__117__compressed_pairINS_12basic_stringIcNS_11char_traitsIcEENS_9allocatorIcEEE5__repES5_E6secondB8ue170006Ev, symObjAddr: 0x1A000, symBinAddr: 0x1000C4234, symSize: 0x24 }
  - { offsetInCU: 0x10AFC, offset: 0x685CD, size: 0x8, addend: 0x0, symName: __ZNSt3__122__compressed_pair_elemINS_9allocatorIcEELi1ELb1EE5__getB8ue170006Ev, symObjAddr: 0x1A024, symBinAddr: 0x1000C4258, symSize: 0x14 }
  - { offsetInCU: 0x10B43, offset: 0x68614, size: 0x8, addend: 0x0, symName: __ZNKSt3__114__copy_trivialclB8ue170006IKccLi0EEENS_4pairIPT_PT0_EES5_S5_S7_, symObjAddr: 0x1B0DC, symBinAddr: 0x1000C5268, symSize: 0x230 }
  - { offsetInCU: 0x10BCC, offset: 0x6869D, size: 0x8, addend: 0x0, symName: __ZNSt3__14pairIPKcS2_EC1B8ue170006IS2_S2_LPv0EEEOT_OT0_, symObjAddr: 0x1B7E0, symBinAddr: 0x1000C596C, symSize: 0x3C }
  - { offsetInCU: 0x10C28, offset: 0x686F9, size: 0x8, addend: 0x0, symName: __ZNSt3__14pairIPKcS2_EC2B8ue170006IS2_S2_LPv0EEEOT_OT0_, symObjAddr: 0x1B81C, symBinAddr: 0x1000C59A8, symSize: 0x138 }
  - { offsetInCU: 0x10C84, offset: 0x68755, size: 0x8, addend: 0x0, symName: __ZNSt3__118__unwrap_iter_implIPKcLb1EE8__unwrapB8ue170006ES2_, symObjAddr: 0x1B954, symBinAddr: 0x1000C5AE0, symSize: 0x24 }
  - { offsetInCU: 0x10CB1, offset: 0x68782, size: 0x8, addend: 0x0, symName: __ZNSt3__14pairIPKcPcEC1B8ue170006IRS2_S3_LPv0EEEOT_OT0_, symObjAddr: 0x1BF94, symBinAddr: 0x1000C6120, symSize: 0x3C }
  - { offsetInCU: 0x10D0D, offset: 0x687DE, size: 0x8, addend: 0x0, symName: __ZNSt3__14pairIPKcPcEC2B8ue170006IRS2_S3_LPv0EEEOT_OT0_, symObjAddr: 0x1BFD0, symBinAddr: 0x1000C615C, symSize: 0x138 }
  - { offsetInCU: 0x10D69, offset: 0x6883A, size: 0x8, addend: 0x0, symName: __ZNSt3__118__unwrap_iter_implIPcLb1EE8__unwrapB8ue170006ES1_, symObjAddr: 0x1C108, symBinAddr: 0x1000C6294, symSize: 0x24 }
  - { offsetInCU: 0x10D8C, offset: 0x6885D, size: 0x8, addend: 0x0, symName: __ZNSt3__14pairIPKcPcEC1B8ue170006IS2_S3_LPv0EEEOT_OT0_, symObjAddr: 0x1C12C, symBinAddr: 0x1000C62B8, symSize: 0x3C }
  - { offsetInCU: 0x10DE8, offset: 0x688B9, size: 0x8, addend: 0x0, symName: __ZNSt3__14pairIPKcPcEC2B8ue170006IS2_S3_LPv0EEEOT_OT0_, symObjAddr: 0x1C168, symBinAddr: 0x1000C62F4, symSize: 0x138 }
  - { offsetInCU: 0x10E44, offset: 0x68915, size: 0x8, addend: 0x0, symName: __ZNSt3__118__unwrap_iter_implIPKcLb1EE8__rewrapB8ue170006ES2_S2_, symObjAddr: 0x1C2E8, symBinAddr: 0x1000C6474, symSize: 0x48 }
  - { offsetInCU: 0x10E75, offset: 0x68946, size: 0x8, addend: 0x0, symName: __ZNSt3__118__unwrap_iter_implIPcLb1EE8__rewrapB8ue170006ES1_S1_, symObjAddr: 0x1C330, symBinAddr: 0x1000C64BC, symSize: 0x48 }
  - { offsetInCU: 0x10EA6, offset: 0x68977, size: 0x8, addend: 0x0, symName: __ZNSt3__19allocatorI5SceneEC1B8ue170006Ev, symObjAddr: 0x1C808, symBinAddr: 0x1000C6994, symSize: 0x2C }
  - { offsetInCU: 0x10F19, offset: 0x689EA, size: 0x8, addend: 0x0, symName: __ZNSt3__118__allocation_guardINS_9allocatorINS_20__shared_ptr_emplaceI5SceneNS1_IS3_EEEEEEEC1B8ue170006IS4_EET_m, symObjAddr: 0x1C834, symBinAddr: 0x1000C69C0, symSize: 0x34 }
  - { offsetInCU: 0x10F66, offset: 0x68A37, size: 0x8, addend: 0x0, symName: __ZNKSt3__118__allocation_guardINS_9allocatorINS_20__shared_ptr_emplaceI5SceneNS1_IS3_EEEEEEE5__getB8ue170006Ev, symObjAddr: 0x1C868, symBinAddr: 0x1000C69F4, symSize: 0x64 }
  - { offsetInCU: 0x10F8A, offset: 0x68A5B, size: 0x8, addend: 0x0, symName: __ZNSt3__120__shared_ptr_emplaceI5SceneNS_9allocatorIS1_EEEC1B8ue170006IJRS1_EEES3_DpOT_, symObjAddr: 0x1C8CC, symBinAddr: 0x1000C6A58, symSize: 0x34 }
  - { offsetInCU: 0x10FDD, offset: 0x68AAE, size: 0x8, addend: 0x0, symName: __ZNSt3__118__allocation_guardINS_9allocatorINS_20__shared_ptr_emplaceI5SceneNS1_IS3_EEEEEEE13__release_ptrB8ue170006Ev, symObjAddr: 0x1C900, symBinAddr: 0x1000C6A8C, symSize: 0xA8 }
  - { offsetInCU: 0x1100F, offset: 0x68AE0, size: 0x8, addend: 0x0, symName: __ZNSt3__110shared_ptrI5SceneE27__create_with_control_blockB8ue170006IS1_NS_20__shared_ptr_emplaceIS1_NS_9allocatorIS1_EEEEEES2_PT_PT0_, symObjAddr: 0x1C9A8, symBinAddr: 0x1000C6B34, symSize: 0x188 }
  - { offsetInCU: 0x11064, offset: 0x68B35, size: 0x8, addend: 0x0, symName: __ZNSt3__120__shared_ptr_emplaceI5SceneNS_9allocatorIS1_EEE10__get_elemB8ue170006Ev, symObjAddr: 0x1CB30, symBinAddr: 0x1000C6CBC, symSize: 0x28 }
  - { offsetInCU: 0x11088, offset: 0x68B59, size: 0x8, addend: 0x0, symName: __ZNSt3__118__allocation_guardINS_9allocatorINS_20__shared_ptr_emplaceI5SceneNS1_IS3_EEEEEEED1B8ue170006Ev, symObjAddr: 0x1CB58, symBinAddr: 0x1000C6CE4, symSize: 0x2C }
  - { offsetInCU: 0x110B0, offset: 0x68B81, size: 0x8, addend: 0x0, symName: __ZNSt3__118__allocation_guardINS_9allocatorINS_20__shared_ptr_emplaceI5SceneNS1_IS3_EEEEEEEC2B8ue170006IS4_EET_m, symObjAddr: 0x1CB84, symBinAddr: 0x1000C6D10, symSize: 0x28C }
  - { offsetInCU: 0x11103, offset: 0x68BD4, size: 0x8, addend: 0x0, symName: __ZNSt3__19allocatorINS_20__shared_ptr_emplaceI5SceneNS0_IS2_EEEEEC1B8ue170006IS2_EERKNS0_IT_EE, symObjAddr: 0x1CE10, symBinAddr: 0x1000C6F9C, symSize: 0x34 }
  - { offsetInCU: 0x1113F, offset: 0x68C10, size: 0x8, addend: 0x0, symName: __ZNSt3__116allocator_traitsINS_9allocatorINS_20__shared_ptr_emplaceI5SceneNS1_IS3_EEEEEEE8allocateB8ue170006ERS6_m, symObjAddr: 0x1CE44, symBinAddr: 0x1000C6FD0, symSize: 0x2C }
  - { offsetInCU: 0x11172, offset: 0x68C43, size: 0x8, addend: 0x0, symName: __ZNSt3__19allocatorINS_20__shared_ptr_emplaceI5SceneNS0_IS2_EEEEEC2B8ue170006IS2_EERKNS0_IT_EE, symObjAddr: 0x1CE70, symBinAddr: 0x1000C6FFC, symSize: 0x30 }
  - { offsetInCU: 0x111AE, offset: 0x68C7F, size: 0x8, addend: 0x0, symName: __ZNSt3__116__non_trivial_ifILb1ENS_9allocatorINS_20__shared_ptr_emplaceI5SceneNS1_IS3_EEEEEEEC2B8ue170006Ev, symObjAddr: 0x1CEA0, symBinAddr: 0x1000C702C, symSize: 0x14 }
  - { offsetInCU: 0x111D7, offset: 0x68CA8, size: 0x8, addend: 0x0, symName: __ZNSt3__19allocatorINS_20__shared_ptr_emplaceI5SceneNS0_IS2_EEEEE8allocateB8ue170006Em, symObjAddr: 0x1CEB4, symBinAddr: 0x1000C7040, symSize: 0x60 }
  - { offsetInCU: 0x11213, offset: 0x68CE4, size: 0x8, addend: 0x0, symName: __ZNSt3__116allocator_traitsINS_9allocatorINS_20__shared_ptr_emplaceI5SceneNS1_IS3_EEEEEEE8max_sizeB8ue170006IS6_vEEmRKS6_, symObjAddr: 0x1CF14, symBinAddr: 0x1000C70A0, symSize: 0x24 }
  - { offsetInCU: 0x11241, offset: 0x68D12, size: 0x8, addend: 0x0, symName: __ZNKSt3__19allocatorINS_20__shared_ptr_emplaceI5SceneNS0_IS2_EEEEE8max_sizeB8ue170006Ev, symObjAddr: 0x1CF38, symBinAddr: 0x1000C70C4, symSize: 0x18 }
  - { offsetInCU: 0x11265, offset: 0x68D36, size: 0x8, addend: 0x0, symName: __ZNSt3__120__shared_ptr_emplaceI5SceneNS_9allocatorIS1_EEEC2B8ue170006IJRS1_EEES3_DpOT_, symObjAddr: 0x1CF50, symBinAddr: 0x1000C70DC, symSize: 0x2E4 }
  - { offsetInCU: 0x112BE, offset: 0x68D8F, size: 0x8, addend: 0x0, symName: __ZNSt3__120__shared_ptr_emplaceI5SceneNS_9allocatorIS1_EEE8_StorageC1B8ue170006EOS3_, symObjAddr: 0x1D304, symBinAddr: 0x1000C73C0, symSize: 0x34 }
  - { offsetInCU: 0x112F5, offset: 0x68DC6, size: 0x8, addend: 0x0, symName: __ZN5SceneC1ERKS_, symObjAddr: 0x1D338, symBinAddr: 0x1000C73F4, symSize: 0x34 }
  - { offsetInCU: 0x11329, offset: 0x68DFA, size: 0x8, addend: 0x0, symName: __ZNSt3__120__shared_ptr_emplaceI5SceneNS_9allocatorIS1_EEE8_StorageD1B8ue170006Ev, symObjAddr: 0x1D36C, symBinAddr: 0x1000C7428, symSize: 0x2C }
  - { offsetInCU: 0x11351, offset: 0x68E22, size: 0x8, addend: 0x0, symName: __ZNSt3__120__shared_ptr_emplaceI5SceneNS_9allocatorIS1_EEED1Ev, symObjAddr: 0x1D398, symBinAddr: 0x1000C7454, symSize: 0x2C }
  - { offsetInCU: 0x1137D, offset: 0x68E4E, size: 0x8, addend: 0x0, symName: __ZNSt3__120__shared_ptr_emplaceI5SceneNS_9allocatorIS1_EEED0Ev, symObjAddr: 0x1D3C4, symBinAddr: 0x1000C7480, symSize: 0x30 }
  - { offsetInCU: 0x113A9, offset: 0x68E7A, size: 0x8, addend: 0x0, symName: __ZNSt3__120__shared_ptr_emplaceI5SceneNS_9allocatorIS1_EEE16__on_zero_sharedEv, symObjAddr: 0x1D3F4, symBinAddr: 0x1000C74B0, symSize: 0xAC }
  - { offsetInCU: 0x113CD, offset: 0x68E9E, size: 0x8, addend: 0x0, symName: __ZNSt3__120__shared_ptr_emplaceI5SceneNS_9allocatorIS1_EEE21__on_zero_shared_weakEv, symObjAddr: 0x1D4A0, symBinAddr: 0x1000C755C, symSize: 0x208 }
  - { offsetInCU: 0x11411, offset: 0x68EE2, size: 0x8, addend: 0x0, symName: __ZNSt3__120__shared_ptr_emplaceI5SceneNS_9allocatorIS1_EEE8_StorageC2B8ue170006EOS3_, symObjAddr: 0x1D768, symBinAddr: 0x1000C7764, symSize: 0x30 }
  - { offsetInCU: 0x11448, offset: 0x68F19, size: 0x8, addend: 0x0, symName: __ZNSt3__120__shared_ptr_emplaceI5SceneNS_9allocatorIS1_EEE8_Storage11__get_allocB8ue170006Ev, symObjAddr: 0x1D798, symBinAddr: 0x1000C7794, symSize: 0x3C }
  - { offsetInCU: 0x11499, offset: 0x68F6A, size: 0x8, addend: 0x0, symName: __ZNSt3__117__compressed_pairINS_9allocatorI5SceneEES2_E16__get_first_baseB8ue170006EPS4_, symObjAddr: 0x1D7D4, symBinAddr: 0x1000C77D0, symSize: 0x14 }
  - { offsetInCU: 0x114BC, offset: 0x68F8D, size: 0x8, addend: 0x0, symName: __ZN5SceneC2ERKS_, symObjAddr: 0x1D7E8, symBinAddr: 0x1000C77E4, symSize: 0x150 }
  - { offsetInCU: 0x114F5, offset: 0x68FC6, size: 0x8, addend: 0x0, symName: __ZN5LayerC2ERKS_, symObjAddr: 0x1D938, symBinAddr: 0x1000C7934, symSize: 0x168 }
  - { offsetInCU: 0x11538, offset: 0x69009, size: 0x8, addend: 0x0, symName: __ZNSt3__120__shared_ptr_emplaceI5SceneNS_9allocatorIS1_EEE8_StorageD2B8ue170006Ev, symObjAddr: 0x285B4, symBinAddr: 0x1000C7A9C, symSize: 0x2C }
  - { offsetInCU: 0x11560, offset: 0x69031, size: 0x8, addend: 0x0, symName: __ZNSt3__120__shared_ptr_emplaceI5SceneNS_9allocatorIS1_EEED2Ev, symObjAddr: 0x285E0, symBinAddr: 0x1000C7AC8, symSize: 0x88 }
  - { offsetInCU: 0x1158C, offset: 0x6905D, size: 0x8, addend: 0x0, symName: __ZNSt3__120__shared_ptr_emplaceI5SceneNS_9allocatorIS1_EEE11__get_allocB8ue170006Ev, symObjAddr: 0x28668, symBinAddr: 0x1000C7B50, symSize: 0x28 }
  - { offsetInCU: 0x115B0, offset: 0x69081, size: 0x8, addend: 0x0, symName: __ZNSt3__116allocator_traitsINS_9allocatorINS_20__shared_ptr_emplaceI5SceneNS1_IS3_EEEEEEE10deallocateB8ue170006ERS6_PS5_m, symObjAddr: 0x28690, symBinAddr: 0x1000C7B78, symSize: 0x34 }
  - { offsetInCU: 0x115F2, offset: 0x690C3, size: 0x8, addend: 0x0, symName: __ZNSt3__114pointer_traitsIPNS_20__shared_ptr_emplaceI5SceneNS_9allocatorIS2_EEEEE10pointer_toB8ue170006ERS5_, symObjAddr: 0x286C4, symBinAddr: 0x1000C7BAC, symSize: 0x14 }
  - { offsetInCU: 0x11615, offset: 0x690E6, size: 0x8, addend: 0x0, symName: __ZNSt3__19allocatorINS_20__shared_ptr_emplaceI5SceneNS0_IS2_EEEEE10deallocateB8ue170006EPS4_m, symObjAddr: 0x286D8, symBinAddr: 0x1000C7BC0, symSize: 0x50 }
  - { offsetInCU: 0x11655, offset: 0x69126, size: 0x8, addend: 0x0, symName: __ZNSt3__110shared_ptrI5SceneEC1B8ue170006Ev, symObjAddr: 0x28728, symBinAddr: 0x1000C7C10, symSize: 0x2C }
  - { offsetInCU: 0x1167D, offset: 0x6914E, size: 0x8, addend: 0x0, symName: __ZNSt3__110shared_ptrI5SceneE18__enable_weak_thisB8ue170006Ez, symObjAddr: 0x28754, symBinAddr: 0x1000C7C3C, symSize: 0x10 }
  - { offsetInCU: 0x116A2, offset: 0x69173, size: 0x8, addend: 0x0, symName: __ZNSt3__110shared_ptrI5SceneEC2B8ue170006Ev, symObjAddr: 0x28764, symBinAddr: 0x1000C7C4C, symSize: 0x9C }
  - { offsetInCU: 0x116CA, offset: 0x6919B, size: 0x8, addend: 0x0, symName: __ZNSt3__120__shared_ptr_emplaceI5SceneNS_9allocatorIS1_EEE8_Storage10__get_elemB8ue170006Ev, symObjAddr: 0x28800, symBinAddr: 0x1000C7CE8, symSize: 0x3C }
  - { offsetInCU: 0x1171B, offset: 0x691EC, size: 0x8, addend: 0x0, symName: __ZNSt3__117__compressed_pairINS_9allocatorI5SceneEES2_E17__get_second_baseB8ue170006EPS4_, symObjAddr: 0x2883C, symBinAddr: 0x1000C7D24, symSize: 0x14 }
  - { offsetInCU: 0x1173E, offset: 0x6920F, size: 0x8, addend: 0x0, symName: __ZNSt3__118__allocation_guardINS_9allocatorINS_20__shared_ptr_emplaceI5SceneNS1_IS3_EEEEEEED2B8ue170006Ev, symObjAddr: 0x28850, symBinAddr: 0x1000C7D38, symSize: 0x2C }
  - { offsetInCU: 0x11766, offset: 0x69237, size: 0x8, addend: 0x0, symName: __ZNSt3__118__allocation_guardINS_9allocatorINS_20__shared_ptr_emplaceI5SceneNS1_IS3_EEEEEEE9__destroyB8ue170006Ev, symObjAddr: 0x2887C, symBinAddr: 0x1000C7D64, symSize: 0xFC }
  - { offsetInCU: 0x1178A, offset: 0x6925B, size: 0x8, addend: 0x0, symName: __ZNSt3__19allocatorI5SceneEC2B8ue170006Ev, symObjAddr: 0x28978, symBinAddr: 0x1000C7E60, symSize: 0x2C }
  - { offsetInCU: 0x117B2, offset: 0x69283, size: 0x8, addend: 0x0, symName: __ZNSt3__116__non_trivial_ifILb1ENS_9allocatorI5SceneEEEC2B8ue170006Ev, symObjAddr: 0x289A4, symBinAddr: 0x1000C7E8C, symSize: 0x14 }
  - { offsetInCU: 0x3F, offset: 0x69443, size: 0x8, addend: 0x0, symName: _KEY_W, symObjAddr: 0x2FE80, symBinAddr: 0x10060E760, symSize: 0x0 }
  - { offsetInCU: 0x75, offset: 0x69479, size: 0x8, addend: 0x0, symName: _KEY_A, symObjAddr: 0x2FEA0, symBinAddr: 0x10060E780, symSize: 0x0 }
  - { offsetInCU: 0x8B, offset: 0x6948F, size: 0x8, addend: 0x0, symName: _KEY_S, symObjAddr: 0x2FEC0, symBinAddr: 0x10060E7A0, symSize: 0x0 }
  - { offsetInCU: 0xA1, offset: 0x694A5, size: 0x8, addend: 0x0, symName: _KEY_D, symObjAddr: 0x2FEE0, symBinAddr: 0x10060E7C0, symSize: 0x0 }
  - { offsetInCU: 0xB7, offset: 0x694BB, size: 0x8, addend: 0x0, symName: _KEY_Q, symObjAddr: 0x2FF00, symBinAddr: 0x10060E7E0, symSize: 0x0 }
  - { offsetInCU: 0xCD, offset: 0x694D1, size: 0x8, addend: 0x0, symName: _KEY_E, symObjAddr: 0x2FF20, symBinAddr: 0x10060E800, symSize: 0x0 }
  - { offsetInCU: 0xDF, offset: 0x694E3, size: 0x8, addend: 0x0, symName: _.str, symObjAddr: 0x7320, symBinAddr: 0x1004F2380, symSize: 0x0 }
  - { offsetInCU: 0x10F, offset: 0x69513, size: 0x8, addend: 0x0, symName: _.str.1, symObjAddr: 0x7360, symBinAddr: 0x1004F23C0, symSize: 0x0 }
  - { offsetInCU: 0x12C, offset: 0x69530, size: 0x8, addend: 0x0, symName: _.str.2, symObjAddr: 0x73A0, symBinAddr: 0x1004F2400, symSize: 0x0 }
  - { offsetInCU: 0x149, offset: 0x6954D, size: 0x8, addend: 0x0, symName: _.str.3, symObjAddr: 0x73E0, symBinAddr: 0x1004F2440, symSize: 0x0 }
  - { offsetInCU: 0x166, offset: 0x6956A, size: 0x8, addend: 0x0, symName: _.str.4, symObjAddr: 0x7420, symBinAddr: 0x1004F2480, symSize: 0x0 }
  - { offsetInCU: 0x183, offset: 0x69587, size: 0x8, addend: 0x0, symName: _.str.5, symObjAddr: 0x7440, symBinAddr: 0x1004F24A0, symSize: 0x0 }
  - { offsetInCU: 0x194, offset: 0x69598, size: 0x8, addend: 0x0, symName: _.str.6, symObjAddr: 0x7460, symBinAddr: 0x1004F24C0, symSize: 0x0 }
  - { offsetInCU: 0x1A5, offset: 0x695A9, size: 0x8, addend: 0x0, symName: _.str.7, symObjAddr: 0x7480, symBinAddr: 0x1004F24E0, symSize: 0x0 }
  - { offsetInCU: 0x3113, offset: 0x6C517, size: 0x8, addend: 0x0, symName: __ZNSt3__111make_sharedB8ue170006I13OpenGLContextJP6WindowEvEENS_10shared_ptrIT_EEDpOT0_, symObjAddr: 0xA0C, symBinAddr: 0x1000C8944, symSize: 0x1E8 }
  - { offsetInCU: 0x3563, offset: 0x6C967, size: 0x8, addend: 0x0, symName: __ZNSt3__115allocate_sharedB8ue170006I13OpenGLContextNS_9allocatorIS1_EEJP6WindowEvEENS_10shared_ptrIT_EERKT0_DpOT1_, symObjAddr: 0x5010, symBinAddr: 0x1000CA7E4, symSize: 0x300 }
  - { offsetInCU: 0x3917, offset: 0x6CD1B, size: 0x8, addend: 0x0, symName: __ZNSt3__14swapB8ue170006IP15GraphicsContextEENS_9enable_ifIXaasr21is_move_constructibleIT_EE5valuesr18is_move_assignableIS4_EE5valueEvE4typeERS4_S7_, symObjAddr: 0x6CF4, symBinAddr: 0x1000CC128, symSize: 0x134 }
  - { offsetInCU: 0x5B56, offset: 0x6EF5A, size: 0x8, addend: 0x0, symName: __ZN6WindowC2ENSt3__112basic_stringIcNS0_11char_traitsIcEENS0_9allocatorIcEEEEtt, symObjAddr: 0x0, symBinAddr: 0x1000C7F38, symSize: 0x9AC }
  - { offsetInCU: 0x5BB0, offset: 0x6EFB4, size: 0x8, addend: 0x0, symName: __ZNSt3__110shared_ptrI15GraphicsContextEC1B8ue170006EDn, symObjAddr: 0x9AC, symBinAddr: 0x1000C88E4, symSize: 0x34 }
  - { offsetInCU: 0x5BE9, offset: 0x6EFED, size: 0x8, addend: 0x0, symName: __ZN11WindowPropsC1Ev, symObjAddr: 0x9E0, symBinAddr: 0x1000C8918, symSize: 0x2C }
  - { offsetInCU: 0x5C37, offset: 0x6F03B, size: 0x8, addend: 0x0, symName: __ZNSt3__110shared_ptrI15GraphicsContextEaSB8ue170006I13OpenGLContextvEERS2_ONS0_IT_EE, symObjAddr: 0xBF4, symBinAddr: 0x1000C8B2C, symSize: 0x1F4 }
  - { offsetInCU: 0x5C76, offset: 0x6F07A, size: 0x8, addend: 0x0, symName: __ZNSt3__110shared_ptrI13OpenGLContextED1B8ue170006Ev, symObjAddr: 0xDE8, symBinAddr: 0x1000C8D20, symSize: 0x2C }
  - { offsetInCU: 0x5C9E, offset: 0x6F0A2, size: 0x8, addend: 0x0, symName: __ZNKSt3__110shared_ptrI15GraphicsContextEptB8ue170006Ev, symObjAddr: 0xE14, symBinAddr: 0x1000C8D4C, symSize: 0x60 }
  - { offsetInCU: 0x5CC2, offset: 0x6F0C6, size: 0x8, addend: 0x0, symName: __ZL15on_key_callbackP10GLFWwindowiiii, symObjAddr: 0xFE0, symBinAddr: 0x1000C8DAC, symSize: 0x204 }
  - { offsetInCU: 0x5D31, offset: 0x6F135, size: 0x8, addend: 0x0, symName: __ZL22on_mouse_move_callbackP10GLFWwindowdd, symObjAddr: 0x11E4, symBinAddr: 0x1000C8FB0, symSize: 0x8AC }
  - { offsetInCU: 0x5DB8, offset: 0x6F1BC, size: 0x8, addend: 0x0, symName: __ZL25on_window_resize_callbackP10GLFWwindowii, symObjAddr: 0x1A90, symBinAddr: 0x1000C985C, symSize: 0x48 }
  - { offsetInCU: 0x5E19, offset: 0x6F21D, size: 0x8, addend: 0x0, symName: __ZL24on_window_close_callbackP10GLFWwindow, symObjAddr: 0x1AD8, symBinAddr: 0x1000C98A4, symSize: 0x38 }
  - { offsetInCU: 0x5E50, offset: 0x6F254, size: 0x8, addend: 0x0, symName: __ZN11WindowPropsD1Ev, symObjAddr: 0x1B10, symBinAddr: 0x1000C98DC, symSize: 0x2C }
  - { offsetInCU: 0x5E7B, offset: 0x6F27F, size: 0x8, addend: 0x0, symName: __ZNSt3__110shared_ptrI15GraphicsContextED1B8ue170006Ev, symObjAddr: 0x1B3C, symBinAddr: 0x1000C9908, symSize: 0x2C }
  - { offsetInCU: 0x5EA3, offset: 0x6F2A7, size: 0x8, addend: 0x0, symName: __ZN6WindowC1ENSt3__112basic_stringIcNS0_11char_traitsIcEENS0_9allocatorIcEEEEtt, symObjAddr: 0x1B68, symBinAddr: 0x1000C9934, symSize: 0x44 }
  - { offsetInCU: 0x5EF9, offset: 0x6F2FD, size: 0x8, addend: 0x0, symName: __ZN6Window9PreRenderEv, symObjAddr: 0x1BAC, symBinAddr: 0x1000C9978, symSize: 0x2A0 }
  - { offsetInCU: 0x5F20, offset: 0x6F324, size: 0x8, addend: 0x0, symName: __ZN6Window10PostRenderEv, symObjAddr: 0x1E98, symBinAddr: 0x1000C9C18, symSize: 0x7C }
  - { offsetInCU: 0x5F46, offset: 0x6F34A, size: 0x8, addend: 0x0, symName: __ZN6Window15HandleUserInputEv, symObjAddr: 0x1F14, symBinAddr: 0x1000C9C94, symSize: 0x29C }
  - { offsetInCU: 0x5F6C, offset: 0x6F370, size: 0x8, addend: 0x0, symName: __ZN6Window12HandleResizeEjj, symObjAddr: 0x21B0, symBinAddr: 0x1000C9F30, symSize: 0x30 }
  - { offsetInCU: 0x5FAE, offset: 0x6F3B2, size: 0x8, addend: 0x0, symName: __ZNSt3__110shared_ptrI15GraphicsContextEC2B8ue170006EDn, symObjAddr: 0x21E0, symBinAddr: 0x1000C9F60, symSize: 0xA0 }
  - { offsetInCU: 0x5FE2, offset: 0x6F3E6, size: 0x8, addend: 0x0, symName: __ZN11WindowPropsC2Ev, symObjAddr: 0x2280, symBinAddr: 0x1000CA000, symSize: 0x2DC }
  - { offsetInCU: 0x600D, offset: 0x6F411, size: 0x8, addend: 0x0, symName: __ZNSt3__112basic_stringIcNS_11char_traitsIcEENS_9allocatorIcEEEC1B8ue170006Ev, symObjAddr: 0x255C, symBinAddr: 0x1000CA2DC, symSize: 0x2C }
  - { offsetInCU: 0x6035, offset: 0x6F439, size: 0x8, addend: 0x0, symName: __ZNSt3__112basic_stringIcNS_11char_traitsIcEENS_9allocatorIcEEEC2B8ue170006Ev, symObjAddr: 0x2588, symBinAddr: 0x1000CA308, symSize: 0x20C }
  - { offsetInCU: 0x605E, offset: 0x6F462, size: 0x8, addend: 0x0, symName: __ZN6Window9SetStatusEb, symObjAddr: 0x2AFC, symBinAddr: 0x1000CA514, symSize: 0xA4 }
  - { offsetInCU: 0x6090, offset: 0x6F494, size: 0x8, addend: 0x0, symName: __ZNK6Window14GetWindowPropsEv, symObjAddr: 0x2BA0, symBinAddr: 0x1000CA5B8, symSize: 0x3C }
  - { offsetInCU: 0x60BE, offset: 0x6F4C2, size: 0x8, addend: 0x0, symName: __ZN11WindowPropsC1ERKS_, symObjAddr: 0x2BDC, symBinAddr: 0x1000CA5F4, symSize: 0x34 }
  - { offsetInCU: 0x60F2, offset: 0x6F4F6, size: 0x8, addend: 0x0, symName: __ZN11WindowPropsC2ERKS_, symObjAddr: 0x2C10, symBinAddr: 0x1000CA628, symSize: 0x64 }
  - { offsetInCU: 0x6330, offset: 0x6F734, size: 0x8, addend: 0x0, symName: __ZN3App11GetInstanceEv, symObjAddr: 0x2C74, symBinAddr: 0x1000CA68C, symSize: 0x60 }
  - { offsetInCU: 0x6343, offset: 0x6F747, size: 0x8, addend: 0x0, symName: __ZN11WindowPropsD2Ev, symObjAddr: 0x2CD4, symBinAddr: 0x1000CA6EC, symSize: 0x30 }
  - { offsetInCU: 0x636E, offset: 0x6F772, size: 0x8, addend: 0x0, symName: __ZNSt3__110shared_ptrI15GraphicsContextED2B8ue170006Ev, symObjAddr: 0x4D94, symBinAddr: 0x1000CA71C, symSize: 0xC8 }
  - { offsetInCU: 0x6396, offset: 0x6F79A, size: 0x8, addend: 0x0, symName: __ZNSt3__19allocatorI13OpenGLContextEC1B8ue170006Ev, symObjAddr: 0x5310, symBinAddr: 0x1000CAAE4, symSize: 0x2C }
  - { offsetInCU: 0x6409, offset: 0x6F80D, size: 0x8, addend: 0x0, symName: __ZNSt3__118__allocation_guardINS_9allocatorINS_20__shared_ptr_emplaceI13OpenGLContextNS1_IS3_EEEEEEEC1B8ue170006IS4_EET_m, symObjAddr: 0x533C, symBinAddr: 0x1000CAB10, symSize: 0x34 }
  - { offsetInCU: 0x6456, offset: 0x6F85A, size: 0x8, addend: 0x0, symName: __ZNKSt3__118__allocation_guardINS_9allocatorINS_20__shared_ptr_emplaceI13OpenGLContextNS1_IS3_EEEEEEE5__getB8ue170006Ev, symObjAddr: 0x5370, symBinAddr: 0x1000CAB44, symSize: 0x64 }
  - { offsetInCU: 0x647F, offset: 0x6F883, size: 0x8, addend: 0x0, symName: __ZNSt3__120__shared_ptr_emplaceI13OpenGLContextNS_9allocatorIS1_EEEC1B8ue170006IJP6WindowEEES3_DpOT_, symObjAddr: 0x53D4, symBinAddr: 0x1000CABA8, symSize: 0x34 }
  - { offsetInCU: 0x64D2, offset: 0x6F8D6, size: 0x8, addend: 0x0, symName: __ZNSt3__118__allocation_guardINS_9allocatorINS_20__shared_ptr_emplaceI13OpenGLContextNS1_IS3_EEEEEEE13__release_ptrB8ue170006Ev, symObjAddr: 0x5408, symBinAddr: 0x1000CABDC, symSize: 0xA8 }
  - { offsetInCU: 0x6504, offset: 0x6F908, size: 0x8, addend: 0x0, symName: __ZNSt3__110shared_ptrI13OpenGLContextE27__create_with_control_blockB8ue170006IS1_NS_20__shared_ptr_emplaceIS1_NS_9allocatorIS1_EEEEEES2_PT_PT0_, symObjAddr: 0x54B0, symBinAddr: 0x1000CAC84, symSize: 0x188 }
  - { offsetInCU: 0x6559, offset: 0x6F95D, size: 0x8, addend: 0x0, symName: __ZNSt3__120__shared_ptr_emplaceI13OpenGLContextNS_9allocatorIS1_EEE10__get_elemB8ue170006Ev, symObjAddr: 0x5638, symBinAddr: 0x1000CAE0C, symSize: 0x28 }
  - { offsetInCU: 0x657D, offset: 0x6F981, size: 0x8, addend: 0x0, symName: __ZNSt3__118__allocation_guardINS_9allocatorINS_20__shared_ptr_emplaceI13OpenGLContextNS1_IS3_EEEEEEED1B8ue170006Ev, symObjAddr: 0x5660, symBinAddr: 0x1000CAE34, symSize: 0x2C }
  - { offsetInCU: 0x65A5, offset: 0x6F9A9, size: 0x8, addend: 0x0, symName: __ZNSt3__118__allocation_guardINS_9allocatorINS_20__shared_ptr_emplaceI13OpenGLContextNS1_IS3_EEEEEEEC2B8ue170006IS4_EET_m, symObjAddr: 0x568C, symBinAddr: 0x1000CAE60, symSize: 0x28C }
  - { offsetInCU: 0x65F8, offset: 0x6F9FC, size: 0x8, addend: 0x0, symName: __ZNSt3__19allocatorINS_20__shared_ptr_emplaceI13OpenGLContextNS0_IS2_EEEEEC1B8ue170006IS2_EERKNS0_IT_EE, symObjAddr: 0x5918, symBinAddr: 0x1000CB0EC, symSize: 0x34 }
  - { offsetInCU: 0x6634, offset: 0x6FA38, size: 0x8, addend: 0x0, symName: __ZNSt3__116allocator_traitsINS_9allocatorINS_20__shared_ptr_emplaceI13OpenGLContextNS1_IS3_EEEEEEE8allocateB8ue170006ERS6_m, symObjAddr: 0x594C, symBinAddr: 0x1000CB120, symSize: 0x2C }
  - { offsetInCU: 0x6667, offset: 0x6FA6B, size: 0x8, addend: 0x0, symName: __ZNSt3__19allocatorINS_20__shared_ptr_emplaceI13OpenGLContextNS0_IS2_EEEEEC2B8ue170006IS2_EERKNS0_IT_EE, symObjAddr: 0x5978, symBinAddr: 0x1000CB14C, symSize: 0x30 }
  - { offsetInCU: 0x66A3, offset: 0x6FAA7, size: 0x8, addend: 0x0, symName: __ZNSt3__116__non_trivial_ifILb1ENS_9allocatorINS_20__shared_ptr_emplaceI13OpenGLContextNS1_IS3_EEEEEEEC2B8ue170006Ev, symObjAddr: 0x59A8, symBinAddr: 0x1000CB17C, symSize: 0x14 }
  - { offsetInCU: 0x66CC, offset: 0x6FAD0, size: 0x8, addend: 0x0, symName: __ZNSt3__19allocatorINS_20__shared_ptr_emplaceI13OpenGLContextNS0_IS2_EEEEE8allocateB8ue170006Em, symObjAddr: 0x59BC, symBinAddr: 0x1000CB190, symSize: 0x60 }
  - { offsetInCU: 0x6708, offset: 0x6FB0C, size: 0x8, addend: 0x0, symName: __ZNSt3__116allocator_traitsINS_9allocatorINS_20__shared_ptr_emplaceI13OpenGLContextNS1_IS3_EEEEEEE8max_sizeB8ue170006IS6_vEEmRKS6_, symObjAddr: 0x5A1C, symBinAddr: 0x1000CB1F0, symSize: 0x24 }
  - { offsetInCU: 0x6736, offset: 0x6FB3A, size: 0x8, addend: 0x0, symName: __ZNKSt3__19allocatorINS_20__shared_ptr_emplaceI13OpenGLContextNS0_IS2_EEEEE8max_sizeB8ue170006Ev, symObjAddr: 0x5AD8, symBinAddr: 0x1000CB214, symSize: 0x18 }
  - { offsetInCU: 0x675A, offset: 0x6FB5E, size: 0x8, addend: 0x0, symName: __ZNSt3__120__shared_ptr_emplaceI13OpenGLContextNS_9allocatorIS1_EEEC2B8ue170006IJP6WindowEEES3_DpOT_, symObjAddr: 0x5B60, symBinAddr: 0x1000CB22C, symSize: 0x324 }
  - { offsetInCU: 0x67B3, offset: 0x6FBB7, size: 0x8, addend: 0x0, symName: __ZNSt3__120__shared_ptr_emplaceI13OpenGLContextNS_9allocatorIS1_EEE8_StorageC1B8ue170006EOS3_, symObjAddr: 0x5F54, symBinAddr: 0x1000CB550, symSize: 0x34 }
  - { offsetInCU: 0x67EA, offset: 0x6FBEE, size: 0x8, addend: 0x0, symName: __ZN13OpenGLContextC1EP6Window, symObjAddr: 0x5F88, symBinAddr: 0x1000CB584, symSize: 0x34 }
  - { offsetInCU: 0x6820, offset: 0x6FC24, size: 0x8, addend: 0x0, symName: __ZNSt3__120__shared_ptr_emplaceI13OpenGLContextNS_9allocatorIS1_EEE8_StorageD1B8ue170006Ev, symObjAddr: 0x5FBC, symBinAddr: 0x1000CB5B8, symSize: 0x2C }
  - { offsetInCU: 0x6848, offset: 0x6FC4C, size: 0x8, addend: 0x0, symName: __ZNSt3__120__shared_ptr_emplaceI13OpenGLContextNS_9allocatorIS1_EEED1Ev, symObjAddr: 0x5FE8, symBinAddr: 0x1000CB5E4, symSize: 0x2C }
  - { offsetInCU: 0x6874, offset: 0x6FC78, size: 0x8, addend: 0x0, symName: __ZNSt3__120__shared_ptr_emplaceI13OpenGLContextNS_9allocatorIS1_EEED0Ev, symObjAddr: 0x6014, symBinAddr: 0x1000CB610, symSize: 0x30 }
  - { offsetInCU: 0x68A0, offset: 0x6FCA4, size: 0x8, addend: 0x0, symName: __ZNSt3__120__shared_ptr_emplaceI13OpenGLContextNS_9allocatorIS1_EEE16__on_zero_sharedEv, symObjAddr: 0x6044, symBinAddr: 0x1000CB640, symSize: 0x24 }
  - { offsetInCU: 0x68C4, offset: 0x6FCC8, size: 0x8, addend: 0x0, symName: __ZNSt3__120__shared_ptr_emplaceI13OpenGLContextNS_9allocatorIS1_EEE21__on_zero_shared_weakEv, symObjAddr: 0x6068, symBinAddr: 0x1000CB664, symSize: 0x208 }
  - { offsetInCU: 0x6908, offset: 0x6FD0C, size: 0x8, addend: 0x0, symName: __ZNSt3__120__shared_ptr_emplaceI13OpenGLContextNS_9allocatorIS1_EEE8_StorageC2B8ue170006EOS3_, symObjAddr: 0x6330, symBinAddr: 0x1000CB86C, symSize: 0x30 }
  - { offsetInCU: 0x693F, offset: 0x6FD43, size: 0x8, addend: 0x0, symName: __ZNSt3__120__shared_ptr_emplaceI13OpenGLContextNS_9allocatorIS1_EEE8_Storage11__get_allocB8ue170006Ev, symObjAddr: 0x6360, symBinAddr: 0x1000CB89C, symSize: 0x3C }
  - { offsetInCU: 0x6990, offset: 0x6FD94, size: 0x8, addend: 0x0, symName: __ZNSt3__117__compressed_pairINS_9allocatorI13OpenGLContextEES2_E16__get_first_baseB8ue170006EPS4_, symObjAddr: 0x639C, symBinAddr: 0x1000CB8D8, symSize: 0x14 }
  - { offsetInCU: 0x69B3, offset: 0x6FDB7, size: 0x8, addend: 0x0, symName: __ZN13OpenGLContextC2EP6Window, symObjAddr: 0x63B0, symBinAddr: 0x1000CB8EC, symSize: 0xCC }
  - { offsetInCU: 0x69E9, offset: 0x6FDED, size: 0x8, addend: 0x0, symName: __ZN15GraphicsContextC2Ev, symObjAddr: 0x647C, symBinAddr: 0x1000CB9B8, symSize: 0x74 }
  - { offsetInCU: 0x6A14, offset: 0x6FE18, size: 0x8, addend: 0x0, symName: __ZNSt3__120__shared_ptr_emplaceI13OpenGLContextNS_9allocatorIS1_EEE8_StorageD2B8ue170006Ev, symObjAddr: 0x64F0, symBinAddr: 0x1000CBA2C, symSize: 0x2C }
  - { offsetInCU: 0x6A3C, offset: 0x6FE40, size: 0x8, addend: 0x0, symName: __ZNSt3__120__shared_ptr_emplaceI13OpenGLContextNS_9allocatorIS1_EEED2Ev, symObjAddr: 0x651C, symBinAddr: 0x1000CBA58, symSize: 0x88 }
  - { offsetInCU: 0x6A68, offset: 0x6FE6C, size: 0x8, addend: 0x0, symName: __ZNSt3__120__shared_ptr_emplaceI13OpenGLContextNS_9allocatorIS1_EEE11__get_allocB8ue170006Ev, symObjAddr: 0x65A4, symBinAddr: 0x1000CBAE0, symSize: 0x28 }
  - { offsetInCU: 0x6A8C, offset: 0x6FE90, size: 0x8, addend: 0x0, symName: __ZNSt3__116allocator_traitsINS_9allocatorINS_20__shared_ptr_emplaceI13OpenGLContextNS1_IS3_EEEEEEE10deallocateB8ue170006ERS6_PS5_m, symObjAddr: 0x65CC, symBinAddr: 0x1000CBB08, symSize: 0x34 }
  - { offsetInCU: 0x6ACE, offset: 0x6FED2, size: 0x8, addend: 0x0, symName: __ZNSt3__114pointer_traitsIPNS_20__shared_ptr_emplaceI13OpenGLContextNS_9allocatorIS2_EEEEE10pointer_toB8ue170006ERS5_, symObjAddr: 0x6600, symBinAddr: 0x1000CBB3C, symSize: 0x14 }
  - { offsetInCU: 0x6AF1, offset: 0x6FEF5, size: 0x8, addend: 0x0, symName: __ZNSt3__19allocatorINS_20__shared_ptr_emplaceI13OpenGLContextNS0_IS2_EEEEE10deallocateB8ue170006EPS4_m, symObjAddr: 0x6614, symBinAddr: 0x1000CBB50, symSize: 0x50 }
  - { offsetInCU: 0x6B31, offset: 0x6FF35, size: 0x8, addend: 0x0, symName: __ZNSt3__110shared_ptrI13OpenGLContextEC1B8ue170006Ev, symObjAddr: 0x676C, symBinAddr: 0x1000CBBA0, symSize: 0x2C }
  - { offsetInCU: 0x6B59, offset: 0x6FF5D, size: 0x8, addend: 0x0, symName: __ZNSt3__110shared_ptrI13OpenGLContextE18__enable_weak_thisB8ue170006Ez, symObjAddr: 0x6798, symBinAddr: 0x1000CBBCC, symSize: 0x10 }
  - { offsetInCU: 0x6B7E, offset: 0x6FF82, size: 0x8, addend: 0x0, symName: __ZNSt3__110shared_ptrI13OpenGLContextEC2B8ue170006Ev, symObjAddr: 0x67A8, symBinAddr: 0x1000CBBDC, symSize: 0x9C }
  - { offsetInCU: 0x6BA6, offset: 0x6FFAA, size: 0x8, addend: 0x0, symName: __ZNSt3__120__shared_ptr_emplaceI13OpenGLContextNS_9allocatorIS1_EEE8_Storage10__get_elemB8ue170006Ev, symObjAddr: 0x6844, symBinAddr: 0x1000CBC78, symSize: 0x3C }
  - { offsetInCU: 0x6BF7, offset: 0x6FFFB, size: 0x8, addend: 0x0, symName: __ZNSt3__117__compressed_pairINS_9allocatorI13OpenGLContextEES2_E17__get_second_baseB8ue170006EPS4_, symObjAddr: 0x6880, symBinAddr: 0x1000CBCB4, symSize: 0x14 }
  - { offsetInCU: 0x6C1A, offset: 0x7001E, size: 0x8, addend: 0x0, symName: __ZNSt3__118__allocation_guardINS_9allocatorINS_20__shared_ptr_emplaceI13OpenGLContextNS1_IS3_EEEEEEED2B8ue170006Ev, symObjAddr: 0x6894, symBinAddr: 0x1000CBCC8, symSize: 0x2C }
  - { offsetInCU: 0x6C42, offset: 0x70046, size: 0x8, addend: 0x0, symName: __ZNSt3__118__allocation_guardINS_9allocatorINS_20__shared_ptr_emplaceI13OpenGLContextNS1_IS3_EEEEEEE9__destroyB8ue170006Ev, symObjAddr: 0x68C0, symBinAddr: 0x1000CBCF4, symSize: 0xFC }
  - { offsetInCU: 0x6C66, offset: 0x7006A, size: 0x8, addend: 0x0, symName: __ZNSt3__19allocatorI13OpenGLContextEC2B8ue170006Ev, symObjAddr: 0x69BC, symBinAddr: 0x1000CBDF0, symSize: 0x2C }
  - { offsetInCU: 0x6C8E, offset: 0x70092, size: 0x8, addend: 0x0, symName: __ZNSt3__116__non_trivial_ifILb1ENS_9allocatorI13OpenGLContextEEEC2B8ue170006Ev, symObjAddr: 0x69E8, symBinAddr: 0x1000CBE1C, symSize: 0x14 }
  - { offsetInCU: 0x6CB7, offset: 0x700BB, size: 0x8, addend: 0x0, symName: __ZNSt3__110shared_ptrI13OpenGLContextED2B8ue170006Ev, symObjAddr: 0x69FC, symBinAddr: 0x1000CBE30, symSize: 0xC8 }
  - { offsetInCU: 0x6CDF, offset: 0x700E3, size: 0x8, addend: 0x0, symName: __ZNSt3__110shared_ptrI15GraphicsContextEC1B8ue170006I13OpenGLContextvEEONS0_IT_EE, symObjAddr: 0x6AC4, symBinAddr: 0x1000CBEF8, symSize: 0x34 }
  - { offsetInCU: 0x6D20, offset: 0x70124, size: 0x8, addend: 0x0, symName: __ZNSt3__110shared_ptrI15GraphicsContextE4swapB8ue170006ERS2_, symObjAddr: 0x6AF8, symBinAddr: 0x1000CBF2C, symSize: 0x44 }
  - { offsetInCU: 0x6D53, offset: 0x70157, size: 0x8, addend: 0x0, symName: __ZNSt3__110shared_ptrI15GraphicsContextEC2B8ue170006I13OpenGLContextvEEONS0_IT_EE, symObjAddr: 0x6B3C, symBinAddr: 0x1000CBF70, symSize: 0x1B8 }
  - { offsetInCU: 0x3B, offset: 0x7021D, size: 0x8, addend: 0x0, symName: _.str, symObjAddr: 0x8C20, symBinAddr: 0x1004F2500, symSize: 0x0 }
  - { offsetInCU: 0x580D, offset: 0x759EF, size: 0x8, addend: 0x0, symName: __ZNSt3__111make_uniqueB8ue170006I9WolfRayetJRA10_KciiEEENS_11__unique_ifIT_E15__unique_singleEDpOT0_, symObjAddr: 0x3D8, symBinAddr: 0x1000CC6CC, symSize: 0x3E0 }
  - { offsetInCU: 0x587E, offset: 0x75A60, size: 0x8, addend: 0x0, symName: __ZNSt3__111make_sharedB8ue170006I17PerspectiveCameraJfffEvEENS_10shared_ptrIT_EEDpOT0_, symObjAddr: 0x1928, symBinAddr: 0x1000CD7A0, symSize: 0x1F8 }
  - { offsetInCU: 0x58F0, offset: 0x75AD2, size: 0x8, addend: 0x0, symName: __ZNSt3__111make_sharedB8ue170006I6WindowJRNS_12basic_stringIcNS_11char_traitsIcEENS_9allocatorIcEEEERtS9_EvEENS_10shared_ptrIT_EEDpOT0_, symObjAddr: 0x1E0C, symBinAddr: 0x1000CDC2C, symSize: 0x1F8 }
  - { offsetInCU: 0x5962, offset: 0x75B44, size: 0x8, addend: 0x0, symName: __ZNSt3__111make_uniqueB8ue170006I10LayerStackJEEENS_11__unique_ifIT_E15__unique_singleEDpOT0_, symObjAddr: 0x2224, symBinAddr: 0x1000CE044, symSize: 0x64 }
  - { offsetInCU: 0x598F, offset: 0x75B71, size: 0x8, addend: 0x0, symName: __ZNSt3__115allocate_sharedB8ue170006I6WindowNS_9allocatorIS1_EEJRNS_12basic_stringIcNS_11char_traitsIcEENS2_IcEEEERtSA_EvEENS_10shared_ptrIT_EERKT0_DpOT1_, symObjAddr: 0x2694, symBinAddr: 0x1000CE4B4, symSize: 0x310 }
  - { offsetInCU: 0x5D6F, offset: 0x75F51, size: 0x8, addend: 0x0, symName: __ZNSt3__14swapB8ue170006IP6WindowEENS_9enable_ifIXaasr21is_move_constructibleIT_EE5valuesr18is_move_assignableIS4_EE5valueEvE4typeERS4_S7_, symObjAddr: 0x45BC, symBinAddr: 0x1000CFD94, symSize: 0x134 }
  - { offsetInCU: 0x5DC0, offset: 0x75FA2, size: 0x8, addend: 0x0, symName: __ZNSt3__115allocate_sharedB8ue170006I17PerspectiveCameraNS_9allocatorIS1_EEJfffEvEENS_10shared_ptrIT_EERKT0_DpOT1_, symObjAddr: 0x5D58, symBinAddr: 0x1000D0D58, symSize: 0x310 }
  - { offsetInCU: 0x8BE3, offset: 0x78DC5, size: 0x8, addend: 0x0, symName: _main, symObjAddr: 0x0, symBinAddr: 0x1000CC2F4, symSize: 0x3D8 }
  - { offsetInCU: 0x8C10, offset: 0x78DF2, size: 0x8, addend: 0x0, symName: __ZNKSt3__110unique_ptrI9WolfRayetNS_14default_deleteIS1_EEEptB8ue170006Ev, symObjAddr: 0x7B8, symBinAddr: 0x1000CCAAC, symSize: 0x6C }
  - { offsetInCU: 0x8C34, offset: 0x78E16, size: 0x8, addend: 0x0, symName: __ZNSt3__110unique_ptrI9WolfRayetNS_14default_deleteIS1_EEED1B8ue170006Ev, symObjAddr: 0x824, symBinAddr: 0x1000CCB18, symSize: 0x2C }
  - { offsetInCU: 0x8C61, offset: 0x78E43, size: 0x8, addend: 0x0, symName: __ZN9WolfRayetC1ENSt3__112basic_stringIcNS0_11char_traitsIcEENS0_9allocatorIcEEEEtt, symObjAddr: 0x884, symBinAddr: 0x1000CCB44, symSize: 0x44 }
  - { offsetInCU: 0x8CB4, offset: 0x78E96, size: 0x8, addend: 0x0, symName: __ZNSt3__110unique_ptrI9WolfRayetNS_14default_deleteIS1_EEEC1B8ue170006ILb1EvEEPS1_, symObjAddr: 0x8C8, symBinAddr: 0x1000CCB88, symSize: 0x34 }
  - { offsetInCU: 0x8CFA, offset: 0x78EDC, size: 0x8, addend: 0x0, symName: __ZN9WolfRayetC2ENSt3__112basic_stringIcNS0_11char_traitsIcEENS0_9allocatorIcEEEEtt, symObjAddr: 0xC74, symBinAddr: 0x1000CCBBC, symSize: 0x724 }
  - { offsetInCU: 0x8D67, offset: 0x78F49, size: 0x8, addend: 0x0, symName: __ZN3AppC2ENSt3__112basic_stringIcNS0_11char_traitsIcEENS0_9allocatorIcEEEEtt, symObjAddr: 0x1398, symBinAddr: 0x1000CD2E0, symSize: 0x490 }
  - { offsetInCU: 0x8DC4, offset: 0x78FA6, size: 0x8, addend: 0x0, symName: __ZNKSt3__110shared_ptrI6WindowEcvbB8ue170006Ev, symObjAddr: 0x185C, symBinAddr: 0x1000CD770, symSize: 0x30 }
  - { offsetInCU: 0x8DE8, offset: 0x78FCA, size: 0x8, addend: 0x0, symName: __ZNSt3__110shared_ptrI17PerspectiveCameraEaSB8ue170006EOS2_, symObjAddr: 0x1B20, symBinAddr: 0x1000CD998, symSize: 0x1F4 }
  - { offsetInCU: 0x8E22, offset: 0x79004, size: 0x8, addend: 0x0, symName: __ZN3AppD2Ev, symObjAddr: 0x1D6C, symBinAddr: 0x1000CDB8C, symSize: 0x38 }
  - { offsetInCU: 0x8E4D, offset: 0x7902F, size: 0x8, addend: 0x0, symName: __ZNSt3__110shared_ptrI6WindowEC1B8ue170006EDn, symObjAddr: 0x1DA4, symBinAddr: 0x1000CDBC4, symSize: 0x34 }
  - { offsetInCU: 0x8E81, offset: 0x79063, size: 0x8, addend: 0x0, symName: __ZNSt3__110unique_ptrI10LayerStackNS_14default_deleteIS1_EEEC1B8ue170006ILb1EvEEDn, symObjAddr: 0x1DD8, symBinAddr: 0x1000CDBF8, symSize: 0x34 }
  - { offsetInCU: 0x8EBF, offset: 0x790A1, size: 0x8, addend: 0x0, symName: __ZNSt3__110shared_ptrI6WindowEaSB8ue170006EOS2_, symObjAddr: 0x2004, symBinAddr: 0x1000CDE24, symSize: 0x1F4 }
  - { offsetInCU: 0x8EF4, offset: 0x790D6, size: 0x8, addend: 0x0, symName: __ZNSt3__110shared_ptrI6WindowED1B8ue170006Ev, symObjAddr: 0x21F8, symBinAddr: 0x1000CE018, symSize: 0x2C }
  - { offsetInCU: 0x8F1C, offset: 0x790FE, size: 0x8, addend: 0x0, symName: __ZNSt3__110unique_ptrI10LayerStackNS_14default_deleteIS1_EEEaSB8ue170006EOS4_, symObjAddr: 0x2288, symBinAddr: 0x1000CE0A8, symSize: 0x50 }
  - { offsetInCU: 0x8F4E, offset: 0x79130, size: 0x8, addend: 0x0, symName: __ZNSt3__110unique_ptrI10LayerStackNS_14default_deleteIS1_EEED1B8ue170006Ev, symObjAddr: 0x22D8, symBinAddr: 0x1000CE0F8, symSize: 0x2C }
  - { offsetInCU: 0x8F76, offset: 0x79158, size: 0x8, addend: 0x0, symName: __ZNSt3__110shared_ptrI6WindowEC2B8ue170006EDn, symObjAddr: 0x2304, symBinAddr: 0x1000CE124, symSize: 0xA0 }
  - { offsetInCU: 0x8FAA, offset: 0x7918C, size: 0x8, addend: 0x0, symName: __ZNSt3__110unique_ptrI10LayerStackNS_14default_deleteIS1_EEEC2B8ue170006ILb1EvEEDn, symObjAddr: 0x23A4, symBinAddr: 0x1000CE1C4, symSize: 0x204 }
  - { offsetInCU: 0x8FEF, offset: 0x791D1, size: 0x8, addend: 0x0, symName: __ZNSt3__117__compressed_pairIP10LayerStackNS_14default_deleteIS1_EEEC1B8ue170006INS_16__value_init_tagES7_EEOT_OT0_, symObjAddr: 0x25A8, symBinAddr: 0x1000CE3C8, symSize: 0x3C }
  - { offsetInCU: 0x9045, offset: 0x79227, size: 0x8, addend: 0x0, symName: __ZNSt3__117__compressed_pairIP10LayerStackNS_14default_deleteIS1_EEEC2B8ue170006INS_16__value_init_tagES7_EEOT_OT0_, symObjAddr: 0x25E4, symBinAddr: 0x1000CE404, symSize: 0x3C }
  - { offsetInCU: 0x909B, offset: 0x7927D, size: 0x8, addend: 0x0, symName: __ZNSt3__122__compressed_pair_elemIP10LayerStackLi0ELb0EEC2B8ue170006ENS_16__value_init_tagE, symObjAddr: 0x2620, symBinAddr: 0x1000CE440, symSize: 0x60 }
  - { offsetInCU: 0x90CE, offset: 0x792B0, size: 0x8, addend: 0x0, symName: __ZNSt3__122__compressed_pair_elemINS_14default_deleteI10LayerStackEELi1ELb1EEC2B8ue170006ENS_16__value_init_tagE, symObjAddr: 0x2680, symBinAddr: 0x1000CE4A0, symSize: 0x14 }
  - { offsetInCU: 0x9102, offset: 0x792E4, size: 0x8, addend: 0x0, symName: __ZNSt3__19allocatorI6WindowEC1B8ue170006Ev, symObjAddr: 0x29A4, symBinAddr: 0x1000CE7C4, symSize: 0x2C }
  - { offsetInCU: 0x9175, offset: 0x79357, size: 0x8, addend: 0x0, symName: __ZNSt3__118__allocation_guardINS_9allocatorINS_20__shared_ptr_emplaceI6WindowNS1_IS3_EEEEEEEC1B8ue170006IS4_EET_m, symObjAddr: 0x29D0, symBinAddr: 0x1000CE7F0, symSize: 0x34 }
  - { offsetInCU: 0x91C2, offset: 0x793A4, size: 0x8, addend: 0x0, symName: __ZNKSt3__118__allocation_guardINS_9allocatorINS_20__shared_ptr_emplaceI6WindowNS1_IS3_EEEEEEE5__getB8ue170006Ev, symObjAddr: 0x2A04, symBinAddr: 0x1000CE824, symSize: 0x64 }
  - { offsetInCU: 0x91F0, offset: 0x793D2, size: 0x8, addend: 0x0, symName: __ZNSt3__120__shared_ptr_emplaceI6WindowNS_9allocatorIS1_EEEC1B8ue170006IJRNS_12basic_stringIcNS_11char_traitsIcEENS2_IcEEEERtSC_EEES3_DpOT_, symObjAddr: 0x2A68, symBinAddr: 0x1000CE888, symSize: 0x44 }
  - { offsetInCU: 0x926D, offset: 0x7944F, size: 0x8, addend: 0x0, symName: __ZNSt3__118__allocation_guardINS_9allocatorINS_20__shared_ptr_emplaceI6WindowNS1_IS3_EEEEEEE13__release_ptrB8ue170006Ev, symObjAddr: 0x2AAC, symBinAddr: 0x1000CE8CC, symSize: 0xA8 }
  - { offsetInCU: 0x929F, offset: 0x79481, size: 0x8, addend: 0x0, symName: __ZNSt3__110shared_ptrI6WindowE27__create_with_control_blockB8ue170006IS1_NS_20__shared_ptr_emplaceIS1_NS_9allocatorIS1_EEEEEES2_PT_PT0_, symObjAddr: 0x2B54, symBinAddr: 0x1000CE974, symSize: 0x188 }
  - { offsetInCU: 0x92F4, offset: 0x794D6, size: 0x8, addend: 0x0, symName: __ZNSt3__120__shared_ptr_emplaceI6WindowNS_9allocatorIS1_EEE10__get_elemB8ue170006Ev, symObjAddr: 0x2CDC, symBinAddr: 0x1000CEAFC, symSize: 0x28 }
  - { offsetInCU: 0x9318, offset: 0x794FA, size: 0x8, addend: 0x0, symName: __ZNSt3__118__allocation_guardINS_9allocatorINS_20__shared_ptr_emplaceI6WindowNS1_IS3_EEEEEEED1B8ue170006Ev, symObjAddr: 0x2D04, symBinAddr: 0x1000CEB24, symSize: 0x2C }
  - { offsetInCU: 0x9340, offset: 0x79522, size: 0x8, addend: 0x0, symName: __ZNSt3__118__allocation_guardINS_9allocatorINS_20__shared_ptr_emplaceI6WindowNS1_IS3_EEEEEEEC2B8ue170006IS4_EET_m, symObjAddr: 0x2D30, symBinAddr: 0x1000CEB50, symSize: 0x28C }
  - { offsetInCU: 0x9393, offset: 0x79575, size: 0x8, addend: 0x0, symName: __ZNSt3__19allocatorINS_20__shared_ptr_emplaceI6WindowNS0_IS2_EEEEEC1B8ue170006IS2_EERKNS0_IT_EE, symObjAddr: 0x2FBC, symBinAddr: 0x1000CEDDC, symSize: 0x34 }
  - { offsetInCU: 0x93CF, offset: 0x795B1, size: 0x8, addend: 0x0, symName: __ZNSt3__116allocator_traitsINS_9allocatorINS_20__shared_ptr_emplaceI6WindowNS1_IS3_EEEEEEE8allocateB8ue170006ERS6_m, symObjAddr: 0x2FF0, symBinAddr: 0x1000CEE10, symSize: 0x2C }
  - { offsetInCU: 0x9402, offset: 0x795E4, size: 0x8, addend: 0x0, symName: __ZNSt3__19allocatorINS_20__shared_ptr_emplaceI6WindowNS0_IS2_EEEEEC2B8ue170006IS2_EERKNS0_IT_EE, symObjAddr: 0x301C, symBinAddr: 0x1000CEE3C, symSize: 0x30 }
  - { offsetInCU: 0x943E, offset: 0x79620, size: 0x8, addend: 0x0, symName: __ZNSt3__116__non_trivial_ifILb1ENS_9allocatorINS_20__shared_ptr_emplaceI6WindowNS1_IS3_EEEEEEEC2B8ue170006Ev, symObjAddr: 0x304C, symBinAddr: 0x1000CEE6C, symSize: 0x14 }
  - { offsetInCU: 0x9467, offset: 0x79649, size: 0x8, addend: 0x0, symName: __ZNSt3__19allocatorINS_20__shared_ptr_emplaceI6WindowNS0_IS2_EEEEE8allocateB8ue170006Em, symObjAddr: 0x3060, symBinAddr: 0x1000CEE80, symSize: 0x60 }
  - { offsetInCU: 0x94A3, offset: 0x79685, size: 0x8, addend: 0x0, symName: __ZNSt3__116allocator_traitsINS_9allocatorINS_20__shared_ptr_emplaceI6WindowNS1_IS3_EEEEEEE8max_sizeB8ue170006IS6_vEEmRKS6_, symObjAddr: 0x30C0, symBinAddr: 0x1000CEEE0, symSize: 0x24 }
  - { offsetInCU: 0x94D1, offset: 0x796B3, size: 0x8, addend: 0x0, symName: __ZNKSt3__19allocatorINS_20__shared_ptr_emplaceI6WindowNS0_IS2_EEEEE8max_sizeB8ue170006Ev, symObjAddr: 0x317C, symBinAddr: 0x1000CEF04, symSize: 0x20 }
  - { offsetInCU: 0x94F5, offset: 0x796D7, size: 0x8, addend: 0x0, symName: __ZNSt3__120__shared_ptr_emplaceI6WindowNS_9allocatorIS1_EEEC2B8ue170006IJRNS_12basic_stringIcNS_11char_traitsIcEENS2_IcEEEERtSC_EEES3_DpOT_, symObjAddr: 0x320C, symBinAddr: 0x1000CEF24, symSize: 0x468 }
  - { offsetInCU: 0x957A, offset: 0x7975C, size: 0x8, addend: 0x0, symName: __ZNSt3__120__shared_ptr_emplaceI6WindowNS_9allocatorIS1_EEE8_StorageC1B8ue170006EOS3_, symObjAddr: 0x3744, symBinAddr: 0x1000CF38C, symSize: 0x34 }
  - { offsetInCU: 0x95B1, offset: 0x79793, size: 0x8, addend: 0x0, symName: __ZNSt3__120__shared_ptr_emplaceI6WindowNS_9allocatorIS1_EEE8_StorageD1B8ue170006Ev, symObjAddr: 0x3778, symBinAddr: 0x1000CF3C0, symSize: 0x2C }
  - { offsetInCU: 0x95D9, offset: 0x797BB, size: 0x8, addend: 0x0, symName: __ZNSt3__120__shared_ptr_emplaceI6WindowNS_9allocatorIS1_EEED1Ev, symObjAddr: 0x37A4, symBinAddr: 0x1000CF3EC, symSize: 0x2C }
  - { offsetInCU: 0x9605, offset: 0x797E7, size: 0x8, addend: 0x0, symName: __ZNSt3__120__shared_ptr_emplaceI6WindowNS_9allocatorIS1_EEED0Ev, symObjAddr: 0x37D0, symBinAddr: 0x1000CF418, symSize: 0x30 }
  - { offsetInCU: 0x9631, offset: 0x79813, size: 0x8, addend: 0x0, symName: __ZNSt3__120__shared_ptr_emplaceI6WindowNS_9allocatorIS1_EEE16__on_zero_sharedEv, symObjAddr: 0x3800, symBinAddr: 0x1000CF448, symSize: 0x28 }
  - { offsetInCU: 0x9655, offset: 0x79837, size: 0x8, addend: 0x0, symName: __ZNSt3__120__shared_ptr_emplaceI6WindowNS_9allocatorIS1_EEE21__on_zero_shared_weakEv, symObjAddr: 0x3828, symBinAddr: 0x1000CF470, symSize: 0x208 }
  - { offsetInCU: 0x9699, offset: 0x7987B, size: 0x8, addend: 0x0, symName: __ZNSt3__120__shared_ptr_emplaceI6WindowNS_9allocatorIS1_EEE8_StorageC2B8ue170006EOS3_, symObjAddr: 0x3AF0, symBinAddr: 0x1000CF678, symSize: 0x30 }
  - { offsetInCU: 0x96D0, offset: 0x798B2, size: 0x8, addend: 0x0, symName: __ZNSt3__120__shared_ptr_emplaceI6WindowNS_9allocatorIS1_EEE8_Storage11__get_allocB8ue170006Ev, symObjAddr: 0x3B20, symBinAddr: 0x1000CF6A8, symSize: 0x3C }
  - { offsetInCU: 0x9721, offset: 0x79903, size: 0x8, addend: 0x0, symName: __ZNSt3__117__compressed_pairINS_9allocatorI6WindowEES2_E16__get_first_baseB8ue170006EPS4_, symObjAddr: 0x3B5C, symBinAddr: 0x1000CF6E4, symSize: 0x14 }
  - { offsetInCU: 0x9744, offset: 0x79926, size: 0x8, addend: 0x0, symName: __ZNSt3__120__shared_ptr_emplaceI6WindowNS_9allocatorIS1_EEE8_StorageD2B8ue170006Ev, symObjAddr: 0x3B70, symBinAddr: 0x1000CF6F8, symSize: 0x2C }
  - { offsetInCU: 0x976C, offset: 0x7994E, size: 0x8, addend: 0x0, symName: __ZNSt3__120__shared_ptr_emplaceI6WindowNS_9allocatorIS1_EEED2Ev, symObjAddr: 0x3B9C, symBinAddr: 0x1000CF724, symSize: 0x88 }
  - { offsetInCU: 0x9798, offset: 0x7997A, size: 0x8, addend: 0x0, symName: __ZN6WindowD1Ev, symObjAddr: 0x3C24, symBinAddr: 0x1000CF7AC, symSize: 0x2C }
  - { offsetInCU: 0x97C0, offset: 0x799A2, size: 0x8, addend: 0x0, symName: __ZN6WindowD2Ev, symObjAddr: 0x3C50, symBinAddr: 0x1000CF7D8, symSize: 0x3C }
  - { offsetInCU: 0x97E8, offset: 0x799CA, size: 0x8, addend: 0x0, symName: __ZNSt3__120__shared_ptr_emplaceI6WindowNS_9allocatorIS1_EEE11__get_allocB8ue170006Ev, symObjAddr: 0x3F34, symBinAddr: 0x1000CF814, symSize: 0x28 }
  - { offsetInCU: 0x980C, offset: 0x799EE, size: 0x8, addend: 0x0, symName: __ZNSt3__116allocator_traitsINS_9allocatorINS_20__shared_ptr_emplaceI6WindowNS1_IS3_EEEEEEE10deallocateB8ue170006ERS6_PS5_m, symObjAddr: 0x3F5C, symBinAddr: 0x1000CF83C, symSize: 0x34 }
  - { offsetInCU: 0x984E, offset: 0x79A30, size: 0x8, addend: 0x0, symName: __ZNSt3__114pointer_traitsIPNS_20__shared_ptr_emplaceI6WindowNS_9allocatorIS2_EEEEE10pointer_toB8ue170006ERS5_, symObjAddr: 0x3F90, symBinAddr: 0x1000CF870, symSize: 0x14 }
  - { offsetInCU: 0x9871, offset: 0x79A53, size: 0x8, addend: 0x0, symName: __ZNSt3__19allocatorINS_20__shared_ptr_emplaceI6WindowNS0_IS2_EEEEE10deallocateB8ue170006EPS4_m, symObjAddr: 0x3FA4, symBinAddr: 0x1000CF884, symSize: 0x50 }
  - { offsetInCU: 0x98B1, offset: 0x79A93, size: 0x8, addend: 0x0, symName: __ZNSt3__110shared_ptrI6WindowEC1B8ue170006Ev, symObjAddr: 0x40FC, symBinAddr: 0x1000CF8D4, symSize: 0x2C }
  - { offsetInCU: 0x98D9, offset: 0x79ABB, size: 0x8, addend: 0x0, symName: __ZNSt3__110shared_ptrI6WindowE18__enable_weak_thisB8ue170006Ez, symObjAddr: 0x4128, symBinAddr: 0x1000CF900, symSize: 0x10 }
  - { offsetInCU: 0x98FE, offset: 0x79AE0, size: 0x8, addend: 0x0, symName: __ZNSt3__110shared_ptrI6WindowEC2B8ue170006Ev, symObjAddr: 0x4138, symBinAddr: 0x1000CF910, symSize: 0x9C }
  - { offsetInCU: 0x9926, offset: 0x79B08, size: 0x8, addend: 0x0, symName: __ZNSt3__120__shared_ptr_emplaceI6WindowNS_9allocatorIS1_EEE8_Storage10__get_elemB8ue170006Ev, symObjAddr: 0x41D4, symBinAddr: 0x1000CF9AC, symSize: 0x3C }
  - { offsetInCU: 0x9977, offset: 0x79B59, size: 0x8, addend: 0x0, symName: __ZNSt3__117__compressed_pairINS_9allocatorI6WindowEES2_E17__get_second_baseB8ue170006EPS4_, symObjAddr: 0x4210, symBinAddr: 0x1000CF9E8, symSize: 0x14 }
  - { offsetInCU: 0x999A, offset: 0x79B7C, size: 0x8, addend: 0x0, symName: __ZNSt3__118__allocation_guardINS_9allocatorINS_20__shared_ptr_emplaceI6WindowNS1_IS3_EEEEEEED2B8ue170006Ev, symObjAddr: 0x4224, symBinAddr: 0x1000CF9FC, symSize: 0x2C }
  - { offsetInCU: 0x99C2, offset: 0x79BA4, size: 0x8, addend: 0x0, symName: __ZNSt3__118__allocation_guardINS_9allocatorINS_20__shared_ptr_emplaceI6WindowNS1_IS3_EEEEEEE9__destroyB8ue170006Ev, symObjAddr: 0x4250, symBinAddr: 0x1000CFA28, symSize: 0xFC }
  - { offsetInCU: 0x99E6, offset: 0x79BC8, size: 0x8, addend: 0x0, symName: __ZNSt3__19allocatorI6WindowEC2B8ue170006Ev, symObjAddr: 0x434C, symBinAddr: 0x1000CFB24, symSize: 0x2C }
  - { offsetInCU: 0x9A0E, offset: 0x79BF0, size: 0x8, addend: 0x0, symName: __ZNSt3__116__non_trivial_ifILb1ENS_9allocatorI6WindowEEEC2B8ue170006Ev, symObjAddr: 0x4378, symBinAddr: 0x1000CFB50, symSize: 0x14 }
  - { offsetInCU: 0x9A37, offset: 0x79C19, size: 0x8, addend: 0x0, symName: __ZNSt3__110shared_ptrI6WindowEC1B8ue170006EOS2_, symObjAddr: 0x438C, symBinAddr: 0x1000CFB64, symSize: 0x34 }
  - { offsetInCU: 0x9A6E, offset: 0x79C50, size: 0x8, addend: 0x0, symName: __ZNSt3__110shared_ptrI6WindowE4swapB8ue170006ERS2_, symObjAddr: 0x43C0, symBinAddr: 0x1000CFB98, symSize: 0x44 }
  - { offsetInCU: 0x9AA1, offset: 0x79C83, size: 0x8, addend: 0x0, symName: __ZNSt3__110shared_ptrI6WindowEC2B8ue170006EOS2_, symObjAddr: 0x4404, symBinAddr: 0x1000CFBDC, symSize: 0x1B8 }
  - { offsetInCU: 0x9AD8, offset: 0x79CBA, size: 0x8, addend: 0x0, symName: __ZNSt3__110shared_ptrI6WindowED2B8ue170006Ev, symObjAddr: 0x4824, symBinAddr: 0x1000CFEC8, symSize: 0xC8 }
  - { offsetInCU: 0x9B00, offset: 0x79CE2, size: 0x8, addend: 0x0, symName: __ZN10LayerStackC1Ev, symObjAddr: 0x48EC, symBinAddr: 0x1000CFF90, symSize: 0x2C }
  - { offsetInCU: 0x9B28, offset: 0x79D0A, size: 0x8, addend: 0x0, symName: __ZNSt3__110unique_ptrI10LayerStackNS_14default_deleteIS1_EEEC1B8ue170006ILb1EvEEPS1_, symObjAddr: 0x4918, symBinAddr: 0x1000CFFBC, symSize: 0x34 }
  - { offsetInCU: 0x9B69, offset: 0x79D4B, size: 0x8, addend: 0x0, symName: __ZN10LayerStackC2Ev, symObjAddr: 0x494C, symBinAddr: 0x1000CFFF0, symSize: 0x240 }
  - { offsetInCU: 0x9B92, offset: 0x79D74, size: 0x8, addend: 0x0, symName: __ZNSt3__16vectorIP5LayerNS_9allocatorIS2_EEEC1B8ue170006Ev, symObjAddr: 0x4B8C, symBinAddr: 0x1000D0230, symSize: 0x2C }
  - { offsetInCU: 0x9BBA, offset: 0x79D9C, size: 0x8, addend: 0x0, symName: __ZNSt3__111__wrap_iterIPP5LayerEC1B8ue170006Ev, symObjAddr: 0x4BB8, symBinAddr: 0x1000D025C, symSize: 0x2C }
  - { offsetInCU: 0x9BE2, offset: 0x79DC4, size: 0x8, addend: 0x0, symName: __ZNSt3__16vectorIP5LayerNS_9allocatorIS2_EEEC2B8ue170006Ev, symObjAddr: 0x4E4C, symBinAddr: 0x1000D0288, symSize: 0x2E8 }
  - { offsetInCU: 0x9C10, offset: 0x79DF2, size: 0x8, addend: 0x0, symName: __ZNSt3__117__compressed_pairIPP5LayerNS_9allocatorIS2_EEEC1B8ue170006IDnNS_18__default_init_tagEEEOT_OT0_, symObjAddr: 0x5134, symBinAddr: 0x1000D0570, symSize: 0x3C }
  - { offsetInCU: 0x9C66, offset: 0x79E48, size: 0x8, addend: 0x0, symName: __ZNSt3__117__compressed_pairIPP5LayerNS_9allocatorIS2_EEEC2B8ue170006IDnNS_18__default_init_tagEEEOT_OT0_, symObjAddr: 0x5170, symBinAddr: 0x1000D05AC, symSize: 0x40 }
  - { offsetInCU: 0x9CBC, offset: 0x79E9E, size: 0x8, addend: 0x0, symName: __ZNSt3__122__compressed_pair_elemINS_9allocatorIP5LayerEELi1ELb1EEC2B8ue170006ENS_18__default_init_tagE, symObjAddr: 0x5214, symBinAddr: 0x1000D05EC, symSize: 0x2C }
  - { offsetInCU: 0x9CEF, offset: 0x79ED1, size: 0x8, addend: 0x0, symName: __ZNSt3__19allocatorIP5LayerEC2B8ue170006Ev, symObjAddr: 0x5240, symBinAddr: 0x1000D0618, symSize: 0x2C }
  - { offsetInCU: 0x9D17, offset: 0x79EF9, size: 0x8, addend: 0x0, symName: __ZNSt3__116__non_trivial_ifILb1ENS_9allocatorIP5LayerEEEC2B8ue170006Ev, symObjAddr: 0x526C, symBinAddr: 0x1000D0644, symSize: 0x14 }
  - { offsetInCU: 0x9D40, offset: 0x79F22, size: 0x8, addend: 0x0, symName: __ZNSt3__111__wrap_iterIPP5LayerEC2B8ue170006Ev, symObjAddr: 0x5280, symBinAddr: 0x1000D0658, symSize: 0x60 }
  - { offsetInCU: 0x9D68, offset: 0x79F4A, size: 0x8, addend: 0x0, symName: __ZNSt3__110unique_ptrI10LayerStackNS_14default_deleteIS1_EEEC2B8ue170006ILb1EvEEPS1_, symObjAddr: 0x5580, symBinAddr: 0x1000D06B8, symSize: 0x260 }
  - { offsetInCU: 0x9DAE, offset: 0x79F90, size: 0x8, addend: 0x0, symName: __ZNSt3__117__compressed_pairIP10LayerStackNS_14default_deleteIS1_EEEC1B8ue170006IRS2_NS_16__value_init_tagEEEOT_OT0_, symObjAddr: 0x57E0, symBinAddr: 0x1000D0918, symSize: 0x3C }
  - { offsetInCU: 0x9E04, offset: 0x79FE6, size: 0x8, addend: 0x0, symName: __ZNSt3__117__compressed_pairIP10LayerStackNS_14default_deleteIS1_EEEC2B8ue170006IRS2_NS_16__value_init_tagEEEOT_OT0_, symObjAddr: 0x581C, symBinAddr: 0x1000D0954, symSize: 0x40 }
  - { offsetInCU: 0x9E5A, offset: 0x7A03C, size: 0x8, addend: 0x0, symName: __ZNSt3__122__compressed_pair_elemIP10LayerStackLi0ELb0EEC2B8ue170006IRS2_vEEOT_, symObjAddr: 0x585C, symBinAddr: 0x1000D0994, symSize: 0xB0 }
  - { offsetInCU: 0x9E9A, offset: 0x7A07C, size: 0x8, addend: 0x0, symName: __ZNSt3__110unique_ptrI10LayerStackNS_14default_deleteIS1_EEE5resetB8ue170006EPS1_, symObjAddr: 0x590C, symBinAddr: 0x1000D0A44, symSize: 0xEC }
  - { offsetInCU: 0x9EDC, offset: 0x7A0BE, size: 0x8, addend: 0x0, symName: __ZNSt3__110unique_ptrI10LayerStackNS_14default_deleteIS1_EEE7releaseB8ue170006Ev, symObjAddr: 0x59F8, symBinAddr: 0x1000D0B30, symSize: 0xB8 }
  - { offsetInCU: 0x9F0F, offset: 0x7A0F1, size: 0x8, addend: 0x0, symName: __ZNSt3__110unique_ptrI10LayerStackNS_14default_deleteIS1_EEE11get_deleterB8ue170006Ev, symObjAddr: 0x5AB0, symBinAddr: 0x1000D0BE8, symSize: 0x24 }
  - { offsetInCU: 0x9F33, offset: 0x7A115, size: 0x8, addend: 0x0, symName: __ZNSt3__117__compressed_pairIP10LayerStackNS_14default_deleteIS1_EEE6secondB8ue170006Ev, symObjAddr: 0x5AD4, symBinAddr: 0x1000D0C0C, symSize: 0x24 }
  - { offsetInCU: 0x9F57, offset: 0x7A139, size: 0x8, addend: 0x0, symName: __ZNSt3__117__compressed_pairIP10LayerStackNS_14default_deleteIS1_EEE5firstB8ue170006Ev, symObjAddr: 0x5AF8, symBinAddr: 0x1000D0C30, symSize: 0x24 }
  - { offsetInCU: 0x9F7B, offset: 0x7A15D, size: 0x8, addend: 0x0, symName: __ZNKSt3__114default_deleteI10LayerStackEclB8ue170006EPS1_, symObjAddr: 0x5B1C, symBinAddr: 0x1000D0C54, symSize: 0x4C }
  - { offsetInCU: 0x9FAD, offset: 0x7A18F, size: 0x8, addend: 0x0, symName: __ZNSt3__122__compressed_pair_elemIP10LayerStackLi0ELb0EE5__getB8ue170006Ev, symObjAddr: 0x5B68, symBinAddr: 0x1000D0CA0, symSize: 0x14 }
  - { offsetInCU: 0x9FD1, offset: 0x7A1B3, size: 0x8, addend: 0x0, symName: __ZNSt3__122__compressed_pair_elemINS_14default_deleteI10LayerStackEELi1ELb1EE5__getB8ue170006Ev, symObjAddr: 0x5B7C, symBinAddr: 0x1000D0CB4, symSize: 0x14 }
  - { offsetInCU: 0x9FF5, offset: 0x7A1D7, size: 0x8, addend: 0x0, symName: __ZNSt3__110unique_ptrI10LayerStackNS_14default_deleteIS1_EEED2B8ue170006Ev, symObjAddr: 0x5B90, symBinAddr: 0x1000D0CC8, symSize: 0x30 }
  - { offsetInCU: 0xA01D, offset: 0x7A1FF, size: 0x8, addend: 0x0, symName: __ZNKSt3__110shared_ptrI6WindowE3getB8ue170006Ev, symObjAddr: 0x5C60, symBinAddr: 0x1000D0CF8, symSize: 0x60 }
  - { offsetInCU: 0xA04B, offset: 0x7A22D, size: 0x8, addend: 0x0, symName: __ZNSt3__19allocatorI17PerspectiveCameraEC1B8ue170006Ev, symObjAddr: 0x6068, symBinAddr: 0x1000D1068, symSize: 0x2C }
  - { offsetInCU: 0xA0BE, offset: 0x7A2A0, size: 0x8, addend: 0x0, symName: __ZNSt3__118__allocation_guardINS_9allocatorINS_20__shared_ptr_emplaceI17PerspectiveCameraNS1_IS3_EEEEEEEC1B8ue170006IS4_EET_m, symObjAddr: 0x6094, symBinAddr: 0x1000D1094, symSize: 0x34 }
  - { offsetInCU: 0xA10B, offset: 0x7A2ED, size: 0x8, addend: 0x0, symName: __ZNKSt3__118__allocation_guardINS_9allocatorINS_20__shared_ptr_emplaceI17PerspectiveCameraNS1_IS3_EEEEEEE5__getB8ue170006Ev, symObjAddr: 0x60C8, symBinAddr: 0x1000D10C8, symSize: 0x64 }
  - { offsetInCU: 0xA134, offset: 0x7A316, size: 0x8, addend: 0x0, symName: __ZNSt3__120__shared_ptr_emplaceI17PerspectiveCameraNS_9allocatorIS1_EEEC1B8ue170006IJfffEEES3_DpOT_, symObjAddr: 0x612C, symBinAddr: 0x1000D112C, symSize: 0x44 }
  - { offsetInCU: 0xA1B1, offset: 0x7A393, size: 0x8, addend: 0x0, symName: __ZNSt3__118__allocation_guardINS_9allocatorINS_20__shared_ptr_emplaceI17PerspectiveCameraNS1_IS3_EEEEEEE13__release_ptrB8ue170006Ev, symObjAddr: 0x6170, symBinAddr: 0x1000D1170, symSize: 0xA8 }
  - { offsetInCU: 0xA1E3, offset: 0x7A3C5, size: 0x8, addend: 0x0, symName: __ZNSt3__110shared_ptrI17PerspectiveCameraE27__create_with_control_blockB8ue170006IS1_NS_20__shared_ptr_emplaceIS1_NS_9allocatorIS1_EEEEEES2_PT_PT0_, symObjAddr: 0x6218, symBinAddr: 0x1000D1218, symSize: 0x188 }
  - { offsetInCU: 0xA238, offset: 0x7A41A, size: 0x8, addend: 0x0, symName: __ZNSt3__120__shared_ptr_emplaceI17PerspectiveCameraNS_9allocatorIS1_EEE10__get_elemB8ue170006Ev, symObjAddr: 0x63A0, symBinAddr: 0x1000D13A0, symSize: 0x28 }
  - { offsetInCU: 0xA25C, offset: 0x7A43E, size: 0x8, addend: 0x0, symName: __ZNSt3__118__allocation_guardINS_9allocatorINS_20__shared_ptr_emplaceI17PerspectiveCameraNS1_IS3_EEEEEEED1B8ue170006Ev, symObjAddr: 0x63C8, symBinAddr: 0x1000D13C8, symSize: 0x2C }
  - { offsetInCU: 0xA284, offset: 0x7A466, size: 0x8, addend: 0x0, symName: __ZNSt3__118__allocation_guardINS_9allocatorINS_20__shared_ptr_emplaceI17PerspectiveCameraNS1_IS3_EEEEEEEC2B8ue170006IS4_EET_m, symObjAddr: 0x63F4, symBinAddr: 0x1000D13F4, symSize: 0x28C }
  - { offsetInCU: 0xA2D7, offset: 0x7A4B9, size: 0x8, addend: 0x0, symName: __ZNSt3__19allocatorINS_20__shared_ptr_emplaceI17PerspectiveCameraNS0_IS2_EEEEEC1B8ue170006IS2_EERKNS0_IT_EE, symObjAddr: 0x6680, symBinAddr: 0x1000D1680, symSize: 0x34 }
  - { offsetInCU: 0xA313, offset: 0x7A4F5, size: 0x8, addend: 0x0, symName: __ZNSt3__116allocator_traitsINS_9allocatorINS_20__shared_ptr_emplaceI17PerspectiveCameraNS1_IS3_EEEEEEE8allocateB8ue170006ERS6_m, symObjAddr: 0x66B4, symBinAddr: 0x1000D16B4, symSize: 0x2C }
  - { offsetInCU: 0xA346, offset: 0x7A528, size: 0x8, addend: 0x0, symName: __ZNSt3__19allocatorINS_20__shared_ptr_emplaceI17PerspectiveCameraNS0_IS2_EEEEEC2B8ue170006IS2_EERKNS0_IT_EE, symObjAddr: 0x66E0, symBinAddr: 0x1000D16E0, symSize: 0x30 }
  - { offsetInCU: 0xA382, offset: 0x7A564, size: 0x8, addend: 0x0, symName: __ZNSt3__116__non_trivial_ifILb1ENS_9allocatorINS_20__shared_ptr_emplaceI17PerspectiveCameraNS1_IS3_EEEEEEEC2B8ue170006Ev, symObjAddr: 0x6710, symBinAddr: 0x1000D1710, symSize: 0x14 }
  - { offsetInCU: 0xA3AB, offset: 0x7A58D, size: 0x8, addend: 0x0, symName: __ZNSt3__19allocatorINS_20__shared_ptr_emplaceI17PerspectiveCameraNS0_IS2_EEEEE8allocateB8ue170006Em, symObjAddr: 0x6724, symBinAddr: 0x1000D1724, symSize: 0x60 }
  - { offsetInCU: 0xA3E7, offset: 0x7A5C9, size: 0x8, addend: 0x0, symName: __ZNSt3__116allocator_traitsINS_9allocatorINS_20__shared_ptr_emplaceI17PerspectiveCameraNS1_IS3_EEEEEEE8max_sizeB8ue170006IS6_vEEmRKS6_, symObjAddr: 0x6784, symBinAddr: 0x1000D1784, symSize: 0x24 }
  - { offsetInCU: 0xA415, offset: 0x7A5F7, size: 0x8, addend: 0x0, symName: __ZNKSt3__19allocatorINS_20__shared_ptr_emplaceI17PerspectiveCameraNS0_IS2_EEEEE8max_sizeB8ue170006Ev, symObjAddr: 0x67A8, symBinAddr: 0x1000D17A8, symSize: 0x20 }
  - { offsetInCU: 0xA439, offset: 0x7A61B, size: 0x8, addend: 0x0, symName: __ZNSt3__120__shared_ptr_emplaceI17PerspectiveCameraNS_9allocatorIS1_EEEC2B8ue170006IJfffEEES3_DpOT_, symObjAddr: 0x67C8, symBinAddr: 0x1000D17C8, symSize: 0x42C }
  - { offsetInCU: 0xA4BE, offset: 0x7A6A0, size: 0x8, addend: 0x0, symName: __ZNSt3__120__shared_ptr_emplaceI17PerspectiveCameraNS_9allocatorIS1_EEE8_StorageC1B8ue170006EOS3_, symObjAddr: 0x6BF4, symBinAddr: 0x1000D1BF4, symSize: 0x34 }
  - { offsetInCU: 0xA4F5, offset: 0x7A6D7, size: 0x8, addend: 0x0, symName: __ZNSt3__120__shared_ptr_emplaceI17PerspectiveCameraNS_9allocatorIS1_EEE8_StorageD1B8ue170006Ev, symObjAddr: 0x6C28, symBinAddr: 0x1000D1C28, symSize: 0x2C }
  - { offsetInCU: 0xA51D, offset: 0x7A6FF, size: 0x8, addend: 0x0, symName: __ZNSt3__120__shared_ptr_emplaceI17PerspectiveCameraNS_9allocatorIS1_EEED1Ev, symObjAddr: 0x6C54, symBinAddr: 0x1000D1C54, symSize: 0x2C }
  - { offsetInCU: 0xA549, offset: 0x7A72B, size: 0x8, addend: 0x0, symName: __ZNSt3__120__shared_ptr_emplaceI17PerspectiveCameraNS_9allocatorIS1_EEED0Ev, symObjAddr: 0x6C80, symBinAddr: 0x1000D1C80, symSize: 0x30 }
  - { offsetInCU: 0xA575, offset: 0x7A757, size: 0x8, addend: 0x0, symName: __ZNSt3__120__shared_ptr_emplaceI17PerspectiveCameraNS_9allocatorIS1_EEE16__on_zero_sharedEv, symObjAddr: 0x6CB0, symBinAddr: 0x1000D1CB0, symSize: 0x28 }
  - { offsetInCU: 0xA599, offset: 0x7A77B, size: 0x8, addend: 0x0, symName: __ZNSt3__120__shared_ptr_emplaceI17PerspectiveCameraNS_9allocatorIS1_EEE21__on_zero_shared_weakEv, symObjAddr: 0x6CD8, symBinAddr: 0x1000D1CD8, symSize: 0x208 }
  - { offsetInCU: 0xA5DD, offset: 0x7A7BF, size: 0x8, addend: 0x0, symName: __ZNSt3__120__shared_ptr_emplaceI17PerspectiveCameraNS_9allocatorIS1_EEE8_StorageC2B8ue170006EOS3_, symObjAddr: 0x6EE0, symBinAddr: 0x1000D1EE0, symSize: 0x30 }
  - { offsetInCU: 0xA614, offset: 0x7A7F6, size: 0x8, addend: 0x0, symName: __ZNSt3__120__shared_ptr_emplaceI17PerspectiveCameraNS_9allocatorIS1_EEE8_Storage11__get_allocB8ue170006Ev, symObjAddr: 0x6F10, symBinAddr: 0x1000D1F10, symSize: 0x3C }
  - { offsetInCU: 0xA665, offset: 0x7A847, size: 0x8, addend: 0x0, symName: __ZNSt3__117__compressed_pairINS_9allocatorI17PerspectiveCameraEES2_E16__get_first_baseB8ue170006EPS4_, symObjAddr: 0x6F4C, symBinAddr: 0x1000D1F4C, symSize: 0x14 }
  - { offsetInCU: 0xA688, offset: 0x7A86A, size: 0x8, addend: 0x0, symName: __ZNSt3__120__shared_ptr_emplaceI17PerspectiveCameraNS_9allocatorIS1_EEE8_StorageD2B8ue170006Ev, symObjAddr: 0x6F60, symBinAddr: 0x1000D1F60, symSize: 0x2C }
  - { offsetInCU: 0xA6B0, offset: 0x7A892, size: 0x8, addend: 0x0, symName: __ZNSt3__120__shared_ptr_emplaceI17PerspectiveCameraNS_9allocatorIS1_EEED2Ev, symObjAddr: 0x6F8C, symBinAddr: 0x1000D1F8C, symSize: 0x88 }
  - { offsetInCU: 0xA6DC, offset: 0x7A8BE, size: 0x8, addend: 0x0, symName: __ZN17PerspectiveCameraD1Ev, symObjAddr: 0x7014, symBinAddr: 0x1000D2014, symSize: 0x2C }
  - { offsetInCU: 0xA707, offset: 0x7A8E9, size: 0x8, addend: 0x0, symName: __ZN17PerspectiveCameraD2Ev, symObjAddr: 0x7040, symBinAddr: 0x1000D2040, symSize: 0x30 }
  - { offsetInCU: 0xA732, offset: 0x7A914, size: 0x8, addend: 0x0, symName: __ZNSt3__120__shared_ptr_emplaceI17PerspectiveCameraNS_9allocatorIS1_EEE11__get_allocB8ue170006Ev, symObjAddr: 0x7B80, symBinAddr: 0x1000D2070, symSize: 0x28 }
  - { offsetInCU: 0xA756, offset: 0x7A938, size: 0x8, addend: 0x0, symName: __ZNSt3__116allocator_traitsINS_9allocatorINS_20__shared_ptr_emplaceI17PerspectiveCameraNS1_IS3_EEEEEEE10deallocateB8ue170006ERS6_PS5_m, symObjAddr: 0x7BA8, symBinAddr: 0x1000D2098, symSize: 0x34 }
  - { offsetInCU: 0xA798, offset: 0x7A97A, size: 0x8, addend: 0x0, symName: __ZNSt3__114pointer_traitsIPNS_20__shared_ptr_emplaceI17PerspectiveCameraNS_9allocatorIS2_EEEEE10pointer_toB8ue170006ERS5_, symObjAddr: 0x7BDC, symBinAddr: 0x1000D20CC, symSize: 0x14 }
  - { offsetInCU: 0xA7BB, offset: 0x7A99D, size: 0x8, addend: 0x0, symName: __ZNSt3__19allocatorINS_20__shared_ptr_emplaceI17PerspectiveCameraNS0_IS2_EEEEE10deallocateB8ue170006EPS4_m, symObjAddr: 0x7BF0, symBinAddr: 0x1000D20E0, symSize: 0x50 }
  - { offsetInCU: 0xA7FB, offset: 0x7A9DD, size: 0x8, addend: 0x0, symName: __ZNSt3__110shared_ptrI17PerspectiveCameraEC1B8ue170006Ev, symObjAddr: 0x7C40, symBinAddr: 0x1000D2130, symSize: 0x2C }
  - { offsetInCU: 0xA823, offset: 0x7AA05, size: 0x8, addend: 0x0, symName: __ZNSt3__110shared_ptrI17PerspectiveCameraE18__enable_weak_thisB8ue170006Ez, symObjAddr: 0x7C6C, symBinAddr: 0x1000D215C, symSize: 0x10 }
  - { offsetInCU: 0xA848, offset: 0x7AA2A, size: 0x8, addend: 0x0, symName: __ZNSt3__110shared_ptrI17PerspectiveCameraEC2B8ue170006Ev, symObjAddr: 0x7C7C, symBinAddr: 0x1000D216C, symSize: 0x9C }
  - { offsetInCU: 0xA870, offset: 0x7AA52, size: 0x8, addend: 0x0, symName: __ZNSt3__120__shared_ptr_emplaceI17PerspectiveCameraNS_9allocatorIS1_EEE8_Storage10__get_elemB8ue170006Ev, symObjAddr: 0x7D18, symBinAddr: 0x1000D2208, symSize: 0x3C }
  - { offsetInCU: 0xA8C1, offset: 0x7AAA3, size: 0x8, addend: 0x0, symName: __ZNSt3__117__compressed_pairINS_9allocatorI17PerspectiveCameraEES2_E17__get_second_baseB8ue170006EPS4_, symObjAddr: 0x7D54, symBinAddr: 0x1000D2244, symSize: 0x14 }
  - { offsetInCU: 0xA8E4, offset: 0x7AAC6, size: 0x8, addend: 0x0, symName: __ZNSt3__118__allocation_guardINS_9allocatorINS_20__shared_ptr_emplaceI17PerspectiveCameraNS1_IS3_EEEEEEED2B8ue170006Ev, symObjAddr: 0x7D68, symBinAddr: 0x1000D2258, symSize: 0x2C }
  - { offsetInCU: 0xA90C, offset: 0x7AAEE, size: 0x8, addend: 0x0, symName: __ZNSt3__118__allocation_guardINS_9allocatorINS_20__shared_ptr_emplaceI17PerspectiveCameraNS1_IS3_EEEEEEE9__destroyB8ue170006Ev, symObjAddr: 0x7D94, symBinAddr: 0x1000D2284, symSize: 0xFC }
  - { offsetInCU: 0xA930, offset: 0x7AB12, size: 0x8, addend: 0x0, symName: __ZNSt3__19allocatorI17PerspectiveCameraEC2B8ue170006Ev, symObjAddr: 0x7E90, symBinAddr: 0x1000D2380, symSize: 0x2C }
  - { offsetInCU: 0xA958, offset: 0x7AB3A, size: 0x8, addend: 0x0, symName: __ZNSt3__116__non_trivial_ifILb1ENS_9allocatorI17PerspectiveCameraEEEC2B8ue170006Ev, symObjAddr: 0x7EBC, symBinAddr: 0x1000D23AC, symSize: 0x14 }
  - { offsetInCU: 0xA981, offset: 0x7AB63, size: 0x8, addend: 0x0, symName: __ZNSt3__110shared_ptrI17PerspectiveCameraEC1B8ue170006EOS2_, symObjAddr: 0x7ED0, symBinAddr: 0x1000D23C0, symSize: 0x34 }
  - { offsetInCU: 0xA9B8, offset: 0x7AB9A, size: 0x8, addend: 0x0, symName: __ZNSt3__110shared_ptrI17PerspectiveCameraEC2B8ue170006EOS2_, symObjAddr: 0x7F48, symBinAddr: 0x1000D23F4, symSize: 0x1B8 }
  - { offsetInCU: 0xA9EF, offset: 0x7ABD1, size: 0x8, addend: 0x0, symName: __ZNSt3__110unique_ptrI9WolfRayetNS_14default_deleteIS1_EEEC2B8ue170006ILb1EvEEPS1_, symObjAddr: 0x832C, symBinAddr: 0x1000D25AC, symSize: 0x260 }
  - { offsetInCU: 0xAA35, offset: 0x7AC17, size: 0x8, addend: 0x0, symName: __ZNSt3__117__compressed_pairIP9WolfRayetNS_14default_deleteIS1_EEEC1B8ue170006IRS2_NS_16__value_init_tagEEEOT_OT0_, symObjAddr: 0x858C, symBinAddr: 0x1000D280C, symSize: 0x3C }
  - { offsetInCU: 0xAA8B, offset: 0x7AC6D, size: 0x8, addend: 0x0, symName: __ZNSt3__117__compressed_pairIP9WolfRayetNS_14default_deleteIS1_EEEC2B8ue170006IRS2_NS_16__value_init_tagEEEOT_OT0_, symObjAddr: 0x85C8, symBinAddr: 0x1000D2848, symSize: 0x40 }
  - { offsetInCU: 0xAAE1, offset: 0x7ACC3, size: 0x8, addend: 0x0, symName: __ZNSt3__122__compressed_pair_elemIP9WolfRayetLi0ELb0EEC2B8ue170006IRS2_vEEOT_, symObjAddr: 0x8608, symBinAddr: 0x1000D2888, symSize: 0xB0 }
  - { offsetInCU: 0xAB21, offset: 0x7AD03, size: 0x8, addend: 0x0, symName: __ZNSt3__122__compressed_pair_elemINS_14default_deleteI9WolfRayetEELi1ELb1EEC2B8ue170006ENS_16__value_init_tagE, symObjAddr: 0x86B8, symBinAddr: 0x1000D2938, symSize: 0x14 }
  - { offsetInCU: 0xAB55, offset: 0x7AD37, size: 0x8, addend: 0x0, symName: __ZNSt3__110unique_ptrI9WolfRayetNS_14default_deleteIS1_EEED2B8ue170006Ev, symObjAddr: 0x86CC, symBinAddr: 0x1000D294C, symSize: 0x30 }
  - { offsetInCU: 0xAB7D, offset: 0x7AD5F, size: 0x8, addend: 0x0, symName: __ZNSt3__110unique_ptrI9WolfRayetNS_14default_deleteIS1_EEE5resetB8ue170006EPS1_, symObjAddr: 0x86FC, symBinAddr: 0x1000D297C, symSize: 0xEC }
  - { offsetInCU: 0xABBF, offset: 0x7ADA1, size: 0x8, addend: 0x0, symName: __ZNSt3__117__compressed_pairIP9WolfRayetNS_14default_deleteIS1_EEE5firstB8ue170006Ev, symObjAddr: 0x87E8, symBinAddr: 0x1000D2A68, symSize: 0x24 }
  - { offsetInCU: 0xABE3, offset: 0x7ADC5, size: 0x8, addend: 0x0, symName: __ZNSt3__117__compressed_pairIP9WolfRayetNS_14default_deleteIS1_EEE6secondB8ue170006Ev, symObjAddr: 0x880C, symBinAddr: 0x1000D2A8C, symSize: 0x24 }
  - { offsetInCU: 0xAC07, offset: 0x7ADE9, size: 0x8, addend: 0x0, symName: __ZNKSt3__114default_deleteI9WolfRayetEclB8ue170006EPS1_, symObjAddr: 0x8830, symBinAddr: 0x1000D2AB0, symSize: 0x4C }
  - { offsetInCU: 0xAC39, offset: 0x7AE1B, size: 0x8, addend: 0x0, symName: __ZNSt3__122__compressed_pair_elemIP9WolfRayetLi0ELb0EE5__getB8ue170006Ev, symObjAddr: 0x887C, symBinAddr: 0x1000D2AFC, symSize: 0x14 }
  - { offsetInCU: 0xAC5D, offset: 0x7AE3F, size: 0x8, addend: 0x0, symName: __ZNSt3__122__compressed_pair_elemINS_14default_deleteI9WolfRayetEELi1ELb1EE5__getB8ue170006Ev, symObjAddr: 0x8890, symBinAddr: 0x1000D2B10, symSize: 0x14 }
  - { offsetInCU: 0xAC81, offset: 0x7AE63, size: 0x8, addend: 0x0, symName: __ZN9WolfRayetD1Ev, symObjAddr: 0x88A4, symBinAddr: 0x1000D2B24, symSize: 0x2C }
  - { offsetInCU: 0xACA9, offset: 0x7AE8B, size: 0x8, addend: 0x0, symName: __ZN9WolfRayetD2Ev, symObjAddr: 0x88D0, symBinAddr: 0x1000D2B50, symSize: 0x38 }
  - { offsetInCU: 0xACD1, offset: 0x7AEB3, size: 0x8, addend: 0x0, symName: __ZNKSt3__117__compressed_pairIP9WolfRayetNS_14default_deleteIS1_EEE5firstB8ue170006Ev, symObjAddr: 0x8908, symBinAddr: 0x1000D2B88, symSize: 0x24 }
  - { offsetInCU: 0xACF5, offset: 0x7AED7, size: 0x8, addend: 0x0, symName: __ZNKSt3__122__compressed_pair_elemIP9WolfRayetLi0ELb0EE5__getB8ue170006Ev, symObjAddr: 0x892C, symBinAddr: 0x1000D2BAC, symSize: 0x14 }
  - { offsetInCU: 0x26, offset: 0x7AFCC, size: 0x8, addend: 0x0, symName: __ZN13OpenGLContext4InitEv, symObjAddr: 0x0, symBinAddr: 0x1000D2C58, symSize: 0x64 }
  - { offsetInCU: 0x4982, offset: 0x7F928, size: 0x8, addend: 0x0, symName: __ZN13OpenGLContext4InitEv, symObjAddr: 0x0, symBinAddr: 0x1000D2C58, symSize: 0x64 }
  - { offsetInCU: 0x26, offset: 0x7F979, size: 0x8, addend: 0x0, symName: _gladLoadGL, symObjAddr: 0x0, symBinAddr: 0x1000D2D54, symSize: 0x4C }
  - { offsetInCU: 0x3F, offset: 0x7F992, size: 0x8, addend: 0x0, symName: _GLVersion, symObjAddr: 0x2FD20, symBinAddr: 0x10060E820, symSize: 0x0 }
  - { offsetInCU: 0x7F, offset: 0x7F9D2, size: 0x8, addend: 0x0, symName: _GLAD_GL_VERSION_1_0, symObjAddr: 0x2FD40, symBinAddr: 0x10060E840, symSize: 0x0 }
  - { offsetInCU: 0x96, offset: 0x7F9E9, size: 0x8, addend: 0x0, symName: _GLAD_GL_VERSION_1_1, symObjAddr: 0x2FD60, symBinAddr: 0x10060E860, symSize: 0x0 }
  - { offsetInCU: 0xAD, offset: 0x7FA00, size: 0x8, addend: 0x0, symName: _GLAD_GL_VERSION_1_2, symObjAddr: 0x2FD80, symBinAddr: 0x10060E880, symSize: 0x0 }
  - { offsetInCU: 0xC4, offset: 0x7FA17, size: 0x8, addend: 0x0, symName: _GLAD_GL_VERSION_1_3, symObjAddr: 0x2FDA0, symBinAddr: 0x10060E8A0, symSize: 0x0 }
  - { offsetInCU: 0xDB, offset: 0x7FA2E, size: 0x8, addend: 0x0, symName: _GLAD_GL_VERSION_1_4, symObjAddr: 0x2FDC0, symBinAddr: 0x10060E8C0, symSize: 0x0 }
  - { offsetInCU: 0xF2, offset: 0x7FA45, size: 0x8, addend: 0x0, symName: _GLAD_GL_VERSION_1_5, symObjAddr: 0x2FDE0, symBinAddr: 0x10060E8E0, symSize: 0x0 }
  - { offsetInCU: 0x109, offset: 0x7FA5C, size: 0x8, addend: 0x0, symName: _GLAD_GL_VERSION_2_0, symObjAddr: 0x2FE00, symBinAddr: 0x10060E900, symSize: 0x0 }
  - { offsetInCU: 0x120, offset: 0x7FA73, size: 0x8, addend: 0x0, symName: _GLAD_GL_VERSION_2_1, symObjAddr: 0x2FE20, symBinAddr: 0x10060E920, symSize: 0x0 }
  - { offsetInCU: 0x137, offset: 0x7FA8A, size: 0x8, addend: 0x0, symName: _GLAD_GL_VERSION_3_0, symObjAddr: 0x2FE40, symBinAddr: 0x10060E940, symSize: 0x0 }
  - { offsetInCU: 0x14E, offset: 0x7FAA1, size: 0x8, addend: 0x0, symName: _GLAD_GL_VERSION_3_1, symObjAddr: 0x2FE60, symBinAddr: 0x10060E960, symSize: 0x0 }
  - { offsetInCU: 0x165, offset: 0x7FAB8, size: 0x8, addend: 0x0, symName: _GLAD_GL_VERSION_3_2, symObjAddr: 0x2FE80, symBinAddr: 0x10060E980, symSize: 0x0 }
  - { offsetInCU: 0x17C, offset: 0x7FACF, size: 0x8, addend: 0x0, symName: _GLAD_GL_VERSION_3_3, symObjAddr: 0x2FEA0, symBinAddr: 0x10060E9A0, symSize: 0x0 }
  - { offsetInCU: 0x193, offset: 0x7FAE6, size: 0x8, addend: 0x0, symName: _glad_glActiveTexture, symObjAddr: 0x2FEC0, symBinAddr: 0x10060E9C0, symSize: 0x0 }
  - { offsetInCU: 0x1D5, offset: 0x7FB28, size: 0x8, addend: 0x0, symName: _glad_glAttachShader, symObjAddr: 0x2FEE0, symBinAddr: 0x10060E9E0, symSize: 0x0 }
  - { offsetInCU: 0x20A, offset: 0x7FB5D, size: 0x8, addend: 0x0, symName: _glad_glBeginConditionalRender, symObjAddr: 0x2FF00, symBinAddr: 0x10060EA00, symSize: 0x0 }
  - { offsetInCU: 0x23F, offset: 0x7FB92, size: 0x8, addend: 0x0, symName: _glad_glBeginQuery, symObjAddr: 0x2FF20, symBinAddr: 0x10060EA20, symSize: 0x0 }
  - { offsetInCU: 0x274, offset: 0x7FBC7, size: 0x8, addend: 0x0, symName: _glad_glBeginTransformFeedback, symObjAddr: 0x2FF40, symBinAddr: 0x10060EA40, symSize: 0x0 }
  - { offsetInCU: 0x297, offset: 0x7FBEA, size: 0x8, addend: 0x0, symName: _glad_glBindAttribLocation, symObjAddr: 0x2FF60, symBinAddr: 0x10060EA60, symSize: 0x0 }
  - { offsetInCU: 0x2ED, offset: 0x7FC40, size: 0x8, addend: 0x0, symName: _glad_glBindBuffer, symObjAddr: 0x2FF80, symBinAddr: 0x10060EA80, symSize: 0x0 }
  - { offsetInCU: 0x310, offset: 0x7FC63, size: 0x8, addend: 0x0, symName: _glad_glBindBufferBase, symObjAddr: 0x2FFA0, symBinAddr: 0x10060EAA0, symSize: 0x0 }
  - { offsetInCU: 0x34A, offset: 0x7FC9D, size: 0x8, addend: 0x0, symName: _glad_glBindBufferRange, symObjAddr: 0x2FFC0, symBinAddr: 0x10060EAC0, symSize: 0x0 }
  - { offsetInCU: 0x3C3, offset: 0x7FD16, size: 0x8, addend: 0x0, symName: _glad_glBindFragDataLocation, symObjAddr: 0x2FFE0, symBinAddr: 0x10060EAE0, symSize: 0x0 }
  - { offsetInCU: 0x3E6, offset: 0x7FD39, size: 0x8, addend: 0x0, symName: _glad_glBindFragDataLocationIndexed, symObjAddr: 0x30000, symBinAddr: 0x10060EB00, symSize: 0x0 }
  - { offsetInCU: 0x425, offset: 0x7FD78, size: 0x8, addend: 0x0, symName: _glad_glBindFramebuffer, symObjAddr: 0x30020, symBinAddr: 0x10060EB20, symSize: 0x0 }
  - { offsetInCU: 0x448, offset: 0x7FD9B, size: 0x8, addend: 0x0, symName: _glad_glBindRenderbuffer, symObjAddr: 0x30040, symBinAddr: 0x10060EB40, symSize: 0x0 }
  - { offsetInCU: 0x46B, offset: 0x7FDBE, size: 0x8, addend: 0x0, symName: _glad_glBindSampler, symObjAddr: 0x30060, symBinAddr: 0x10060EB60, symSize: 0x0 }
  - { offsetInCU: 0x48E, offset: 0x7FDE1, size: 0x8, addend: 0x0, symName: _glad_glBindTexture, symObjAddr: 0x30080, symBinAddr: 0x10060EB80, symSize: 0x0 }
  - { offsetInCU: 0x4B1, offset: 0x7FE04, size: 0x8, addend: 0x0, symName: _glad_glBindVertexArray, symObjAddr: 0x300A0, symBinAddr: 0x10060EBA0, symSize: 0x0 }
  - { offsetInCU: 0x4E1, offset: 0x7FE34, size: 0x8, addend: 0x0, symName: _glad_glBlendColor, symObjAddr: 0x300C0, symBinAddr: 0x10060EBC0, symSize: 0x0 }
  - { offsetInCU: 0x53E, offset: 0x7FE91, size: 0x8, addend: 0x0, symName: _glad_glBlendEquation, symObjAddr: 0x300E0, symBinAddr: 0x10060EBE0, symSize: 0x0 }
  - { offsetInCU: 0x561, offset: 0x7FEB4, size: 0x8, addend: 0x0, symName: _glad_glBlendEquationSeparate, symObjAddr: 0x30100, symBinAddr: 0x10060EC00, symSize: 0x0 }
  - { offsetInCU: 0x596, offset: 0x7FEE9, size: 0x8, addend: 0x0, symName: _glad_glBlendFunc, symObjAddr: 0x30120, symBinAddr: 0x10060EC20, symSize: 0x0 }
  - { offsetInCU: 0x5B9, offset: 0x7FF0C, size: 0x8, addend: 0x0, symName: _glad_glBlendFuncSeparate, symObjAddr: 0x30140, symBinAddr: 0x10060EC40, symSize: 0x0 }
  - { offsetInCU: 0x5F8, offset: 0x7FF4B, size: 0x8, addend: 0x0, symName: _glad_glBlitFramebuffer, symObjAddr: 0x30160, symBinAddr: 0x10060EC60, symSize: 0x0 }
  - { offsetInCU: 0x66B, offset: 0x7FFBE, size: 0x8, addend: 0x0, symName: _glad_glBufferData, symObjAddr: 0x30180, symBinAddr: 0x10060EC80, symSize: 0x0 }
  - { offsetInCU: 0x6B0, offset: 0x80003, size: 0x8, addend: 0x0, symName: _glad_glBufferSubData, symObjAddr: 0x301A0, symBinAddr: 0x10060ECA0, symSize: 0x0 }
  - { offsetInCU: 0x6EF, offset: 0x80042, size: 0x8, addend: 0x0, symName: _glad_glCheckFramebufferStatus, symObjAddr: 0x301C0, symBinAddr: 0x10060ECC0, symSize: 0x0 }
  - { offsetInCU: 0x722, offset: 0x80075, size: 0x8, addend: 0x0, symName: _glad_glClampColor, symObjAddr: 0x301E0, symBinAddr: 0x10060ECE0, symSize: 0x0 }
  - { offsetInCU: 0x745, offset: 0x80098, size: 0x8, addend: 0x0, symName: _glad_glClear, symObjAddr: 0x30200, symBinAddr: 0x10060ED00, symSize: 0x0 }
  - { offsetInCU: 0x775, offset: 0x800C8, size: 0x8, addend: 0x0, symName: _glad_glClearBufferfi, symObjAddr: 0x30220, symBinAddr: 0x10060ED20, symSize: 0x0 }
  - { offsetInCU: 0x7B4, offset: 0x80107, size: 0x8, addend: 0x0, symName: _glad_glClearBufferfv, symObjAddr: 0x30240, symBinAddr: 0x10060ED40, symSize: 0x0 }
  - { offsetInCU: 0x7F8, offset: 0x8014B, size: 0x8, addend: 0x0, symName: _glad_glClearBufferiv, symObjAddr: 0x30260, symBinAddr: 0x10060ED60, symSize: 0x0 }
  - { offsetInCU: 0x83C, offset: 0x8018F, size: 0x8, addend: 0x0, symName: _glad_glClearBufferuiv, symObjAddr: 0x30280, symBinAddr: 0x10060ED80, symSize: 0x0 }
  - { offsetInCU: 0x880, offset: 0x801D3, size: 0x8, addend: 0x0, symName: _glad_glClearColor, symObjAddr: 0x302A0, symBinAddr: 0x10060EDA0, symSize: 0x0 }
  - { offsetInCU: 0x8A3, offset: 0x801F6, size: 0x8, addend: 0x0, symName: _glad_glClearDepth, symObjAddr: 0x302C0, symBinAddr: 0x10060EDC0, symSize: 0x0 }
  - { offsetInCU: 0x8E5, offset: 0x80238, size: 0x8, addend: 0x0, symName: _glad_glClearStencil, symObjAddr: 0x302E0, symBinAddr: 0x10060EDE0, symSize: 0x0 }
  - { offsetInCU: 0x915, offset: 0x80268, size: 0x8, addend: 0x0, symName: _glad_glClientWaitSync, symObjAddr: 0x30300, symBinAddr: 0x10060EE00, symSize: 0x0 }
  - { offsetInCU: 0x984, offset: 0x802D7, size: 0x8, addend: 0x0, symName: _glad_glColorMask, symObjAddr: 0x30320, symBinAddr: 0x10060EE20, symSize: 0x0 }
  - { offsetInCU: 0x9D5, offset: 0x80328, size: 0x8, addend: 0x0, symName: _glad_glColorMaski, symObjAddr: 0x30340, symBinAddr: 0x10060EE40, symSize: 0x0 }
  - { offsetInCU: 0xA19, offset: 0x8036C, size: 0x8, addend: 0x0, symName: _glad_glColorP3ui, symObjAddr: 0x30360, symBinAddr: 0x10060EE60, symSize: 0x0 }
  - { offsetInCU: 0xA3C, offset: 0x8038F, size: 0x8, addend: 0x0, symName: _glad_glColorP3uiv, symObjAddr: 0x30380, symBinAddr: 0x10060EE80, symSize: 0x0 }
  - { offsetInCU: 0xA71, offset: 0x803C4, size: 0x8, addend: 0x0, symName: _glad_glColorP4ui, symObjAddr: 0x303A0, symBinAddr: 0x10060EEA0, symSize: 0x0 }
  - { offsetInCU: 0xA94, offset: 0x803E7, size: 0x8, addend: 0x0, symName: _glad_glColorP4uiv, symObjAddr: 0x303C0, symBinAddr: 0x10060EEC0, symSize: 0x0 }
  - { offsetInCU: 0xAB7, offset: 0x8040A, size: 0x8, addend: 0x0, symName: _glad_glCompileShader, symObjAddr: 0x303E0, symBinAddr: 0x10060EEE0, symSize: 0x0 }
  - { offsetInCU: 0xADA, offset: 0x8042D, size: 0x8, addend: 0x0, symName: _glad_glCompressedTexImage1D, symObjAddr: 0x30400, symBinAddr: 0x10060EF00, symSize: 0x0 }
  - { offsetInCU: 0xB33, offset: 0x80486, size: 0x8, addend: 0x0, symName: _glad_glCompressedTexImage2D, symObjAddr: 0x30420, symBinAddr: 0x10060EF20, symSize: 0x0 }
  - { offsetInCU: 0xB86, offset: 0x804D9, size: 0x8, addend: 0x0, symName: _glad_glCompressedTexImage3D, symObjAddr: 0x30440, symBinAddr: 0x10060EF40, symSize: 0x0 }
  - { offsetInCU: 0xBDE, offset: 0x80531, size: 0x8, addend: 0x0, symName: _glad_glCompressedTexSubImage1D, symObjAddr: 0x30460, symBinAddr: 0x10060EF60, symSize: 0x0 }
  - { offsetInCU: 0xC2C, offset: 0x8057F, size: 0x8, addend: 0x0, symName: _glad_glCompressedTexSubImage2D, symObjAddr: 0x30480, symBinAddr: 0x10060EF80, symSize: 0x0 }
  - { offsetInCU: 0xC84, offset: 0x805D7, size: 0x8, addend: 0x0, symName: _glad_glCompressedTexSubImage3D, symObjAddr: 0x304A0, symBinAddr: 0x10060EFA0, symSize: 0x0 }
  - { offsetInCU: 0xCE6, offset: 0x80639, size: 0x8, addend: 0x0, symName: _glad_glCopyBufferSubData, symObjAddr: 0x304C0, symBinAddr: 0x10060EFC0, symSize: 0x0 }
  - { offsetInCU: 0xD2A, offset: 0x8067D, size: 0x8, addend: 0x0, symName: _glad_glCopyTexImage1D, symObjAddr: 0x304E0, symBinAddr: 0x10060EFE0, symSize: 0x0 }
  - { offsetInCU: 0xD78, offset: 0x806CB, size: 0x8, addend: 0x0, symName: _glad_glCopyTexImage2D, symObjAddr: 0x30500, symBinAddr: 0x10060F000, symSize: 0x0 }
  - { offsetInCU: 0xDCB, offset: 0x8071E, size: 0x8, addend: 0x0, symName: _glad_glCopyTexSubImage1D, symObjAddr: 0x30520, symBinAddr: 0x10060F020, symSize: 0x0 }
  - { offsetInCU: 0xE14, offset: 0x80767, size: 0x8, addend: 0x0, symName: _glad_glCopyTexSubImage2D, symObjAddr: 0x30540, symBinAddr: 0x10060F040, symSize: 0x0 }
  - { offsetInCU: 0xE67, offset: 0x807BA, size: 0x8, addend: 0x0, symName: _glad_glCopyTexSubImage3D, symObjAddr: 0x30560, symBinAddr: 0x10060F060, symSize: 0x0 }
  - { offsetInCU: 0xEBF, offset: 0x80812, size: 0x8, addend: 0x0, symName: _glad_glCreateProgram, symObjAddr: 0x30580, symBinAddr: 0x10060F080, symSize: 0x0 }
  - { offsetInCU: 0xEEC, offset: 0x8083F, size: 0x8, addend: 0x0, symName: _glad_glCreateShader, symObjAddr: 0x305A0, symBinAddr: 0x10060F0A0, symSize: 0x0 }
  - { offsetInCU: 0xF1F, offset: 0x80872, size: 0x8, addend: 0x0, symName: _glad_glCullFace, symObjAddr: 0x305C0, symBinAddr: 0x10060F0C0, symSize: 0x0 }
  - { offsetInCU: 0xF42, offset: 0x80895, size: 0x8, addend: 0x0, symName: _glad_glDeleteBuffers, symObjAddr: 0x305E0, symBinAddr: 0x10060F0E0, symSize: 0x0 }
  - { offsetInCU: 0xF77, offset: 0x808CA, size: 0x8, addend: 0x0, symName: _glad_glDeleteFramebuffers, symObjAddr: 0x30600, symBinAddr: 0x10060F100, symSize: 0x0 }
  - { offsetInCU: 0xF9A, offset: 0x808ED, size: 0x8, addend: 0x0, symName: _glad_glDeleteProgram, symObjAddr: 0x30620, symBinAddr: 0x10060F120, symSize: 0x0 }
  - { offsetInCU: 0xFBD, offset: 0x80910, size: 0x8, addend: 0x0, symName: _glad_glDeleteQueries, symObjAddr: 0x30640, symBinAddr: 0x10060F140, symSize: 0x0 }
  - { offsetInCU: 0xFE0, offset: 0x80933, size: 0x8, addend: 0x0, symName: _glad_glDeleteRenderbuffers, symObjAddr: 0x30660, symBinAddr: 0x10060F160, symSize: 0x0 }
  - { offsetInCU: 0x1003, offset: 0x80956, size: 0x8, addend: 0x0, symName: _glad_glDeleteSamplers, symObjAddr: 0x30680, symBinAddr: 0x10060F180, symSize: 0x0 }
  - { offsetInCU: 0x1026, offset: 0x80979, size: 0x8, addend: 0x0, symName: _glad_glDeleteShader, symObjAddr: 0x306A0, symBinAddr: 0x10060F1A0, symSize: 0x0 }
  - { offsetInCU: 0x1049, offset: 0x8099C, size: 0x8, addend: 0x0, symName: _glad_glDeleteSync, symObjAddr: 0x306C0, symBinAddr: 0x10060F1C0, symSize: 0x0 }
  - { offsetInCU: 0x1079, offset: 0x809CC, size: 0x8, addend: 0x0, symName: _glad_glDeleteTextures, symObjAddr: 0x306E0, symBinAddr: 0x10060F1E0, symSize: 0x0 }
  - { offsetInCU: 0x109C, offset: 0x809EF, size: 0x8, addend: 0x0, symName: _glad_glDeleteVertexArrays, symObjAddr: 0x30700, symBinAddr: 0x10060F200, symSize: 0x0 }
  - { offsetInCU: 0x10BF, offset: 0x80A12, size: 0x8, addend: 0x0, symName: _glad_glDepthFunc, symObjAddr: 0x30720, symBinAddr: 0x10060F220, symSize: 0x0 }
  - { offsetInCU: 0x10E2, offset: 0x80A35, size: 0x8, addend: 0x0, symName: _glad_glDepthMask, symObjAddr: 0x30740, symBinAddr: 0x10060F240, symSize: 0x0 }
  - { offsetInCU: 0x1112, offset: 0x80A65, size: 0x8, addend: 0x0, symName: _glad_glDepthRange, symObjAddr: 0x30760, symBinAddr: 0x10060F260, symSize: 0x0 }
  - { offsetInCU: 0x1147, offset: 0x80A9A, size: 0x8, addend: 0x0, symName: _glad_glDetachShader, symObjAddr: 0x30780, symBinAddr: 0x10060F280, symSize: 0x0 }
  - { offsetInCU: 0x116A, offset: 0x80ABD, size: 0x8, addend: 0x0, symName: _glad_glDisable, symObjAddr: 0x307A0, symBinAddr: 0x10060F2A0, symSize: 0x0 }
  - { offsetInCU: 0x118D, offset: 0x80AE0, size: 0x8, addend: 0x0, symName: _glad_glDisableVertexAttribArray, symObjAddr: 0x307C0, symBinAddr: 0x10060F2C0, symSize: 0x0 }
  - { offsetInCU: 0x11B0, offset: 0x80B03, size: 0x8, addend: 0x0, symName: _glad_glDisablei, symObjAddr: 0x307E0, symBinAddr: 0x10060F2E0, symSize: 0x0 }
  - { offsetInCU: 0x11D3, offset: 0x80B26, size: 0x8, addend: 0x0, symName: _glad_glDrawArrays, symObjAddr: 0x30800, symBinAddr: 0x10060F300, symSize: 0x0 }
  - { offsetInCU: 0x120D, offset: 0x80B60, size: 0x8, addend: 0x0, symName: _glad_glDrawArraysInstanced, symObjAddr: 0x30820, symBinAddr: 0x10060F320, symSize: 0x0 }
  - { offsetInCU: 0x124C, offset: 0x80B9F, size: 0x8, addend: 0x0, symName: _glad_glDrawBuffer, symObjAddr: 0x30840, symBinAddr: 0x10060F340, symSize: 0x0 }
  - { offsetInCU: 0x126F, offset: 0x80BC2, size: 0x8, addend: 0x0, symName: _glad_glDrawBuffers, symObjAddr: 0x30860, symBinAddr: 0x10060F360, symSize: 0x0 }
  - { offsetInCU: 0x12AE, offset: 0x80C01, size: 0x8, addend: 0x0, symName: _glad_glDrawElements, symObjAddr: 0x30880, symBinAddr: 0x10060F380, symSize: 0x0 }
  - { offsetInCU: 0x12ED, offset: 0x80C40, size: 0x8, addend: 0x0, symName: _glad_glDrawElementsBaseVertex, symObjAddr: 0x308A0, symBinAddr: 0x10060F3A0, symSize: 0x0 }
  - { offsetInCU: 0x1331, offset: 0x80C84, size: 0x8, addend: 0x0, symName: _glad_glDrawElementsInstanced, symObjAddr: 0x308C0, symBinAddr: 0x10060F3C0, symSize: 0x0 }
  - { offsetInCU: 0x1375, offset: 0x80CC8, size: 0x8, addend: 0x0, symName: _glad_glDrawElementsInstancedBaseVertex, symObjAddr: 0x308E0, symBinAddr: 0x10060F3E0, symSize: 0x0 }
  - { offsetInCU: 0x13BE, offset: 0x80D11, size: 0x8, addend: 0x0, symName: _glad_glDrawRangeElements, symObjAddr: 0x30900, symBinAddr: 0x10060F400, symSize: 0x0 }
  - { offsetInCU: 0x1407, offset: 0x80D5A, size: 0x8, addend: 0x0, symName: _glad_glDrawRangeElementsBaseVertex, symObjAddr: 0x30920, symBinAddr: 0x10060F420, symSize: 0x0 }
  - { offsetInCU: 0x1455, offset: 0x80DA8, size: 0x8, addend: 0x0, symName: _glad_glEnable, symObjAddr: 0x30940, symBinAddr: 0x10060F440, symSize: 0x0 }
  - { offsetInCU: 0x1478, offset: 0x80DCB, size: 0x8, addend: 0x0, symName: _glad_glEnableVertexAttribArray, symObjAddr: 0x30960, symBinAddr: 0x10060F460, symSize: 0x0 }
  - { offsetInCU: 0x149B, offset: 0x80DEE, size: 0x8, addend: 0x0, symName: _glad_glEnablei, symObjAddr: 0x30980, symBinAddr: 0x10060F480, symSize: 0x0 }
  - { offsetInCU: 0x14BE, offset: 0x80E11, size: 0x8, addend: 0x0, symName: _glad_glEndConditionalRender, symObjAddr: 0x309A0, symBinAddr: 0x10060F4A0, symSize: 0x0 }
  - { offsetInCU: 0x14E7, offset: 0x80E3A, size: 0x8, addend: 0x0, symName: _glad_glEndQuery, symObjAddr: 0x309C0, symBinAddr: 0x10060F4C0, symSize: 0x0 }
  - { offsetInCU: 0x150A, offset: 0x80E5D, size: 0x8, addend: 0x0, symName: _glad_glEndTransformFeedback, symObjAddr: 0x309E0, symBinAddr: 0x10060F4E0, symSize: 0x0 }
  - { offsetInCU: 0x152D, offset: 0x80E80, size: 0x8, addend: 0x0, symName: _glad_glFenceSync, symObjAddr: 0x30A00, symBinAddr: 0x10060F500, symSize: 0x0 }
  - { offsetInCU: 0x1565, offset: 0x80EB8, size: 0x8, addend: 0x0, symName: _glad_glFinish, symObjAddr: 0x30A20, symBinAddr: 0x10060F520, symSize: 0x0 }
  - { offsetInCU: 0x1588, offset: 0x80EDB, size: 0x8, addend: 0x0, symName: _glad_glFlush, symObjAddr: 0x30A40, symBinAddr: 0x10060F540, symSize: 0x0 }
  - { offsetInCU: 0x15AB, offset: 0x80EFE, size: 0x8, addend: 0x0, symName: _glad_glFlushMappedBufferRange, symObjAddr: 0x30A60, symBinAddr: 0x10060F560, symSize: 0x0 }
  - { offsetInCU: 0x15E5, offset: 0x80F38, size: 0x8, addend: 0x0, symName: _glad_glFramebufferRenderbuffer, symObjAddr: 0x30A80, symBinAddr: 0x10060F580, symSize: 0x0 }
  - { offsetInCU: 0x1624, offset: 0x80F77, size: 0x8, addend: 0x0, symName: _glad_glFramebufferTexture, symObjAddr: 0x30AA0, symBinAddr: 0x10060F5A0, symSize: 0x0 }
  - { offsetInCU: 0x1663, offset: 0x80FB6, size: 0x8, addend: 0x0, symName: _glad_glFramebufferTexture1D, symObjAddr: 0x30AC0, symBinAddr: 0x10060F5C0, symSize: 0x0 }
  - { offsetInCU: 0x16A7, offset: 0x80FFA, size: 0x8, addend: 0x0, symName: _glad_glFramebufferTexture2D, symObjAddr: 0x30AE0, symBinAddr: 0x10060F5E0, symSize: 0x0 }
  - { offsetInCU: 0x16CA, offset: 0x8101D, size: 0x8, addend: 0x0, symName: _glad_glFramebufferTexture3D, symObjAddr: 0x30B00, symBinAddr: 0x10060F600, symSize: 0x0 }
  - { offsetInCU: 0x1713, offset: 0x81066, size: 0x8, addend: 0x0, symName: _glad_glFramebufferTextureLayer, symObjAddr: 0x30B20, symBinAddr: 0x10060F620, symSize: 0x0 }
  - { offsetInCU: 0x1757, offset: 0x810AA, size: 0x8, addend: 0x0, symName: _glad_glFrontFace, symObjAddr: 0x30B40, symBinAddr: 0x10060F640, symSize: 0x0 }
  - { offsetInCU: 0x177A, offset: 0x810CD, size: 0x8, addend: 0x0, symName: _glad_glGenBuffers, symObjAddr: 0x30B60, symBinAddr: 0x10060F660, symSize: 0x0 }
  - { offsetInCU: 0x17B4, offset: 0x81107, size: 0x8, addend: 0x0, symName: _glad_glGenFramebuffers, symObjAddr: 0x30B80, symBinAddr: 0x10060F680, symSize: 0x0 }
  - { offsetInCU: 0x17D7, offset: 0x8112A, size: 0x8, addend: 0x0, symName: _glad_glGenQueries, symObjAddr: 0x30BA0, symBinAddr: 0x10060F6A0, symSize: 0x0 }
  - { offsetInCU: 0x17FA, offset: 0x8114D, size: 0x8, addend: 0x0, symName: _glad_glGenRenderbuffers, symObjAddr: 0x30BC0, symBinAddr: 0x10060F6C0, symSize: 0x0 }
  - { offsetInCU: 0x181D, offset: 0x81170, size: 0x8, addend: 0x0, symName: _glad_glGenSamplers, symObjAddr: 0x30BE0, symBinAddr: 0x10060F6E0, symSize: 0x0 }
  - { offsetInCU: 0x1840, offset: 0x81193, size: 0x8, addend: 0x0, symName: _glad_glGenTextures, symObjAddr: 0x30C00, symBinAddr: 0x10060F700, symSize: 0x0 }
  - { offsetInCU: 0x1863, offset: 0x811B6, size: 0x8, addend: 0x0, symName: _glad_glGenVertexArrays, symObjAddr: 0x30C20, symBinAddr: 0x10060F720, symSize: 0x0 }
  - { offsetInCU: 0x1886, offset: 0x811D9, size: 0x8, addend: 0x0, symName: _glad_glGenerateMipmap, symObjAddr: 0x30C40, symBinAddr: 0x10060F740, symSize: 0x0 }
  - { offsetInCU: 0x18A9, offset: 0x811FC, size: 0x8, addend: 0x0, symName: _glad_glGetActiveAttrib, symObjAddr: 0x30C60, symBinAddr: 0x10060F760, symSize: 0x0 }
  - { offsetInCU: 0x190B, offset: 0x8125E, size: 0x8, addend: 0x0, symName: _glad_glGetActiveUniform, symObjAddr: 0x30C80, symBinAddr: 0x10060F780, symSize: 0x0 }
  - { offsetInCU: 0x192E, offset: 0x81281, size: 0x8, addend: 0x0, symName: _glad_glGetActiveUniformBlockName, symObjAddr: 0x30CA0, symBinAddr: 0x10060F7A0, symSize: 0x0 }
  - { offsetInCU: 0x1972, offset: 0x812C5, size: 0x8, addend: 0x0, symName: _glad_glGetActiveUniformBlockiv, symObjAddr: 0x30CC0, symBinAddr: 0x10060F7C0, symSize: 0x0 }
  - { offsetInCU: 0x19B1, offset: 0x81304, size: 0x8, addend: 0x0, symName: _glad_glGetActiveUniformName, symObjAddr: 0x30CE0, symBinAddr: 0x10060F7E0, symSize: 0x0 }
  - { offsetInCU: 0x19D4, offset: 0x81327, size: 0x8, addend: 0x0, symName: _glad_glGetActiveUniformsiv, symObjAddr: 0x30D00, symBinAddr: 0x10060F800, symSize: 0x0 }
  - { offsetInCU: 0x1A18, offset: 0x8136B, size: 0x8, addend: 0x0, symName: _glad_glGetAttachedShaders, symObjAddr: 0x30D20, symBinAddr: 0x10060F820, symSize: 0x0 }
  - { offsetInCU: 0x1A57, offset: 0x813AA, size: 0x8, addend: 0x0, symName: _glad_glGetAttribLocation, symObjAddr: 0x30D40, symBinAddr: 0x10060F840, symSize: 0x0 }
  - { offsetInCU: 0x1A8F, offset: 0x813E2, size: 0x8, addend: 0x0, symName: _glad_glGetBooleani_v, symObjAddr: 0x30D60, symBinAddr: 0x10060F860, symSize: 0x0 }
  - { offsetInCU: 0x1ACE, offset: 0x81421, size: 0x8, addend: 0x0, symName: _glad_glGetBooleanv, symObjAddr: 0x30D80, symBinAddr: 0x10060F880, symSize: 0x0 }
  - { offsetInCU: 0x1B03, offset: 0x81456, size: 0x8, addend: 0x0, symName: _glad_glGetBufferParameteri64v, symObjAddr: 0x30DA0, symBinAddr: 0x10060F8A0, symSize: 0x0 }
  - { offsetInCU: 0x1B5F, offset: 0x814B2, size: 0x8, addend: 0x0, symName: _glad_glGetBufferParameteriv, symObjAddr: 0x30DC0, symBinAddr: 0x10060F8C0, symSize: 0x0 }
  - { offsetInCU: 0x1B99, offset: 0x814EC, size: 0x8, addend: 0x0, symName: _glad_glGetBufferPointerv, symObjAddr: 0x30DE0, symBinAddr: 0x10060F8E0, symSize: 0x0 }
  - { offsetInCU: 0x1BD9, offset: 0x8152C, size: 0x8, addend: 0x0, symName: _glad_glGetBufferSubData, symObjAddr: 0x30E00, symBinAddr: 0x10060F900, symSize: 0x0 }
  - { offsetInCU: 0x1C18, offset: 0x8156B, size: 0x8, addend: 0x0, symName: _glad_glGetCompressedTexImage, symObjAddr: 0x30E20, symBinAddr: 0x10060F920, symSize: 0x0 }
  - { offsetInCU: 0x1C52, offset: 0x815A5, size: 0x8, addend: 0x0, symName: _glad_glGetDoublev, symObjAddr: 0x30E40, symBinAddr: 0x10060F940, symSize: 0x0 }
  - { offsetInCU: 0x1C8C, offset: 0x815DF, size: 0x8, addend: 0x0, symName: _glad_glGetError, symObjAddr: 0x30E60, symBinAddr: 0x10060F960, symSize: 0x0 }
  - { offsetInCU: 0x1CB9, offset: 0x8160C, size: 0x8, addend: 0x0, symName: _glad_glGetFloatv, symObjAddr: 0x30E80, symBinAddr: 0x10060F980, symSize: 0x0 }
  - { offsetInCU: 0x1CF3, offset: 0x81646, size: 0x8, addend: 0x0, symName: _glad_glGetFragDataIndex, symObjAddr: 0x30EA0, symBinAddr: 0x10060F9A0, symSize: 0x0 }
  - { offsetInCU: 0x1D16, offset: 0x81669, size: 0x8, addend: 0x0, symName: _glad_glGetFragDataLocation, symObjAddr: 0x30EC0, symBinAddr: 0x10060F9C0, symSize: 0x0 }
  - { offsetInCU: 0x1D39, offset: 0x8168C, size: 0x8, addend: 0x0, symName: _glad_glGetFramebufferAttachmentParameteriv, symObjAddr: 0x30EE0, symBinAddr: 0x10060F9E0, symSize: 0x0 }
  - { offsetInCU: 0x1D78, offset: 0x816CB, size: 0x8, addend: 0x0, symName: _glad_glGetInteger64i_v, symObjAddr: 0x30F00, symBinAddr: 0x10060FA00, symSize: 0x0 }
  - { offsetInCU: 0x1DB2, offset: 0x81705, size: 0x8, addend: 0x0, symName: _glad_glGetInteger64v, symObjAddr: 0x30F20, symBinAddr: 0x10060FA20, symSize: 0x0 }
  - { offsetInCU: 0x1DE7, offset: 0x8173A, size: 0x8, addend: 0x0, symName: _glad_glGetIntegeri_v, symObjAddr: 0x30F40, symBinAddr: 0x10060FA40, symSize: 0x0 }
  - { offsetInCU: 0x1E21, offset: 0x81774, size: 0x8, addend: 0x0, symName: _glad_glGetIntegerv, symObjAddr: 0x30F60, symBinAddr: 0x10060FA60, symSize: 0x0 }
  - { offsetInCU: 0x1E56, offset: 0x817A9, size: 0x8, addend: 0x0, symName: _glad_glGetMultisamplefv, symObjAddr: 0x30F80, symBinAddr: 0x10060FA80, symSize: 0x0 }
  - { offsetInCU: 0x1E90, offset: 0x817E3, size: 0x8, addend: 0x0, symName: _glad_glGetProgramInfoLog, symObjAddr: 0x30FA0, symBinAddr: 0x10060FAA0, symSize: 0x0 }
  - { offsetInCU: 0x1ECF, offset: 0x81822, size: 0x8, addend: 0x0, symName: _glad_glGetProgramiv, symObjAddr: 0x30FC0, symBinAddr: 0x10060FAC0, symSize: 0x0 }
  - { offsetInCU: 0x1F09, offset: 0x8185C, size: 0x8, addend: 0x0, symName: _glad_glGetQueryObjecti64v, symObjAddr: 0x30FE0, symBinAddr: 0x10060FAE0, symSize: 0x0 }
  - { offsetInCU: 0x1F43, offset: 0x81896, size: 0x8, addend: 0x0, symName: _glad_glGetQueryObjectiv, symObjAddr: 0x31000, symBinAddr: 0x10060FB00, symSize: 0x0 }
  - { offsetInCU: 0x1F66, offset: 0x818B9, size: 0x8, addend: 0x0, symName: _glad_glGetQueryObjectui64v, symObjAddr: 0x31020, symBinAddr: 0x10060FB20, symSize: 0x0 }
  - { offsetInCU: 0x1FA5, offset: 0x818F8, size: 0x8, addend: 0x0, symName: _glad_glGetQueryObjectuiv, symObjAddr: 0x31040, symBinAddr: 0x10060FB40, symSize: 0x0 }
  - { offsetInCU: 0x1FDF, offset: 0x81932, size: 0x8, addend: 0x0, symName: _glad_glGetQueryiv, symObjAddr: 0x31060, symBinAddr: 0x10060FB60, symSize: 0x0 }
  - { offsetInCU: 0x2002, offset: 0x81955, size: 0x8, addend: 0x0, symName: _glad_glGetRenderbufferParameteriv, symObjAddr: 0x31080, symBinAddr: 0x10060FB80, symSize: 0x0 }
  - { offsetInCU: 0x2025, offset: 0x81978, size: 0x8, addend: 0x0, symName: _glad_glGetSamplerParameterIiv, symObjAddr: 0x310A0, symBinAddr: 0x10060FBA0, symSize: 0x0 }
  - { offsetInCU: 0x2048, offset: 0x8199B, size: 0x8, addend: 0x0, symName: _glad_glGetSamplerParameterIuiv, symObjAddr: 0x310C0, symBinAddr: 0x10060FBC0, symSize: 0x0 }
  - { offsetInCU: 0x206B, offset: 0x819BE, size: 0x8, addend: 0x0, symName: _glad_glGetSamplerParameterfv, symObjAddr: 0x310E0, symBinAddr: 0x10060FBE0, symSize: 0x0 }
  - { offsetInCU: 0x20A5, offset: 0x819F8, size: 0x8, addend: 0x0, symName: _glad_glGetSamplerParameteriv, symObjAddr: 0x31100, symBinAddr: 0x10060FC00, symSize: 0x0 }
  - { offsetInCU: 0x20C8, offset: 0x81A1B, size: 0x8, addend: 0x0, symName: _glad_glGetShaderInfoLog, symObjAddr: 0x31120, symBinAddr: 0x10060FC20, symSize: 0x0 }
  - { offsetInCU: 0x20EB, offset: 0x81A3E, size: 0x8, addend: 0x0, symName: _glad_glGetShaderSource, symObjAddr: 0x31140, symBinAddr: 0x10060FC40, symSize: 0x0 }
  - { offsetInCU: 0x210E, offset: 0x81A61, size: 0x8, addend: 0x0, symName: _glad_glGetShaderiv, symObjAddr: 0x31160, symBinAddr: 0x10060FC60, symSize: 0x0 }
  - { offsetInCU: 0x2131, offset: 0x81A84, size: 0x8, addend: 0x0, symName: _glad_glGetString, symObjAddr: 0x31180, symBinAddr: 0x10060FC80, symSize: 0x0 }
  - { offsetInCU: 0x2184, offset: 0x81AD7, size: 0x8, addend: 0x0, symName: _glad_glGetStringi, symObjAddr: 0x311A0, symBinAddr: 0x10060FCA0, symSize: 0x0 }
  - { offsetInCU: 0x21BC, offset: 0x81B0F, size: 0x8, addend: 0x0, symName: _glad_glGetSynciv, symObjAddr: 0x311C0, symBinAddr: 0x10060FCC0, symSize: 0x0 }
  - { offsetInCU: 0x2200, offset: 0x81B53, size: 0x8, addend: 0x0, symName: _glad_glGetTexImage, symObjAddr: 0x311E0, symBinAddr: 0x10060FCE0, symSize: 0x0 }
  - { offsetInCU: 0x2244, offset: 0x81B97, size: 0x8, addend: 0x0, symName: _glad_glGetTexLevelParameterfv, symObjAddr: 0x31200, symBinAddr: 0x10060FD00, symSize: 0x0 }
  - { offsetInCU: 0x2283, offset: 0x81BD6, size: 0x8, addend: 0x0, symName: _glad_glGetTexLevelParameteriv, symObjAddr: 0x31220, symBinAddr: 0x10060FD20, symSize: 0x0 }
  - { offsetInCU: 0x22C2, offset: 0x81C15, size: 0x8, addend: 0x0, symName: _glad_glGetTexParameterIiv, symObjAddr: 0x31240, symBinAddr: 0x10060FD40, symSize: 0x0 }
  - { offsetInCU: 0x22E5, offset: 0x81C38, size: 0x8, addend: 0x0, symName: _glad_glGetTexParameterIuiv, symObjAddr: 0x31260, symBinAddr: 0x10060FD60, symSize: 0x0 }
  - { offsetInCU: 0x231F, offset: 0x81C72, size: 0x8, addend: 0x0, symName: _glad_glGetTexParameterfv, symObjAddr: 0x31280, symBinAddr: 0x10060FD80, symSize: 0x0 }
  - { offsetInCU: 0x2359, offset: 0x81CAC, size: 0x8, addend: 0x0, symName: _glad_glGetTexParameteriv, symObjAddr: 0x312A0, symBinAddr: 0x10060FDA0, symSize: 0x0 }
  - { offsetInCU: 0x237C, offset: 0x81CCF, size: 0x8, addend: 0x0, symName: _glad_glGetTransformFeedbackVarying, symObjAddr: 0x312C0, symBinAddr: 0x10060FDC0, symSize: 0x0 }
  - { offsetInCU: 0x23CA, offset: 0x81D1D, size: 0x8, addend: 0x0, symName: _glad_glGetUniformBlockIndex, symObjAddr: 0x312E0, symBinAddr: 0x10060FDE0, symSize: 0x0 }
  - { offsetInCU: 0x2402, offset: 0x81D55, size: 0x8, addend: 0x0, symName: _glad_glGetUniformIndices, symObjAddr: 0x31300, symBinAddr: 0x10060FE00, symSize: 0x0 }
  - { offsetInCU: 0x244B, offset: 0x81D9E, size: 0x8, addend: 0x0, symName: _glad_glGetUniformLocation, symObjAddr: 0x31320, symBinAddr: 0x10060FE20, symSize: 0x0 }
  - { offsetInCU: 0x246E, offset: 0x81DC1, size: 0x8, addend: 0x0, symName: _glad_glGetUniformfv, symObjAddr: 0x31340, symBinAddr: 0x10060FE40, symSize: 0x0 }
  - { offsetInCU: 0x24A8, offset: 0x81DFB, size: 0x8, addend: 0x0, symName: _glad_glGetUniformiv, symObjAddr: 0x31360, symBinAddr: 0x10060FE60, symSize: 0x0 }
  - { offsetInCU: 0x24E2, offset: 0x81E35, size: 0x8, addend: 0x0, symName: _glad_glGetUniformuiv, symObjAddr: 0x31380, symBinAddr: 0x10060FE80, symSize: 0x0 }
  - { offsetInCU: 0x251C, offset: 0x81E6F, size: 0x8, addend: 0x0, symName: _glad_glGetVertexAttribIiv, symObjAddr: 0x313A0, symBinAddr: 0x10060FEA0, symSize: 0x0 }
  - { offsetInCU: 0x253F, offset: 0x81E92, size: 0x8, addend: 0x0, symName: _glad_glGetVertexAttribIuiv, symObjAddr: 0x313C0, symBinAddr: 0x10060FEC0, symSize: 0x0 }
  - { offsetInCU: 0x2562, offset: 0x81EB5, size: 0x8, addend: 0x0, symName: _glad_glGetVertexAttribPointerv, symObjAddr: 0x313E0, symBinAddr: 0x10060FEE0, symSize: 0x0 }
  - { offsetInCU: 0x259C, offset: 0x81EEF, size: 0x8, addend: 0x0, symName: _glad_glGetVertexAttribdv, symObjAddr: 0x31400, symBinAddr: 0x10060FF00, symSize: 0x0 }
  - { offsetInCU: 0x25D6, offset: 0x81F29, size: 0x8, addend: 0x0, symName: _glad_glGetVertexAttribfv, symObjAddr: 0x31420, symBinAddr: 0x10060FF20, symSize: 0x0 }
  - { offsetInCU: 0x25F9, offset: 0x81F4C, size: 0x8, addend: 0x0, symName: _glad_glGetVertexAttribiv, symObjAddr: 0x31440, symBinAddr: 0x10060FF40, symSize: 0x0 }
  - { offsetInCU: 0x261C, offset: 0x81F6F, size: 0x8, addend: 0x0, symName: _glad_glHint, symObjAddr: 0x31460, symBinAddr: 0x10060FF60, symSize: 0x0 }
  - { offsetInCU: 0x263F, offset: 0x81F92, size: 0x8, addend: 0x0, symName: _glad_glIsBuffer, symObjAddr: 0x31480, symBinAddr: 0x10060FF80, symSize: 0x0 }
  - { offsetInCU: 0x2672, offset: 0x81FC5, size: 0x8, addend: 0x0, symName: _glad_glIsEnabled, symObjAddr: 0x314A0, symBinAddr: 0x10060FFA0, symSize: 0x0 }
  - { offsetInCU: 0x26A5, offset: 0x81FF8, size: 0x8, addend: 0x0, symName: _glad_glIsEnabledi, symObjAddr: 0x314C0, symBinAddr: 0x10060FFC0, symSize: 0x0 }
  - { offsetInCU: 0x26DD, offset: 0x82030, size: 0x8, addend: 0x0, symName: _glad_glIsFramebuffer, symObjAddr: 0x314E0, symBinAddr: 0x10060FFE0, symSize: 0x0 }
  - { offsetInCU: 0x2700, offset: 0x82053, size: 0x8, addend: 0x0, symName: _glad_glIsProgram, symObjAddr: 0x31500, symBinAddr: 0x100610000, symSize: 0x0 }
  - { offsetInCU: 0x2723, offset: 0x82076, size: 0x8, addend: 0x0, symName: _glad_glIsQuery, symObjAddr: 0x31520, symBinAddr: 0x100610020, symSize: 0x0 }
  - { offsetInCU: 0x2746, offset: 0x82099, size: 0x8, addend: 0x0, symName: _glad_glIsRenderbuffer, symObjAddr: 0x31540, symBinAddr: 0x100610040, symSize: 0x0 }
  - { offsetInCU: 0x2769, offset: 0x820BC, size: 0x8, addend: 0x0, symName: _glad_glIsSampler, symObjAddr: 0x31560, symBinAddr: 0x100610060, symSize: 0x0 }
  - { offsetInCU: 0x278C, offset: 0x820DF, size: 0x8, addend: 0x0, symName: _glad_glIsShader, symObjAddr: 0x31580, symBinAddr: 0x100610080, symSize: 0x0 }
  - { offsetInCU: 0x27AF, offset: 0x82102, size: 0x8, addend: 0x0, symName: _glad_glIsSync, symObjAddr: 0x315A0, symBinAddr: 0x1006100A0, symSize: 0x0 }
  - { offsetInCU: 0x27E2, offset: 0x82135, size: 0x8, addend: 0x0, symName: _glad_glIsTexture, symObjAddr: 0x315C0, symBinAddr: 0x1006100C0, symSize: 0x0 }
  - { offsetInCU: 0x2805, offset: 0x82158, size: 0x8, addend: 0x0, symName: _glad_glIsVertexArray, symObjAddr: 0x315E0, symBinAddr: 0x1006100E0, symSize: 0x0 }
  - { offsetInCU: 0x2828, offset: 0x8217B, size: 0x8, addend: 0x0, symName: _glad_glLineWidth, symObjAddr: 0x31600, symBinAddr: 0x100610100, symSize: 0x0 }
  - { offsetInCU: 0x2858, offset: 0x821AB, size: 0x8, addend: 0x0, symName: _glad_glLinkProgram, symObjAddr: 0x31620, symBinAddr: 0x100610120, symSize: 0x0 }
  - { offsetInCU: 0x287B, offset: 0x821CE, size: 0x8, addend: 0x0, symName: _glad_glLogicOp, symObjAddr: 0x31640, symBinAddr: 0x100610140, symSize: 0x0 }
  - { offsetInCU: 0x289E, offset: 0x821F1, size: 0x8, addend: 0x0, symName: _glad_glMapBuffer, symObjAddr: 0x31660, symBinAddr: 0x100610160, symSize: 0x0 }
  - { offsetInCU: 0x28D6, offset: 0x82229, size: 0x8, addend: 0x0, symName: _glad_glMapBufferRange, symObjAddr: 0x31680, symBinAddr: 0x100610180, symSize: 0x0 }
  - { offsetInCU: 0x2918, offset: 0x8226B, size: 0x8, addend: 0x0, symName: _glad_glMultiDrawArrays, symObjAddr: 0x316A0, symBinAddr: 0x1006101A0, symSize: 0x0 }
  - { offsetInCU: 0x2961, offset: 0x822B4, size: 0x8, addend: 0x0, symName: _glad_glMultiDrawElements, symObjAddr: 0x316C0, symBinAddr: 0x1006101C0, symSize: 0x0 }
